
Game_TEAD_Aliens_64A.elf:     file format elf32-avr

Sections:
Idx Name          Size      VMA       LMA       File off  Algn
  0 .data         000001e2  00800100  0000db00  0000dbb4  2**0
                  CONTENTS, ALLOC, LOAD, DATA
  1 .text         0000db00  00000000  00000000  000000b4  2**1
                  CONTENTS, ALLOC, LOAD, READONLY, CODE
  2 .bss          0000067f  008002e2  008002e2  0000dd96  2**0
                  ALLOC
  3 .eeprom       0000001e  00810000  00810000  0000dd96  2**0
                  CONTENTS, ALLOC, LOAD, DATA
  4 .comment      0000005c  00000000  00000000  0000ddb4  2**0
                  CONTENTS, READONLY
  5 .note.gnu.avr.deviceinfo 0000003c  00000000  00000000  0000de10  2**2
                  CONTENTS, READONLY
  6 .debug_aranges 000007f0  00000000  00000000  0000de50  2**3
                  CONTENTS, READONLY, DEBUGGING
  7 .debug_info   000105b1  00000000  00000000  0000e640  2**0
                  CONTENTS, READONLY, DEBUGGING
  8 .debug_abbrev 00002f44  00000000  00000000  0001ebf1  2**0
                  CONTENTS, READONLY, DEBUGGING
  9 .debug_line   00005c81  00000000  00000000  00021b35  2**0
                  CONTENTS, READONLY, DEBUGGING
 10 .debug_frame  00001ad4  00000000  00000000  000277b8  2**2
                  CONTENTS, READONLY, DEBUGGING
 11 .debug_str    000039f8  00000000  00000000  0002928c  2**0
                  CONTENTS, READONLY, DEBUGGING
 12 .debug_loc    000088c7  00000000  00000000  0002cc84  2**0
                  CONTENTS, READONLY, DEBUGGING
 13 .debug_ranges 00000ac0  00000000  00000000  0003554b  2**0
                  CONTENTS, READONLY, DEBUGGING

Disassembly of section .text:

00000000 <__vectors>:
       0:	0c 94 62 3f 	jmp	0x7ec4	; 0x7ec4 <__dtors_end>
       4:	0c 94 8a 3f 	jmp	0x7f14	; 0x7f14 <__bad_interrupt>
       8:	0c 94 8a 3f 	jmp	0x7f14	; 0x7f14 <__bad_interrupt>
       c:	0c 94 8a 3f 	jmp	0x7f14	; 0x7f14 <__bad_interrupt>
      10:	0c 94 8a 3f 	jmp	0x7f14	; 0x7f14 <__bad_interrupt>
      14:	0c 94 8a 3f 	jmp	0x7f14	; 0x7f14 <__bad_interrupt>
      18:	0c 94 84 62 	jmp	0xc508	; 0xc508 <__vector_6>
      1c:	0c 94 8a 3f 	jmp	0x7f14	; 0x7f14 <__bad_interrupt>
      20:	0c 94 8a 3f 	jmp	0x7f14	; 0x7f14 <__bad_interrupt>
      24:	0c 94 8a 3f 	jmp	0x7f14	; 0x7f14 <__bad_interrupt>
      28:	0c 94 8a 3f 	jmp	0x7f14	; 0x7f14 <__bad_interrupt>
      2c:	0c 94 8a 3f 	jmp	0x7f14	; 0x7f14 <__bad_interrupt>
      30:	0c 94 d2 65 	jmp	0xcba4	; 0xcba4 <__vector_12>
      34:	0c 94 8a 3f 	jmp	0x7f14	; 0x7f14 <__bad_interrupt>
      38:	0c 94 8a 3f 	jmp	0x7f14	; 0x7f14 <__bad_interrupt>
      3c:	0c 94 8a 3f 	jmp	0x7f14	; 0x7f14 <__bad_interrupt>
      40:	0c 94 8a 3f 	jmp	0x7f14	; 0x7f14 <__bad_interrupt>
      44:	0c 94 8a 3f 	jmp	0x7f14	; 0x7f14 <__bad_interrupt>
      48:	0c 94 9b 66 	jmp	0xcd36	; 0xcd36 <__vector_18>
      4c:	0c 94 8a 3f 	jmp	0x7f14	; 0x7f14 <__bad_interrupt>
      50:	0c 94 8a 3f 	jmp	0x7f14	; 0x7f14 <__bad_interrupt>
      54:	0c 94 8a 3f 	jmp	0x7f14	; 0x7f14 <__bad_interrupt>
      58:	0c 94 8a 3f 	jmp	0x7f14	; 0x7f14 <__bad_interrupt>
      5c:	0c 94 8a 3f 	jmp	0x7f14	; 0x7f14 <__bad_interrupt>
      60:	0c 94 8a 3f 	jmp	0x7f14	; 0x7f14 <__bad_interrupt>
      64:	0c 94 8a 3f 	jmp	0x7f14	; 0x7f14 <__bad_interrupt>
      68:	0c 94 8a 3f 	jmp	0x7f14	; 0x7f14 <__bad_interrupt>
      6c:	0c 94 8a 3f 	jmp	0x7f14	; 0x7f14 <__bad_interrupt>
      70:	0c 94 8a 3f 	jmp	0x7f14	; 0x7f14 <__bad_interrupt>
      74:	0c 94 8a 3f 	jmp	0x7f14	; 0x7f14 <__bad_interrupt>
      78:	0c 94 db 66 	jmp	0xcdb6	; 0xcdb6 <__vector_30>
      7c:	0c 94 8a 3f 	jmp	0x7f14	; 0x7f14 <__bad_interrupt>
      80:	0c 94 8a 3f 	jmp	0x7f14	; 0x7f14 <__bad_interrupt>
      84:	0c 94 8a 3f 	jmp	0x7f14	; 0x7f14 <__bad_interrupt>
      88:	0c 94 8a 3f 	jmp	0x7f14	; 0x7f14 <__bad_interrupt>

0000008c <__trampolines_end>:
	...
      94:	20 20       	and	r2, r0
      96:	20 20       	and	r2, r0
      98:	20 00       	.word	0x0020	; ????
      9a:	20 00       	.word	0x0020	; ????
      9c:	50 50       	subi	r21, 0x00	; 0
      9e:	50 00       	.word	0x0050	; ????
      a0:	00 00       	nop
      a2:	00 00       	nop
      a4:	50 50       	subi	r21, 0x00	; 0
      a6:	f8 50       	subi	r31, 0x08	; 8
      a8:	f8 50       	subi	r31, 0x08	; 8
      aa:	50 00       	.word	0x0050	; ????
      ac:	20 78       	andi	r18, 0x80	; 128
      ae:	a0 70       	andi	r26, 0x00	; 0
      b0:	28 f0       	brcs	.+10     	; 0xbc <__trampolines_end+0x30>
      b2:	20 00       	.word	0x0020	; ????
      b4:	c0 c8       	rjmp	.-3712   	; 0xfffff236 <__eeprom_end+0xff7ef218>
      b6:	10 20       	and	r1, r0
      b8:	40 98       	cbi	0x08, 0	; 8
      ba:	18 00       	.word	0x0018	; ????
      bc:	40 a0       	ldd	r4, Z+32	; 0x20
      be:	40 a8       	ldd	r4, Z+48	; 0x30
      c0:	90 98       	cbi	0x12, 0	; 18
      c2:	60 00       	.word	0x0060	; ????
      c4:	10 20       	and	r1, r0
      c6:	40 00       	.word	0x0040	; ????
      c8:	00 00       	nop
      ca:	00 00       	nop
      cc:	10 20       	and	r1, r0
      ce:	40 40       	sbci	r20, 0x00	; 0
      d0:	40 20       	and	r4, r0
      d2:	10 00       	.word	0x0010	; ????
      d4:	40 20       	and	r4, r0
      d6:	10 10       	cpse	r1, r0
      d8:	10 20       	and	r1, r0
      da:	40 00       	.word	0x0040	; ????
      dc:	20 a8       	ldd	r2, Z+48	; 0x30
      de:	70 20       	and	r7, r0
      e0:	70 a8       	ldd	r7, Z+48	; 0x30
      e2:	20 00       	.word	0x0020	; ????
      e4:	00 20       	and	r0, r0
      e6:	20 f8       	bld	r2, 0
      e8:	20 20       	and	r2, r0
      ea:	00 00       	nop
      ec:	00 00       	nop
      ee:	00 00       	nop
      f0:	00 20       	and	r0, r0
      f2:	20 40       	sbci	r18, 0x00	; 0
      f4:	00 00       	nop
      f6:	00 78       	andi	r16, 0x80	; 128
	...
     100:	00 60       	ori	r16, 0x00	; 0
     102:	60 00       	.word	0x0060	; ????
     104:	00 00       	nop
     106:	08 10       	cpse	r0, r8
     108:	20 40       	sbci	r18, 0x00	; 0
     10a:	80 00       	.word	0x0080	; ????
     10c:	70 88       	ldd	r7, Z+16	; 0x10
     10e:	98 a8       	ldd	r9, Y+48	; 0x30
     110:	c8 88       	ldd	r12, Y+16	; 0x10
     112:	70 00       	.word	0x0070	; ????
     114:	20 60       	ori	r18, 0x00	; 0
     116:	a0 20       	and	r10, r0
     118:	20 20       	and	r2, r0
     11a:	f8 00       	.word	0x00f8	; ????
     11c:	70 88       	ldd	r7, Z+16	; 0x10
     11e:	08 70       	andi	r16, 0x08	; 8
     120:	80 80       	ld	r8, Z
     122:	f8 00       	.word	0x00f8	; ????
     124:	70 88       	ldd	r7, Z+16	; 0x10
     126:	08 30       	cpi	r16, 0x08	; 8
     128:	08 88       	ldd	r0, Y+16	; 0x10
     12a:	70 00       	.word	0x0070	; ????
     12c:	10 30       	cpi	r17, 0x00	; 0
     12e:	50 90 f8 10 	lds	r5, 0x10F8	; 0x8010f8 <__bss_end+0x797>
     132:	10 00       	.word	0x0010	; ????
     134:	f8 80       	ld	r15, Y
     136:	80 f0       	brcs	.+32     	; 0x158 <__trampolines_end+0xcc>
     138:	08 08       	sbc	r0, r8
     13a:	f0 00       	.word	0x00f0	; ????
     13c:	70 80       	ld	r7, Z
     13e:	80 f0       	brcs	.+32     	; 0x160 <__trampolines_end+0xd4>
     140:	88 88       	ldd	r8, Y+16	; 0x10
     142:	70 00       	.word	0x0070	; ????
     144:	f8 88       	ldd	r15, Y+16	; 0x10
     146:	10 10       	cpse	r1, r0
     148:	10 10       	cpse	r1, r0
     14a:	10 00       	.word	0x0010	; ????
     14c:	70 88       	ldd	r7, Z+16	; 0x10
     14e:	88 70       	andi	r24, 0x08	; 8
     150:	88 88       	ldd	r8, Y+16	; 0x10
     152:	70 00       	.word	0x0070	; ????
     154:	70 88       	ldd	r7, Z+16	; 0x10
     156:	88 78       	andi	r24, 0x88	; 136
     158:	08 08       	sbc	r0, r8
     15a:	70 00       	.word	0x0070	; ????
     15c:	00 00       	nop
     15e:	20 00       	.word	0x0020	; ????
     160:	00 20       	and	r0, r0
     162:	00 00       	nop
     164:	00 00       	nop
     166:	20 00       	.word	0x0020	; ????
     168:	00 20       	and	r0, r0
     16a:	20 40       	sbci	r18, 0x00	; 0
     16c:	18 30       	cpi	r17, 0x08	; 8
     16e:	60 c0       	rjmp	.+192    	; 0x230 <__trampolines_end+0x1a4>
     170:	60 30       	cpi	r22, 0x00	; 0
     172:	18 00       	.word	0x0018	; ????
     174:	00 00       	nop
     176:	f8 00       	.word	0x00f8	; ????
     178:	f8 00       	.word	0x00f8	; ????
     17a:	00 00       	nop
     17c:	c0 60       	ori	r28, 0x00	; 0
     17e:	30 18       	sub	r3, r0
     180:	30 60       	ori	r19, 0x00	; 0
     182:	c0 00       	.word	0x00c0	; ????
     184:	70 88       	ldd	r7, Z+16	; 0x10
     186:	08 10       	cpse	r0, r8
     188:	20 00       	.word	0x0020	; ????
     18a:	20 00       	.word	0x0020	; ????
     18c:	70 88       	ldd	r7, Z+16	; 0x10
     18e:	08 48       	sbci	r16, 0x88	; 136
     190:	a8 a8       	ldd	r10, Y+48	; 0x30
     192:	70 00       	.word	0x0070	; ????
     194:	70 88       	ldd	r7, Z+16	; 0x10
     196:	88 88       	ldd	r8, Y+16	; 0x10
     198:	f8 88       	ldd	r15, Y+16	; 0x10
     19a:	88 00       	.word	0x0088	; ????
     19c:	f0 88       	ldd	r15, Z+16	; 0x10
     19e:	88 f0       	brcs	.+34     	; 0x1c2 <__trampolines_end+0x136>
     1a0:	88 88       	ldd	r8, Y+16	; 0x10
     1a2:	f0 00       	.word	0x00f0	; ????
     1a4:	70 88       	ldd	r7, Z+16	; 0x10
     1a6:	80 80       	ld	r8, Z
     1a8:	80 88       	ldd	r8, Z+16	; 0x10
     1aa:	70 00       	.word	0x0070	; ????
     1ac:	f0 88       	ldd	r15, Z+16	; 0x10
     1ae:	88 88       	ldd	r8, Y+16	; 0x10
     1b0:	88 88       	ldd	r8, Y+16	; 0x10
     1b2:	f0 00       	.word	0x00f0	; ????
     1b4:	f8 80       	ld	r15, Y
     1b6:	80 f0       	brcs	.+32     	; 0x1d8 <__trampolines_end+0x14c>
     1b8:	80 80       	ld	r8, Z
     1ba:	f8 00       	.word	0x00f8	; ????
     1bc:	f8 80       	ld	r15, Y
     1be:	80 f0       	brcs	.+32     	; 0x1e0 <__trampolines_end+0x154>
     1c0:	80 80       	ld	r8, Z
     1c2:	80 00       	.word	0x0080	; ????
     1c4:	70 88       	ldd	r7, Z+16	; 0x10
     1c6:	80 b8       	out	0x00, r8	; 0
     1c8:	88 88       	ldd	r8, Y+16	; 0x10
     1ca:	70 00       	.word	0x0070	; ????
     1cc:	88 88       	ldd	r8, Y+16	; 0x10
     1ce:	88 f8       	.word	0xf888	; ????
     1d0:	88 88       	ldd	r8, Y+16	; 0x10
     1d2:	88 00       	.word	0x0088	; ????
     1d4:	20 00       	.word	0x0020	; ????
     1d6:	20 20       	and	r2, r0
     1d8:	20 20       	and	r2, r0
     1da:	70 00       	.word	0x0070	; ????
     1dc:	38 10       	cpse	r3, r8
     1de:	10 10       	cpse	r1, r0
     1e0:	90 90 60 00 	lds	r9, 0x0060	; 0x800060 <__TEXT_REGION_LENGTH__+0x7f0060>
     1e4:	88 90       	.word	0x9088	; ????
     1e6:	a0 c0       	rjmp	.+320    	; 0x328 <__trampolines_end+0x29c>
     1e8:	a0 90 88 00 	lds	r10, 0x0088	; 0x800088 <__TEXT_REGION_LENGTH__+0x7f0088>
     1ec:	80 80       	ld	r8, Z
     1ee:	80 80       	ld	r8, Z
     1f0:	80 80       	ld	r8, Z
     1f2:	f8 00       	.word	0x00f8	; ????
     1f4:	88 d8       	rcall	.-3824   	; 0xfffff306 <__eeprom_end+0xff7ef2e8>
     1f6:	a8 a8       	ldd	r10, Y+48	; 0x30
     1f8:	88 88       	ldd	r8, Y+16	; 0x10
     1fa:	88 00       	.word	0x0088	; ????
     1fc:	88 c8       	rjmp	.-3824   	; 0xfffff30e <__eeprom_end+0xff7ef2f0>
     1fe:	c8 a8       	ldd	r12, Y+48	; 0x30
     200:	98 98       	cbi	0x13, 0	; 19
     202:	88 00       	.word	0x0088	; ????
     204:	70 88       	ldd	r7, Z+16	; 0x10
     206:	88 88       	ldd	r8, Y+16	; 0x10
     208:	88 88       	ldd	r8, Y+16	; 0x10
     20a:	70 00       	.word	0x0070	; ????
     20c:	f0 88       	ldd	r15, Z+16	; 0x10
     20e:	88 f0       	brcs	.+34     	; 0x232 <__trampolines_end+0x1a6>
     210:	80 80       	ld	r8, Z
     212:	80 00       	.word	0x0080	; ????
     214:	70 88       	ldd	r7, Z+16	; 0x10
     216:	88 88       	ldd	r8, Y+16	; 0x10
     218:	a8 90       	.word	0x90a8	; ????
     21a:	68 00       	.word	0x0068	; ????
     21c:	f0 88       	ldd	r15, Z+16	; 0x10
     21e:	88 f0       	brcs	.+34     	; 0x242 <__trampolines_end+0x1b6>
     220:	a0 90 88 00 	lds	r10, 0x0088	; 0x800088 <__TEXT_REGION_LENGTH__+0x7f0088>
     224:	70 88       	ldd	r7, Z+16	; 0x10
     226:	80 70       	andi	r24, 0x00	; 0
     228:	08 88       	ldd	r0, Y+16	; 0x10
     22a:	70 00       	.word	0x0070	; ????
     22c:	f8 20       	and	r15, r8
     22e:	20 20       	and	r2, r0
     230:	20 20       	and	r2, r0
     232:	20 00       	.word	0x0020	; ????
     234:	88 88       	ldd	r8, Y+16	; 0x10
     236:	88 88       	ldd	r8, Y+16	; 0x10
     238:	88 88       	ldd	r8, Y+16	; 0x10
     23a:	70 00       	.word	0x0070	; ????
     23c:	88 88       	ldd	r8, Y+16	; 0x10
     23e:	88 88       	ldd	r8, Y+16	; 0x10
     240:	50 50       	subi	r21, 0x00	; 0
     242:	20 00       	.word	0x0020	; ????
     244:	88 88       	ldd	r8, Y+16	; 0x10
     246:	88 a8       	ldd	r8, Y+48	; 0x30
     248:	a8 d8       	rcall	.-3760   	; 0xfffff39a <__eeprom_end+0xff7ef37c>
     24a:	88 00       	.word	0x0088	; ????
     24c:	88 88       	ldd	r8, Y+16	; 0x10
     24e:	50 20       	and	r5, r0
     250:	50 88       	ldd	r5, Z+16	; 0x10
     252:	88 00       	.word	0x0088	; ????
     254:	88 88       	ldd	r8, Y+16	; 0x10
     256:	88 70       	andi	r24, 0x08	; 8
     258:	20 20       	and	r2, r0
     25a:	20 00       	.word	0x0020	; ????
     25c:	f8 08       	sbc	r15, r8
     25e:	10 20       	and	r1, r0
     260:	40 80       	ld	r4, Z
     262:	f8 00       	.word	0x00f8	; ????
     264:	70 40       	sbci	r23, 0x00	; 0
     266:	40 40       	sbci	r20, 0x00	; 0
     268:	40 40       	sbci	r20, 0x00	; 0
     26a:	70 00       	.word	0x0070	; ????
     26c:	00 00       	nop
     26e:	80 40       	sbci	r24, 0x00	; 0
     270:	20 10       	cpse	r2, r0
     272:	08 00       	.word	0x0008	; ????
     274:	70 10       	cpse	r7, r0
     276:	10 10       	cpse	r1, r0
     278:	10 10       	cpse	r1, r0
     27a:	70 00       	.word	0x0070	; ????
     27c:	20 50       	subi	r18, 0x00	; 0
     27e:	88 00       	.word	0x0088	; ????
	...
     288:	00 00       	nop
     28a:	f8 00       	.word	0x00f8	; ????
     28c:	80 40       	sbci	r24, 0x00	; 0
     28e:	20 00       	.word	0x0020	; ????
     290:	00 00       	nop
     292:	00 00       	nop
     294:	00 00       	nop
     296:	70 08       	sbc	r7, r0
     298:	78 88       	ldd	r7, Y+16	; 0x10
     29a:	78 00       	.word	0x0078	; ????
     29c:	80 80       	ld	r8, Z
     29e:	b0 c8       	rjmp	.-3744   	; 0xfffff400 <__eeprom_end+0xff7ef3e2>
     2a0:	88 c8       	rjmp	.-3824   	; 0xfffff3b2 <__eeprom_end+0xff7ef394>
     2a2:	b0 00       	.word	0x00b0	; ????
     2a4:	00 00       	nop
     2a6:	70 88       	ldd	r7, Z+16	; 0x10
     2a8:	80 88       	ldd	r8, Z+16	; 0x10
     2aa:	70 00       	.word	0x0070	; ????
     2ac:	08 08       	sbc	r0, r8
     2ae:	68 98       	cbi	0x0d, 0	; 13
     2b0:	88 98       	cbi	0x11, 0	; 17
     2b2:	68 00       	.word	0x0068	; ????
     2b4:	00 00       	nop
     2b6:	70 88       	ldd	r7, Z+16	; 0x10
     2b8:	f8 80       	ld	r15, Y
     2ba:	70 00       	.word	0x0070	; ????
     2bc:	10 28       	or	r1, r0
     2be:	20 f8       	bld	r2, 0
     2c0:	20 20       	and	r2, r0
     2c2:	20 00       	.word	0x0020	; ????
     2c4:	00 00       	nop
     2c6:	68 98       	cbi	0x0d, 0	; 13
     2c8:	98 68       	ori	r25, 0x88	; 136
     2ca:	08 70       	andi	r16, 0x08	; 8
     2cc:	80 80       	ld	r8, Z
     2ce:	f0 88       	ldd	r15, Z+16	; 0x10
     2d0:	88 88       	ldd	r8, Y+16	; 0x10
     2d2:	88 00       	.word	0x0088	; ????
     2d4:	20 00       	.word	0x0020	; ????
     2d6:	60 20       	and	r6, r0
     2d8:	20 20       	and	r2, r0
     2da:	70 00       	.word	0x0070	; ????
     2dc:	10 00       	.word	0x0010	; ????
     2de:	30 10       	cpse	r3, r0
     2e0:	10 10       	cpse	r1, r0
     2e2:	90 60       	ori	r25, 0x00	; 0
     2e4:	40 40       	sbci	r20, 0x00	; 0
     2e6:	48 50       	subi	r20, 0x08	; 8
     2e8:	60 50       	subi	r22, 0x00	; 0
     2ea:	48 00       	.word	0x0048	; ????
     2ec:	60 20       	and	r6, r0
     2ee:	20 20       	and	r2, r0
     2f0:	20 20       	and	r2, r0
     2f2:	70 00       	.word	0x0070	; ????
     2f4:	00 00       	nop
     2f6:	d0 a8       	ldd	r13, Z+48	; 0x30
     2f8:	a8 a8       	ldd	r10, Y+48	; 0x30
     2fa:	a8 00       	.word	0x00a8	; ????
     2fc:	00 00       	nop
     2fe:	b0 c8       	rjmp	.-3744   	; 0xfffff460 <__eeprom_end+0xff7ef442>
     300:	88 88       	ldd	r8, Y+16	; 0x10
     302:	88 00       	.word	0x0088	; ????
     304:	00 00       	nop
     306:	70 88       	ldd	r7, Z+16	; 0x10
     308:	88 88       	ldd	r8, Y+16	; 0x10
     30a:	70 00       	.word	0x0070	; ????
     30c:	00 00       	nop
     30e:	b0 c8       	rjmp	.-3744   	; 0xfffff470 <__eeprom_end+0xff7ef452>
     310:	c8 b0       	in	r12, 0x08	; 8
     312:	80 80       	ld	r8, Z
     314:	00 00       	nop
     316:	68 98       	cbi	0x0d, 0	; 13
     318:	98 68       	ori	r25, 0x88	; 136
     31a:	08 08       	sbc	r0, r8
     31c:	00 00       	nop
     31e:	b0 c8       	rjmp	.-3744   	; 0xfffff480 <__eeprom_end+0xff7ef462>
     320:	80 80       	ld	r8, Z
     322:	80 00       	.word	0x0080	; ????
     324:	00 00       	nop
     326:	78 80       	ld	r7, Y
     328:	70 08       	sbc	r7, r0
     32a:	f0 00       	.word	0x00f0	; ????
     32c:	40 40       	sbci	r20, 0x00	; 0
     32e:	f0 40       	sbci	r31, 0x00	; 0
     330:	40 48       	sbci	r20, 0x80	; 128
     332:	30 00       	.word	0x0030	; ????
     334:	00 00       	nop
     336:	90 90 90 90 	lds	r9, 0x9090	; 0x809090 <__bss_end+0x872f>
     33a:	68 00       	.word	0x0068	; ????
     33c:	00 00       	nop
     33e:	88 88       	ldd	r8, Y+16	; 0x10
     340:	88 50       	subi	r24, 0x08	; 8
     342:	20 00       	.word	0x0020	; ????
     344:	00 00       	nop
     346:	88 a8       	ldd	r8, Y+48	; 0x30
     348:	a8 a8       	ldd	r10, Y+48	; 0x30
     34a:	50 00       	.word	0x0050	; ????
     34c:	00 00       	nop
     34e:	88 50       	subi	r24, 0x08	; 8
     350:	20 50       	subi	r18, 0x00	; 0
     352:	88 00       	.word	0x0088	; ????
     354:	00 00       	nop
     356:	88 88       	ldd	r8, Y+16	; 0x10
     358:	98 68       	ori	r25, 0x88	; 136
     35a:	08 70       	andi	r16, 0x08	; 8
     35c:	00 00       	nop
     35e:	f8 10       	cpse	r15, r8
     360:	20 40       	sbci	r18, 0x00	; 0
     362:	f8 00       	.word	0x00f8	; ????
     364:	18 20       	and	r1, r8
     366:	20 40       	sbci	r18, 0x00	; 0
     368:	20 20       	and	r2, r0
     36a:	18 00       	.word	0x0018	; ????
     36c:	20 20       	and	r2, r0
     36e:	20 00       	.word	0x0020	; ????
     370:	20 20       	and	r2, r0
     372:	20 00       	.word	0x0020	; ????
     374:	c0 20       	and	r12, r0
     376:	20 10       	cpse	r2, r0
     378:	20 20       	and	r2, r0
     37a:	c0 00       	.word	0x00c0	; ????
     37c:	40 a8       	ldd	r4, Z+48	; 0x30
     37e:	10 00       	.word	0x0010	; ????
     380:	00 00       	nop
	...

00000384 <_ZL16_ASCII_Table_3x5>:
     384:	02 02 02 00 02 a2 a7 02 07 02 64 c1 e2 64 c1 62     ..........d..d.b
     394:	a2 60 80 e0 42 81 81 81 42 e2 e2 e7 e2 e2 00 00     .`..B...B.......
     3a4:	07 20 c0 00 01 02 04 40 e6 a2 a2 a2 e7 e7 21 e7     . .....@......!.
     3b4:	81 e7 a7 a4 e7 21 27 e7 81 e1 a1 e1 e7 a5 e7 a1     .....!'.........
     3c4:	e7 00 41 00 41 06 20 47 80 47 20 87 45 22 40 82     ..A.A. G.G .E"@.
     3d4:	e2 e5 a7 c5 e5 c3 a4 c4 a4 c3 c7 a4 a7 a4 c7 e3     ................
     3e4:	84 e5 85 87 a2 a0 e2 a2 a2 65 25 26 a5 45 85 87     .........e%&.E..
     3f4:	85 85 e5 c2 a5 a5 a5 a2 c2 a5 c5 87 83 c3 a4 c7     ................
     404:	a1 a6 e5 45 45 45 47 a5 a5 a5 a7 45 a5 a5 43 a1     ...EEEG....E..C.
     414:	a6 e6 24 44 84 e6 03 81 41 21 03 40 a0 00 00 07     ..$D....A!.@....
     424:	80 40 03 05 07 00 80 e7 a4 e7 00 20 e7 a6 e7 60     .@......... ...`
     434:	47 e4 45 c7 00 82 e0 a2 a2 40 04 45 46 85 00 40     G.E......@.EF..@
     444:	47 47 65 00 00 c7 a5 a7 00 e7 a5 e7 81 00 00 e3     GGe.............
     454:	82 86 00 40 e5 45 67 00 00 a5 a7 47 00 05 a7 41     ...@.Eg....G...A
     464:	a6 01 06 c4 46 61 44 43 41 43 44 40 e0 00 00 00     ....FaDCACD@....

00000474 <_ZZ28TEAD_showGameOverAndMessagesbE3__c_8>:
     474:	4b 45 59 53 00                                      KEYS.

00000479 <_ZZ28TEAD_showGameOverAndMessagesbE3__c_7>:
     479:	50 52 45 53 53 00                                   PRESS.

0000047f <_ZZ28TEAD_showGameOverAndMessagesbE3__c_6>:
     47f:	20 4f 56 45 52 00                                    OVER.

00000485 <_ZZ28TEAD_showGameOverAndMessagesbE3__c_5>:
     485:	20 47 41 4d 45 00                                    GAME.

0000048b <_ZZ28TEAD_showGameOverAndMessagesbE3__c_4>:
     48b:	53 54 41 52 54 00                                   START.

00000491 <_ZZ28TEAD_showGameOverAndMessagesbE3__c_3>:
     491:	20 47 41 4d 45 00                                    GAME.

00000497 <_ZZ28TEAD_showGameOverAndMessagesbE3__c_2>:
     497:	20 4f 56 45 52 00                                    OVER.

0000049d <_ZZ28TEAD_showGameOverAndMessagesbE3__c_1>:
     49d:	20 47 41 4d 45 00                                    GAME.

000004a3 <_ZZ28TEAD_showGameOverAndMessagesbE3__c_0>:
     4a3:	53 54 41 52 54 00                                   START.

000004a9 <_ZZ28TEAD_showGameOverAndMessagesbE3__c>:
     4a9:	20 47 41 4d 45 00                                    GAME.

000004af <_ZL18Wave_Tead_Aliens_2>:
     4af:	01 01 88 13 00 00 88 13 00 00 01 08 14 1b 00 00     ................
     4bf:	7f 7f 7f 7f 7f 7f 7f 7f 7f 7f 7f 7f 7f 7f 7f 7f     ................
     4cf:	7f 7f 7f 7f 7f 7f 7f 7f 7f 7f 7f 7f 7f 7f 7f 7f     ................
     4df:	7f 7f 7f 7f 7f 7f 7f 7f 7f 7f 7f 7f 7f 7f 7f 7f     ................
     4ef:	7f 7f 7f 7f 7f 7f 7f 7f 7f 7f 7f 7e 7f 7f 7f 7f     ...........~....
     4ff:	7e 7f 7f 7f 7f 7f 7f 7f 7e 7f 7f 81 7f 80 7f 80     ~.......~.......
     50f:	83 7e 81 81 82 86 7f 78 82 77 77 80 77 7c 76 77     .~.....x.ww.w|vw
     51f:	78 77 82 76 7e 76 7f 7c 7b 7c 8b 8c 81 77 78 79     xw.v~v.|{|...wxy
     52f:	7d 7d 7d 83 82 85 86 80 82 7d 7f 82 83 7c 7d 7f     }}}......}...|}.
     53f:	7f 85 7e 7d 7f 81 88 7a 7d 77 80 7d 7f 85 7d 87     ..~}...z}w.}..}.
     54f:	7d 7d 7d 79 82 83 82 80 79 7a 81 81 82 85 7b 7a     }}}y....yz....{z
     55f:	78 7a 81 7f 83 83 7a 78 7c 7e 7f 83 7e 7c 7d 7b     xz....zx|~..~|}{
     56f:	7f 82 7f 7e 81 7a 7f 7e 7f 81 7c 7f 7f 83 7f 82     ...~.z.~..|.....
     57f:	84 7f 81 7f 7e 7c 7f 7b 7c 7a 7d 82 7f 83 82 80     ....~|.{|z}.....
     58f:	81 7a 84 7b 81 7e 81 81 80 7c 7d 7e 80 83 82 79     .z.{.~...|}~...y
     59f:	7e 79 7e 7b 7b 7e 81 80 7e 7d 7c 7e 80 80 7b 7e     ~y~{{~..~}|~..{~
     5af:	7e 83 7d 7d 80 7d 84 80 7c 7d 80 86 80 84 77 7f     ~.}}.}..|}....w.
     5bf:	80 82 7e 87 7d 7d 83 7f 80 7f 7c 80 7e 76 87 7e     ..~.}}....|.~v.~
     5cf:	83 81 80 7c 88 7d 82 80 7a 87 80 7f 7e 79 7a 7f     ...|.}..z...~yz.
     5df:	86 7f 7a 7d 86 89 7f 80 79 83 81 85 7b 7c 7f 81     ..z}....y...{|..
     5ef:	78 84 7d 8c 7b 88 75 7b 80 7b 7e 84 86 83 82 7b     x.}.{.u{.{~....{
     5ff:	7d 84 83 7a 82 79 8c 7c 84 7f 80 77 88 76 89 79     }..z.y.|...w.v.y
     60f:	7d 74 80 82 7f 87 79 7d 7a 82 7f 75 90 76 83 84     }t....y}z..u.v..
     61f:	79 8a 7e 7f 7b 7b 89 72 84 73 82 8f 73 80 78 8c     y.~.{{.r.s..s.x.
     62f:	78 84 70 83 80 74 7a 84 8d 7a 7e 78 8b 76 86 72     x.p..tz..z~x.v.r
     63f:	84 87 77 84 8c 71 83 76 90 83 8a 75 80 7b 83 7a     ..w..q.v...u.{.z
     64f:	88 79 87 8d 73 88 6f 94 7b 87 80 6c 87 78 8e 77     .y..s.o.{..l.x.w
     65f:	79 77 8c 8c 78 72 94 87 88 82 6b 8d 8b 8b 7e 53     yw..xr....k...~S
     66f:	85 7a 7d 78 62 87 8a 84 69 7f a2 97 71 7f 7e a6     .z}xb...i...q.~.
     67f:	77 83 83 6f 82 61 70 88 5f 8a 6d 8f 93 76 96 7a     w..o.ap._.m..v.z
     68f:	98 8c 7c 9c 6f 8a 76 70 81 6a 67 74 73 7b 75 9f     ..|.o.vp.jgts{u.
     69f:	75 9c 8c 75 9e 74 a1 7d 82 6d 75 74 76 5f 5c 80     u..u.t.}.mutv_\.
     6af:	7f 8f 76 8e 8d 85 a0 80 97 7a 8b 85 6d 8a 63 6a     ..v......z..m.cj
     6bf:	54 63 8b 82 95 7a 77 9a 88 9d 83 91 85 86 7d 7f     Tc...zw.......}.
     6cf:	7b 6f 55 47 87 89 a6 80 6b 88 94 9c 8c 84 8c 85     {oUG....k.......
     6df:	86 6c 7b 7b 5e 46 38 9b 8e 97 7d 71 a2 9a 91 7e     .l{{^F8...}q...~
     6ef:	94 92 7d 86 5d 87 5a 49 38 88 ae 96 85 70 94 a0     ..}.].ZI8....p..
     6ff:	94 8a 82 99 8c 71 6f 6f 6c 3a 3b ac a5 9d 7c 6e     .....qool:;...|n
     70f:	9c a2 92 85 7f a2 7f 70 61 71 6c 31 32 c3 a2 98     .......paql12...
     71f:	84 5c ae a6 8e 87 82 a4 7d 66 62 6d 61 26 78 b9     .\......}fbma&x.
     72f:	a2 8d 6a 80 ac a3 85 7d 94 96 6c 68 61 61 37 2f     ..j....}..lhaa7/
     73f:	cb a7 98 81 59 a4 b1 8f 83 82 9f 7b 69 66 5f 52     ....Y......{if_R
     74f:	29 a2 b6 97 84 61 8a b7 9d 7d 80 99 89 70 63 59     )....a...}...pcY
     75f:	57 22 7e cc 99 84 5b 7b bf ae 81 71 95 97 75 69     W"~...[{...q..ui
     76f:	58 57 33 49 dc b1 93 6a 59 b2 b8 91 75 84 a0 79     XW3I...jY...u..y
     77f:	6e 5a 4a 42 3a d3 b7 97 70 4e a0 bd 9a 7e 73 9d     nZJB:...pN...~s.
     78f:	7e 73 5e 4d 4b 26 b7 bd 99 6f 47 8f c6 aa 81 69     ~s^MK&...oG....i
     79f:	9f 8f 73 63 49 5f 1e 7e d8 9c 87 42 6d ca b9 8f     ..scI_.~...Bm...
     7af:	5e 91 96 79 6c 51 51 26 50 e8 a1 92 52 4f bf c0     ^..ylQQ&P...RO..
     7bf:	9d 65 76 9f 7c 77 4b 51 32 40 f7 b7 a8 5e 38 a5     .ev.|wKQ2@...^8.
     7cf:	c2 ac 7a 61 a1 81 82 54 4d 49 2b c2 c0 ac 72 2d     ..za...TMI+...r-
     7df:	8b c5 ba 8c 59 90 8c 84 62 48 4d 28 a7 d0 a1 7a     ....Y...bHM(...z
     7ef:	39 7e ca c0 98 5d 83 93 83 78 42 4c 21 6b ed a6     9~...]...xBL!k..
     7ff:	91 4a 60 c0 c1 a2 65 72 93 80 7d 48 40 30 5f ee     .J`...er..}H@0_.
     80f:	b0 9d 57 49 b3 c1 ab 75 6f 90 7c 85 4e 3e 28 52     ..WI...uo.|.N>(R
     81f:	fc b3 a4 50 3b b0 ba b8 77 67 8f 79 8a 4c 43 24     ...P;...wg.y.LC$
     82f:	4e f6 ae a8 4d 3f a8 bf c5 7b 74 8a 7d 8e 51 45     N...M?...{t.}.QE
     83f:	20 5c f9 b9 ad 54 45 a5 b8 c9 81 7c 7e 7c 90 4e      \...TE....|~|.N
     84f:	4c 18 5e f8 b2 a3 47 4b a6 b6 cd 7d 7d 76 78 88     L.^...GK...}}vx.
     85f:	4f 45 15 69 da b3 9a 4b 54 a4 b5 ce 7b 84 70 74     OE.i...KT...{.pt
     86f:	87 4d 42 0f 7e c0 b6 91 33 5f 9a bd ca 79 8f 5c     .MB.~...3_...y.\
     87f:	81 78 4f 41 16 b4 a8 c9 7c 2c 6c 8d cd bc 82 87     .xOA....|,l.....
     88f:	56 8c 6f 58 3a 26 e5 a3 cc 76 36 7b 86 cd b0 8b     V.oX:&...v6{....
     89f:	7d 52 83 5e 5b 28 44 e6 a8 c9 6b 47 7e 89 c8 99     }R.^[(D...kG~...
     8af:	9b 6d 60 78 4b 5d 1b 65 bc ba ab 5c 59 74 a6 c1     .m`xK].e...\Yt..
     8bf:	9b a1 63 70 64 51 4b 26 ad 9b c8 81 4a 5b 6e ae     ..cpdQK&....J[n.
     8cf:	b9 a4 89 5b 73 5f 58 3b 3b da 9d d2 79 53 6a 74     ...[s_X;;...ySjt
     8df:	b1 a6 ae 81 64 67 51 55 2c 57 bf af bf 75 65 6c     ....dgQU,W...uel
     8ef:	94 b4 ad ae 79 71 59 4b 44 2a 84 a1 c1 97 61 5a     ....yqYKD*....aZ
     8ff:	61 99 aa ae 9a 74 6a 59 47 3c 40 c1 99 d8 8b 67     a....tjYG<@....g
     90f:	66 5f 9e a3 bd 92 7a 63 49 47 26 50 c3 bb d5 8d     f_....zcIG&P....
     91f:	77 61 7c 96 a7 bf 90 7d 56 41 39 25 7e a0 d7 a9     wa|....}VA9%~...
     92f:	80 69 4c 7b 87 ac b0 95 81 54 45 2a 36 aa 91 e7     .iL{.....TE*6...
     93f:	aa 89 73 4e 6f 82 b1 a3 a1 7b 53 41 16 2f a0 a7     ..sNo....{SA./..
     94f:	e2 bd a6 73 6d 67 6f a7 8f a6 87 62 47 1b 4a 63     ...smgo....bG.Jc
     95f:	b7 b5 bf c0 7b 83 5c 60 8a 80 9b 85 76 4f 3b 6c     ....{.\`....vO;l
     96f:	52 96 98 a8 b9 97 91 76 64 6e 67 7a 7a 83 7d 74     R......vdngzz.}t
     97f:	79 63 70 71 83 8e 94 95 8d 83 7e 7e 85 89 89 88     ycpq......~~....
     98f:	82 7b 72 6d 69 6d 71 79 82 89 8d 8b 8c 8c 8b 8a     .{rmimqy........
     99f:	88 85 82 7c 73 73 6c 6b 6c 6f 76 7d 82 87 8a 8d     ...|sslklov}....
     9af:	8f 90 90 8e 8a 85 7f 77 73 6d 6b 6b 6e 74 78 7e     .......wsmkkntx~
     9bf:	82 86 8a 8d 90 91 90 8e 89 83 7c 76 6f 6c 6b 6c     ..........|volkl
     9cf:	70 74 7a 7f 84 88 8a 8d 8f 90 90 8c 89 82 7b 76     ptz...........{v
     9df:	6f 6e 6c 6d 72 76 7b 80 84 87 89 8c 8e 8f 8e 8b     onlmrv{.........
     9ef:	87 81 7b 76 71 6f 6e 70 73 77 7b 7f 83 86 88 8a     ..{vqonpsw{.....
     9ff:	8c 8d 8c 8b 88 83 7d 79 74 72 71 71 74 77 7a 7e     ......}ytrqqtwz~
     a0f:	80 83 84 86 88 89 8a 88 88 85 83 7f 7b 78 75 74     ............{xut
     a1f:	75 76 79 7a 7c 7e 7f 83 85 88 88 8a 86 84 7e 7b     uvyz|~........~{
     a2f:	7b 78 73 7b 75 81 7b 80 7f 81 83 87 8b 88 84 82     {xs{u.{.........
     a3f:	7d 7c 79 79 79 79 7a 7b 7c 7e 7d 7f 7f 7f 7f 81     }|yyyyz{|~}.....
     a4f:	80 84 86 88 8a 94 96 83 93 68 7f 6d 6a 75 71 8c     .........h.mjuq.
     a5f:	6b 91 73 83 86 70 91 7a 89 6d 84 5f 73 66 76 7a     k.s..p.z.m._sfvz
     a6f:	8a 88 95 84 87 7a 73 7a 74 84 82 8f 8b 8e 88 8a     .....zszt.......
     a7f:	79 7e 78 7a 80 83 88 86 83 7e 75 78 6e 76 76 7a     y~xz.....~uxnvvz
     a8f:	7f 83 7f 7d 89 7c 6b 94 65 9e 5c a1 6e 7b 8c 7d     ...}.|k.e.\.n{.}
     a9f:	6a 95 6e 80 89 73 8f 7b 86 7f 83 7e 83 7d 80 84     j.n..s.{...~.}..
     aaf:	84 8b 86 80 7c 76 73 70 6d 74 81 8c 96 92 87 7b     ....|vspmt.....{
     abf:	6d 6a 6a 7a 84 8f 92 8b 7e 75 6d 70 78 87 8e 93     mjjz....~umpx...
     acf:	8d 81 74 6c 6d 76 84 8d 93 8c 83 77 70 70 78 81     ..tlmv.....wppx.
     adf:	8b 8d 8a 81 79 73 75 79 83 88 8a 85 82 79 79 7a     ....ysuy.....yyz
     aef:	7d 82 82 81 7d 7b 7b 7f 85 87 86 80 78 73 72 79     }...}{{.....xsry
     aff:	82 89 8b 8a 7f 7a 70 72 70 7f 89 90 84 85 7a 6e     .....zprp.....zn
     b0f:	7b 75 89 89 8f 85 83 73 75 74 7b 85 88 8b 84 80     {u.....sut{.....
     b1f:	76 79 78 80 83 85 84 80 7c 7a 7b 7d 82 82 82 7e     vyx.....|z{}...~
     b2f:	7c 7d 7f 84 85 84 7d 79 75 77 7d 85 89 88 82 7b     |}....}yuw}....{
     b3f:	76 74 7b 81 88 87 86 7c 77 73 78 7d 86 88 88 81     vt{....|wsx}....
     b4f:	7c 7a 7b 80 82 85 81 7f 7b 7d 7b 80 80 82 80 7e     |z{.....{}{....~
     b5f:	7d 7d 7f 80 80 80 7e 7f 80 81 80 7e 7b 7b 7a 80     }}....~....~{{z.
     b6f:	88 8b 85 81 77 72 74 78 84 89 8e 88 80 74 72 70     ....wrtx.....trp
     b7f:	79 81 8d 8d 8d 80 78 70 71 77 82 8a 8e 89 81 77     y.....xpqw.....w
     b8f:	72 71 78 81 88 8a 86 84 7d 7b 7a 77 78 7b 7c 81     rqx.....}{zwx{|.
     b9f:	80 7c 81 77 b5 71 a6 68 83 6a 85 72 93 7a 9d 7a     .|.w.q.h.j.r.z.z
     baf:	8e 70 7d 6b 7c 78 8e 88 94 7e 80 6b 72 6e 7c 7d     .p}k|x...~.krn|}
     bbf:	8d 89 8b 80 78 76 74 75 7a 7f 83 81 7c 70 8b 6a     ....xvtuz...|p.j
     bcf:	a9 68 9d 67 7e 66 7e 7b 94 7e 8f 74 7d 6e 77 85     .h.g~f~{.~.t}nw.
     bdf:	87 8f 8a 7d 7b 6b 72 72 7e 84 86 8b 7e 78 7c 78     ...}{krr~...~x|x
     bef:	7f 82 8b 8c 8b 7c 78 69 71 6e 7c 81 98 a1 bb 7c     .....|xiqn|....|
     bff:	91 51 6e 5e 7d 83 a0 95 97 7f 7e 6a 73 77 88 83     .Qn^}.....~jsw..
     c0f:	8f 80 7b 6d 64 7f 68 a6 7b a5 74 7c 61 6c 79 97     ..{md.h.{.t|aly.
     c1f:	92 a1 88 8c 6b 75 5d 6d 5d 91 9e 8f a4 69 6f 4b     ....ku]m]....ioK
     c2f:	67 6d 90 9a aa 9a 8d 7c 72 6a 67 77 6f 71 56 75     gm.....|rjgwoqVu
     c3f:	94 78 b1 70 87 5c 68 63 87 8b a9 9c a5 80 76 5c     .x.p.\hc......v\
     c4f:	66 54 6f 57 c7 8f b6 9f 80 77 5f 61 6a 84 8e b0     fToW.....w_aj...
     c5f:	a3 a3 7d 75 60 4d 51 46 bc 96 ce b5 95 88 58 59     ..}u`MQF......XY
     c6f:	55 72 87 b1 a6 bc 8d 83 5a 43 45 40 b6 88 dd ae     Ur......ZCE@....
     c7f:	a7 84 5d 55 4e 70 82 ac b6 c2 97 85 5a 3c 38 39     ..]UNp......Z<89
     c8f:	b2 8a e9 b4 ad 85 57 4c 45 67 80 b2 b8 c4 95 85     ......WLEg......
     c9f:	50 38 2e 37 af 92 ec bc b2 85 59 4a 44 6a 82 b7     P8.7......YJDj..
     caf:	b3 c7 93 83 4d 32 27 30 a1 a9 d7 d8 a3 90 4a 4a     ....M2'0......JJ
     cbf:	3c 71 82 b8 b2 c2 93 7d 4a 33 2b 45 82 b9 b3 e1     <q.....}J3+E....
     ccf:	95 95 46 4c 3d 72 87 bf b5 ba 87 6f 34 32 2e 89     ..FL=r.....o42..
     cdf:	7a e4 b6 d3 8d 80 49 46 53 76 99 b4 bb a2 7f 4f     z.....IFSv.....O
     cef:	32 1e 4b 66 c4 b2 e2 9f 99 4e 55 41 6d 7e ae ad     2.Kf.....NUAm~..
     cff:	ae 88 62 38 28 43 67 b1 b2 e3 a5 a4 5f 5b 47 6a     ..b8(Cg....._[Gj
     d0f:	73 a5 9f ae 83 68 40 33 52 62 b0 aa dd a7 9b 66     s....h@3Rb.....f
     d1f:	59 4f 66 7f 9b a4 9b 83 54 40 33 73 80 c4 c3 c8     YOf.....T@3s....
     d2f:	af 87 67 50 5b 68 89 98 a6 8a 77 48 34 44 5b a2     ..gP[h....wH4D[.
     d3f:	a8 d4 b0 ac 6d 63 4b 60 73 93 9d 9b 7e 5a 40 3a     ....mcK`s...~Z@:
     d4f:	6e 85 ba c9 c0 ad 83 68 56 5d 6b 85 91 97 85 61     n......hV]k....a
     d5f:	51 37 71 6d bf b3 c9 aa 94 6f 5d 5d 6b 7f 92 91     Q7qm.....o]]k...
     d6f:	8c 5f 52 36 70 6f c2 b0 cc a5 94 6e 64 5f 75 80     ._R6po.....nd_u.
     d7f:	8f 89 7e 5f 49 3a 7a 79 c4 bb c8 a9 86 6c 5e 62     ..~_I:zy.....l^b
     d8f:	76 8b 97 98 7c 59 37 39 72 8f c1 d8 c1 a6 82 5c     v...|Y79r......\
     d9f:	5a 5a 80 8d 9d 8a 71 4d 2d 4a 62 a6 b3 cf af 92     ZZ....qM-Jb.....
     daf:	73 57 60 6b 8a 95 9c 80 5d 3a 38 79 7c c9 c5 c6     sW`k....]:8y|...
     dbf:	a4 7c 60 57 65 80 96 9d 8e 6a 49 25 40 6a a5 c1     .|`We....jI%@j..
     dcf:	c4 b0 85 6e 4e 5f 71 95 9a 96 80 52 30 34 7b 96     ...nN_q....R04{.
     ddf:	cc cf bc 97 77 5c 5b 70 8c 99 97 7e 59 36 34 72     ....w\[p...~Y64r
     def:	97 ca cc ba 9a 71 5d 5e 70 8f 9b 9a 7f 5a 32 37     .....q]^p....Z27
     dff:	72 94 c8 cf b7 9a 72 5b 62 75 90 9b 98 79 4f 2d     r.....r[bu...yO-
     e0f:	36 7d 9b cc cd b0 96 6b 5b 67 7f 96 9c 91 70 44     6}.....k[g....pD
     e1f:	29 41 75 a5 c3 c6 a1 81 64 5b 6f 88 9d a0 84 63     )Au.....d[o....c
     e2f:	34 2a 58 86 b6 c9 b7 97 75 57 5c 7a 8f a2 9d 7b     4*X.....uW\z...{
     e3f:	52 29 32 80 a5 c9 d4 a8 89 6c 54 65 8d 97 a2 90     R)2......lTe....
     e4f:	5f 38 2b 57 8e b4 c3 ba 91 70 5d 5b 7a 97 9f 9b     _8+W.....p][z...
     e5f:	75 46 24 3b 77 a7 c0 c7 a0 80 6b 5d 73 98 9c 9c     uF$;w.....k]s...
     e6f:	8b 57 2b 38 7c 9f c4 d2 ab 85 72 5a 63 89 98 94     .W+8|.....rZc...
     e7f:	8f 61 34 35 6b 93 b3 c9 b3 8a 71 64 5d 7b 98 95     .a45k.....qd]{..
     e8f:	8a 72 3e 2d 63 91 a6 c1 be 8f 70 6d 67 6f 91 99     .r>-c.....pmgo..
     e9f:	86 6a 4f 33 60 91 a9 b1 b9 9a 73 69 6d 73 88 98     .jO3`.....sims..
     eaf:	88 68 48 42 60 94 ab b4 b2 9a 75 69 6d 79 84 8f     .hHB`.....uimy..
     ebf:	85 67 45 47 75 97 ab b4 b0 94 74 6b 71 77 84 8b     .gEGu.....tkqw..
     ecf:	80 62 44 49 7e a0 a6 b0 ad 8f 76 75 75 7a 84 88     .bDI~.....vuuz..
     edf:	78 5b 3f 4a 7f 9e a3 af ae 8c 72 73 79 7a 84 8a     x[?J......rsyz..
     eef:	76 55 42 59 84 9b a0 aa a5 86 71 73 7a 78 7e 83     vUBY......qszx~.
     eff:	6e 4f 4d 79 96 a1 a1 a5 97 7e 6f 76 7d 7d 7f 7e     nOMy.....~ov}}.~
     f0f:	68 45 4d 7f 9c 9e a5 af 99 7a 72 7b 7c 7c 82 7d     hEM......zr{||.}
     f1f:	5e 40 50 82 9c 99 a3 ac 93 76 73 7c 7a 7a 80 75     ^@P......vs|zz.u
     f2f:	57 4a 6a 8a 99 96 9f a3 8e 73 75 7c 78 77 7f 72     WJj......su|xw.r
     f3f:	53 4f 79 9c 9c 9b a6 9f 82 72 79 7f 7c 7b 7d 6a     SOy......ry.|{}j
     f4f:	49 4f 81 9c 99 9e ac 9d 7c 75 7f 7e 79 7f 7b 60     IO......|u.~y.{`
     f5f:	46 55 81 96 93 a0 ab 96 7c 77 80 7b 7a 81 7a 5f     FU......|w.{z.z_
     f6f:	4c 66 85 92 92 a1 a5 8f 79 7a 7e 79 7a 81 77 59     Lf......yz~yz.wY
     f7f:	52 6d 8a 8c 95 a6 a0 88 7c 7e 79 75 7f 84 72 55     Rm......|~yu..rU
     f8f:	55 75 85 8d 9f aa 9d 8a 83 7f 77 7a 83 82 6f 5b     Uu........wz..o[
     f9f:	58 73 89 91 9b a8 9d 8b 83 7d 78 79 80 7f 71 5c     Xs.......}xy..q\
     faf:	56 70 84 8b 9c a8 9f 8f 85 7b 76 7a 7f 7c 73 61     Vp.......{vz.|sa
     fbf:	55 6c 7b 85 90 a5 9e 93 8d 80 76 7e 7f 7c 78 69     Ul{.......v~.|xi
     fcf:	52 57 6f 77 87 a2 a5 99 94 84 76 7d 7c 77 7a 6e     RWow......v}|wzn
     fdf:	53 53 72 77 83 a1 a6 a0 a0 8f 7d 80 7f 77 7e 7a     SSrw......}..w~z
     fef:	60 53 66 6b 75 92 99 9a a4 96 81 83 81 79 82 80     `Sfku........y..
     fff:	6e 59 55 63 6c 7e 97 a1 a5 a6 95 87 83 7b 7e 80     nYUcl~.......{~.
    100f:	78 68 54 52 5d 65 7e 92 9c a7 a0 8f 89 7f 7c 80     xhTR]e~.......|.
    101f:	7d 76 66 52 57 5c 68 82 8e a0 ab 9d 95 87 7b 7e     }vfRW\h.......{~
    102f:	7e 80 7b 67 56 54 59 6a 7e 92 a1 a6 9f 98 86 83     ~.{gVTYj~.......
    103f:	81 7e 81 78 6d 53 53 57 63 78 8b 9f a6 a5 9b 8a     .~.xmSSWcx......
    104f:	83 7e 7b 82 7d 78 64 58 60 61 76 86 99 a8 aa a0     .~{.}xdX`av.....
    105f:	97 87 7d 7d 7b 7c 7b 6f 5d 56 5c 64 75 88 99 a3     ..}}{|{o]V\du...
    106f:	ac 9f 94 88 7c 7d 7e 7c 7a 6f 5c 56 5c 64 74 88     ....|}~|zo\V\dt.
    107f:	95 a1 a9 9c 96 8a 7e 80 7f 7d 7d 72 61 58 5e 5d     ......~..}}raX^]
    108f:	73 80 8f a2 a9 a1 a3 8c 86 82 7c 81 7c 70 69 57     s.........|.|piW
    109f:	52 55 68 6a 89 90 a0 a9 a0 98 91 81 85 80 7f 7c     RUhj...........|
    10af:	74 63 5b 59 57 6c 72 87 9a a0 a8 a1 97 90 82 82     tc[YWlr.........
    10bf:	80 80 7b 77 65 5c 55 57 68 6a 88 8f 9f a7 9d 99     ..{we\UWhj......
    10cf:	8e 82 82 7e 7c 7e 78 6d 66 56 64 5f 71 7e 85 9f     ...~|~xmfVd_q~..
    10df:	9d a7 9e 90 8d 81 7e 80 7c 7d 79 6d 66 58 64 66     ......~.|}ymfXdf
    10ef:	6e 85 85 a0 9f a2 9d 8d 8c 7f 7e 7f 7b 7f 79 6f     n.........~.{.yo
    10ff:	69 5a 66 63 70 81 82 9e 9a a4 9c 8d 8e 80 81 80     iZfcp...........
    110f:	7b 83 7a 77 6a 5f 5f 5c 6d 6d 86 90 9a a7 97 99     {.zwj__\mm......
    111f:	8c 83 85 7a 81 7c 7e 7c 6f 6d 5c 6b 5c 73 7b 82     ...z.|~|om\k\s{.
    112f:	9d 96 a5 98 90 90 7e 82 7c 7d 80 7f 7a 71 69 5b     ......~.|}..zqi[
    113f:	6c 5b 77 75 83 9b 95 a7 94 92 8f 81 86 7a 7f 7e     l[wu.........z.~
    114f:	7e 7b 74 68 60 5c 5a 70 6d 8d 91 9e a2 94 99 8a     ~{th`\Zpm.......
    115f:	88 84 7d 7e 7e 7e 7d 78 6e 68 5c 69 62 78 7c 88     ..}~~~}xnh\ibx|.
    116f:	9d 98 a8 94 90 8a 81 81 7e 7b 81 7e 7d 74 6e 64     ........~{.~}tnd
    117f:	5d 6a 5f 7e 79 8b 9d 97 a4 91 8f 8a 84 81 83 7d     ]j_~y..........}
    118f:	84 7f 7e 76 71 66 60 65 5c 7d 6f 91 95 9b a1 8d     ..~vqf`e\}o.....
    119f:	8f 85 83 87 82 80 85 81 7e 7c 72 6a 65 5b 75 6d     ........~|rje[um
    11af:	7e 8a 85 a2 90 96 8b 82 89 87 82 8a 7c 87 7f 78     ~...........|..x
    11bf:	78 71 69 66 5b 76 76 86 8e 8d 97 8f 8e 82 7f 84     xqif[vv.........
    11cf:	8b 86 8e 83 83 80 76 7b 71 6e 68 5f 70 66 85 7b     ......v{qnh_pf.{
    11df:	91 8e 95 8d 89 7b 8a 86 8e 8b 85 8b 7e 80 73 7a     .....{......~.sz
    11ef:	70 72 61 5e 7c 70 8d 86 88 93 8b 89 82 82 88 8e     pra^|p..........
    11ff:	8a 8f 81 87 7b 7b 77 78 76 72 6a 5e 81 6e 90 8f     ....{{wxvrj^.n..
    120f:	8c 92 8d 84 86 7c 87 8c 87 91 7f 87 7c 7f 7d 82     .....|......|.}.
    121f:	7a 77 60 5b 6a 5f 8a 76 96 89 90 83 86 76 8e 81     zw`[j_.v.....v..
    122f:	98 87 8e 7e 82 79 81 7a 84 77 6f 5a 51 71 7c 94     ...~.y.z.woZQq|.
    123f:	99 93 87 86 75 85 7d 8f 8f 8e 88 82 7b 82 7a 87     ....u.}.....{.z.
    124f:	82 81 7b 67 55 53 63 85 85 9d 8a 83 82 70 81 83     ..{gUSc......p..
    125f:	91 96 8c 86 80 77 82 7c 87 85 7d 76 62 51 56 67     .....w.|..}vbQVg
    126f:	84 8c 98 89 7d 7f 71 87 82 96 8f 8c 81 7e 7a 84     ....}.q......~z.
    127f:	80 88 86 7a 73 5d 54 58 6e 87 91 93 88 77 7f 72     ...zs]TXn....w.r
    128f:	89 87 94 90 85 82 7b 7f 82 85 86 87 79 74 5f 53     ......{.....yt_S
    129f:	55 76 87 99 92 8b 77 7d 76 89 8c 91 93 81 85 76     Uv....w}v......v
    12af:	81 82 85 89 84 7d 73 62 53 5a 7e 8b a0 92 8b 79     .....}sbSZ~....y
    12bf:	7a 7e 87 91 8f 92 80 80 7c 7c 89 83 8b 82 80 73     z~......||.....s
    12cf:	63 59 57 7d 80 98 8d 86 80 73 85 81 92 91 8b 89     cYW}.....s......
    12df:	79 81 79 88 87 88 88 7e 79 69 5f 52 62 75 89 93     y.y....~yi_Rbu..
    12ef:	88 89 74 7f 7d 8a 94 8a 90 7e 81 7c 81 8b 84 8e     ..t.}....~.|....
    12ff:	7d 7c 6c 60 56 5b 82 87 9f 8f 8a 7a 77 81 83 95     }|l`V[.....zw...
    130f:	8c 8f 83 7c 80 79 8b 83 8b 84 7c 76 64 5e 54 73     ...|.y....|vd^Ts
    131f:	77 93 90 88 86 75 82 7f 89 90 89 8e 7d 81 7c 7f     w....u......}.|.
    132f:	86 83 89 7b 7a 6c 62 58 60 7d 87 96 8f 8d 81 7f     ...{zlbX`}......
    133f:	81 80 8e 8a 8f 86 80 82 7c 86 81 85 7f 7b 74 67     ........|....{tg
    134f:	60 5b 74 78 91 8e 8c 8b 7f 85 7f 86 8b 87 8b 82     `[tx............
    135f:	82 7f 80 81 80 82 7d 79 70 67 5c 61 73 81 8d 8d     ......}ypg\as...
    136f:	90 89 87 84 81 88 87 8a 87 83 84 80 82 80 80 7f     ................
    137f:	7a 75 6c 63 62 71 78 83 86 8a 8d 8a 8a 85 84 86     zulcbqx.........
    138f:	85 85 84 84 84 84 83 82 81 7e 79 73 6a 65 67 6b     .........~ysjegk
    139f:	71 79 80 8b 90 8f 8c 8b 8a 8b 8a 88 88 86 85 83     qy..............
    13af:	80 7e 7b 76 71 6a 64 63 67 6d 77 80 8b 94 95 93     .~{vqjdcgmw.....
    13bf:	90 8e 8c 8a 87 86 84 81 80 7d 7b 79 76 72 6d 66     .........}{yvrmf
    13cf:	63 68 6d 76 7f 8a 94 96 95 92 8f 8c 8a 87 86 84     chmv............
    13df:	81 7f 7d 7b 78 75 72 6d 66 63 67 6c 75 7e 8b 95     ..}{xurmfcglu~..
    13ef:	98 97 94 90 8d 8a 87 85 83 80 7e 7c 7a 77 74 71     ..........~|zwtq
    13ff:	6c 66 63 67 6d 76 80 8c 97 9a 98 95 90 8d 8a 87     lfcgmv..........
    140f:	85 83 80 7e 7c 79 76 72 6f 69 64 62 67 6e 78 83     ...~|yvroidbgnx.
    141f:	8f 99 9b 99 95 90 8c 89 86 84 82 7f 7d 7a 78 74     ............}zxt
    142f:	71 6d 68 63 63 69 70 7a 86 92 9a 9c 99 95 8f 8c     qmhccipz........
    143f:	89 86 83 81 7e 7c 79 76 73 6f 6c 66 62 63 6a 73     ....~|yvsolfbcjs
    144f:	7e 89 95 9c 9c 98 94 8f 8b 88 85 83 80 7d 7b 78     ~............}{x
    145f:	75 71 6d 69 64 61 66 6e 78 82 8e 99 9d 9c 98 93     uqmidafnx.......
    146f:	8e 89 86 83 81 7e 7c 79 76 72 6e 6a 67 62 62 68     .....~|yvrnjgbbh
    147f:	72 7c 88 93 9c 9e 9b 96 91 8d 88 85 82 7f 7c 7a     r|............|z
    148f:	77 74 70 6c 68 63 61 66 6d 77 82 8f 99 9e 9d 99     wtplhcafmw......
    149f:	94 90 8a 86 83 80 7d 7b 78 75 71 6e 69 64 61 65     ......}{xuqnidae
    14af:	6b 74 7f 8b 97 9d 9e 9a 96 90 8c 87 83 80 7d 7b     kt............}{
    14bf:	78 75 72 6e 6b 66 62 63 69 71 7c 88 94 9c 9f 9c     xurnkfbciq|.....
    14cf:	97 92 8d 88 84 7f 7e 7b 79 76 72 6f 6c 68 63 63     ......~{yvrolhcc
    14df:	68 71 7b 87 93 9c 9f 9d 98 92 8d 87 83 7f 7d 7b     hq{...........}{
    14ef:	79 76 73 6f 6b 67 65 65 69 71 7b 86 91 9b 9e 9d     yvsokgeeiq{.....
    14ff:	99 93 8e 88 83 7f 7d 7a 78 75 72 6f 6b 68 65 67     ......}zxurokheg
    150f:	6c 73 7c 87 91 9a 9d 9c 98 93 8d 86 82 7d 7a 79     ls|..........}zy
    151f:	78 74 6f 72 6d 6c 6b 6f 74 7a 83 8c 93 97 97 94     xtormlkotz......
    152f:	8f 8a 86 81 7c 7a 79 78 77 77 76 77 76 76 76 77     ....|zyxwwvwvvvw
    153f:	78 79 7c 7f 84 87 87 88 87 87 85 86 85 84 82 81     xy|.............
    154f:	7b 7c 7b 7e 7e 7d 7b 7b 7a 7c 7a 7b 7b 79 77 7d     {|{~~}{{z|z{{yw}
    155f:	7e 86 82 82 88 86 83 86 7c 86 7c 7e 8a 8f 80 80     ~.......|.|~....
    156f:	76 78 7d 7b 7d 7f 79 7e 7c 7b 7d 82 84 82 83 82     vx}{}.y~|{}.....
    157f:	7e 80 7d 7d 81 7b 84 7f 7a 7a 84 7d 82 83 83 7f     ~.}}.{..zz.}....
    158f:	79 86 87 8a 7d 7c 7d 7c 7d 7f 78 7d 84 81 78 76     y...}|}|}.x}..xv
    159f:	7e 7e 7d 81 7c 81 81 84 83 7e 81 7b 83 7e 83 7a     ~~}.|....~.{.~.z
    15af:	77 78 79 78 7e 7a 79 7e 7d 81 7d 7e 7b 7e 7f 7b     wxyx~zy~}.}~{~.{
    15bf:	80 7c 7f 7c 81 76 7a 78 94 85 7a 7d 82 82 85 88     .|.|.vzx..z}....
    15cf:	7e 78 81 81 7e 78 7d 8b 7e 86 89 8a 7b 79 75 86     ~x..~x}.~...{yu.
    15df:	81 83 84 7d 82 6c 83 7f 84 80 84 8e 85 82 8a 82     ...}.l..........
    15ef:	7f 72 80 6e 7c 8f 91 83 7d 89 6e 7a 77 8f 81 7c     .r.n|...}.nzw..|
    15ff:	71 7a 83 7e 80 77 7a 83 7c 83 7c 86 8c 7b 83 7a     qz.~.wz.|.|..{.z
    160f:	85 7f 7c 80 63 79 7f 77 7e 7d 89 6d 7e 83 6e 74     ..|.cy.w~}.m~.nt
    161f:	76 71 8f 7e 7e 84 83 93 8b 87 6b 85 84 83 6d 80     vq.~~.....k...m.
    162f:	86 88 7d 80 72 7e 7e 7c 7a 7b 86 79 71 6f 7c 80     ..}.r~~|z{.yqo|.
    163f:	97 97 8b 86 80 70 6d 68 84 72 9f 90 8e 76 80 7e     .....pmh.r...v.~
    164f:	7f 7f 7a 85 74 7d 7a 83 7e 7d 7c 83 7c 8a 89 88     ..z.t}z.~}|.|...
    165f:	7b 81 71 8b 8d 7e 86 7a 7d 7d 87 7a 76 8d 76 7c     {.q..~.z}}.zv.v|
    166f:	7c 71 85 77 75 82 82 8c 9d 90 6e 7b 64 98 74 8f     |q.wu.....n{d.t.
    167f:	78 79 7e 82 7e 6e 7f 7b 78 8d 71 7e 8a 7e 8e 7e     xy~.~n.{x.q~.~.~
    168f:	7f 71 7f 74 85 8c 76 7d 7f 80 84 7d 7e 78 79 7f     .q.t..v}...}~xy.
    169f:	7c 81 7f 82 82 7b 7b 84 80 82 7b 78 85 75 82 79     |....{{...{x.u.y
    16af:	85 7e 87 7b 85 7a 81 80 80 81 80 81 78 82 81 7b     .~.{.z......x..{
    16bf:	81 7c 7f 87 81 7d 7e 80 7d 82 7a 80 81 83 82 82     .|...}~.}.z.....
    16cf:	82 7e 82 7e 7e 7d 7e 80 7d 80 7c 7c 80 7f 7e 82     .~.~~}~.}.||..~.
    16df:	7f 83 80 81 7b 83 7d 80 7f 7c 7f 83 81 7e 7e 7f     ....{.}..|...~~.
    16ef:	7f 83 7b 7f 7f 7f 80 7f 7f 7e 7f 80 80 7f 83 7f     ..{......~......
    16ff:	81 7c 7f 7f 7d 7f 7f 80 7f 7e 7f 7f 7f 80 80 7f     .|..}....~......
    170f:	7f 7f 7f 7f 7f 7f 7f 7f 7f 7f 7f 7f 7f 7f 7f 7f     ................
    171f:	7f 7f 7f 7f 7f 7f 7f 7f 7f 7f 7f 7f 7f 7f 7f 7f     ................
    172f:	7f 7f 7f 7f 7f 7f 7f 7f 7f 7f 7f 7f 7f 7f 7f 7f     ................
    173f:	7f 7f 7f 7f 7f 7f 7f 7f 7f 7f 7f 7f 7f 7f 7f 7f     ................
    174f:	7f 7f 7f 7f 7f 7f 7f 7f 7f 7f 7f 7f 7f 7f 7f 7f     ................
    175f:	7f 7f 7f 7f 7f 7f 7f 7f 7f 7f 7f 7f 7f 7f 7f 7f     ................
    176f:	7f 7f 7f 7f 7f 7f 7f 7f 7f 7f 7f 7f 7f 7f 7f 7f     ................
    177f:	7f 7f 7f 7f 7f 7f 7f 7f 7f 7f 7f 7f 7f 7f 7f 7f     ................
    178f:	7f 7f 7f 7f 7f 7f 7f 7f 7f 7f 7f 7f 7f 7f 7f 7f     ................
    179f:	7f 7f 7f 7f 7f 7f 7f 7f 7f 7f 7f 7f 7f 7f 7f 7f     ................
    17af:	7f 7f 7f 7f 7f 7f 7f 7f 7f 7f 7f 7f 7f 7f 7f 7f     ................
    17bf:	7f 7f 7f 7f 7f 7f 7f 7f 7f 7f 7f 7f 7f 7f 7f 7f     ................
    17cf:	7f 80 7e 7f 7f 7f 7e 7f 7f 7e 7f 7e 7f 7f 7e 80     ..~...~..~.~..~.
    17df:	7f 7f 7f 7e 80 7e 80 7f 80 7e 80 7f 7e 7e 80 7f     ...~.~...~..~~..
    17ef:	80 7f 7f 80 7f 81 80 7f 7e 7b 93 6f 7c 8f 6c 83     ........~{.o|.l.
    17ff:	8d 71 85 79 77 86 7a 8c 73 89 7c 8f 75 82 7a 86     .q.yw.z.s.|.u.z.
    180f:	7e 83 8c 82 7b 75 73 7c 7b 85 7f 86 79 7c 7c 7a     ~...{us|{...y||z
    181f:	7e 7c 7d 82 7d 81 7e 7c 7f 7f 7f 81 81 81 7f 7e     ~|}.}.~|.......~
    182f:	7f 82 7a 7d 80 7c 7e 82 7d 85 85 84 84 84 81 81     ..z}.|~.}.......
    183f:	87 81 84 7f 7c 7a 7a 72 70 6f 71 79 80 87 95 97     ....|zzrpoqy....
    184f:	94 90 8b 80 79 7c 7e 81 85 81 7b 70 65 5d 5f 67     ....y|~...{pe]_g
    185f:	85 8e a2 a9 a0 96 82 6f 6b 6b 75 87 93 9c 99 8a     .......okku.....
    186f:	77 63 4f 4f 52 5f 86 90 b2 a7 a5 8e 77 68 66 67     wcOOR_......whfg
    187f:	79 8d 98 a3 9b 8e 78 6a 4f 57 4f 62 6d 96 9a b5     y.....xjOWObm...
    188f:	a6 9b 84 76 68 6a 72 82 93 9b a2 94 89 77 67 5c     ...vhjr......wg\
    189f:	5a 59 5c 6d 8d 8a b0 97 99 88 7a 6c 73 6f 84 90     ZY\m......zlso..
    18af:	95 9c 98 87 7d 6d 66 65 68 62 66 63 8a 8e 9e a3     ....}mfehbfc....
    18bf:	9c 8c 83 70 72 72 80 91 98 96 99 85 79 72 67 6a     ...prr......yrgj
    18cf:	67 64 5f 64 84 94 97 a9 94 8a 7d 6c 74 7d 84 99     gd_d......}lt}..
    18df:	99 98 8a 87 75 78 70 76 6d 6a 56 60 7d 7f 9d a8     ....uxpvmjV`}...
    18ef:	98 8f 7b 6a 75 73 87 94 94 9a 89 7e 7d 75 79 7d     ..{jus.....~}uy}
    18ff:	76 70 5e 55 57 71 94 9b aa 94 84 73 6d 76 84 8d     vp^UWq.....smv..
    190f:	97 91 8e 80 7d 79 7e 7c 80 72 69 53 57 71 74 a7     ....}y~|.riSWqt.
    191f:	95 9e 85 77 70 75 7b 90 93 93 89 82 7b 79 81 82     ...wpu{.....{y..
    192f:	7e 82 6e 62 4e 4d 7d 81 a7 a3 94 82 7a 6f 83 87     ~.nbNM}.....zo..
    193f:	94 93 8e 85 7d 80 7b 8b 84 81 80 6d 5a 54 4c 7e     ....}.{....mZTL~
    194f:	92 9c a4 88 79 79 73 89 90 94 92 85 7d 78 80 7f     ....yys.....}x..
    195f:	8b 8c 82 7c 6e 55 53 52 7f 97 97 a0 82 78 79 7d     ...|nUSR.....xy}
    196f:	8c 97 8f 92 7d 7d 7a 7f 82 8b 89 82 79 6d 5a 53     ....}}z.....ymZS
    197f:	54 7b 8d 98 9a 84 7d 7e 80 8f 9a 8e 91 7d 7e 7b     T{....}~.....}~{
    198f:	82 80 8c 84 80 77 6e 5d 56 57 7b 92 95 9b 87 7c     .....wn]VW{....|
    199f:	7f 83 8c 92 8e 89 82 7a 7d 80 81 86 86 7d 7d 72     .......z}....}}r
    19af:	60 5b 52 81 87 97 96 86 80 81 80 8f 8e 91 8b 80     `[R.............
    19bf:	7c 7e 7e 82 88 83 7d 7e 6f 63 5a 57 75 78 96 8f     |~~...}~ocZWux..
    19cf:	87 83 7e 82 8d 8f 90 8a 83 7f 80 81 84 84 82 7d     ..~............}
    19df:	7c 70 6a 5e 5e 63 76 90 8a 90 81 82 80 8e 8b 94     |pj^^cv.........
    19ef:	86 8a 7b 80 7f 83 86 83 81 7b 76 6e 67 57 60 7c     ..{......{vngW`|
    19ff:	86 95 91 87 82 82 87 8f 8f 8a 86 82 7c 7f 81 85     ............|...
    1a0f:	84 81 7d 7c 73 6a 60 5e 72 74 93 85 8f 81 88 86     ..}|sj`^rt......
    1a1f:	8e 8b 8f 86 84 80 7e 7f 82 83 84 7e 7b 78 71 66     ......~....~{xqf
    1a2f:	5d 5f 7e 85 92 90 86 84 83 87 8e 8d 8c 89 7e 7f     ]_~...........~.
    1a3f:	7c 84 81 82 7f 7d 7a 74 6f 62 63 62 74 8d 87 90     |....}ztobcbt...
    1a4f:	85 85 87 89 8b 92 87 88 7f 80 7e 82 81 81 81 7b     ..........~....{
    1a5f:	7d 72 6d 62 62 70 74 90 84 8f 83 85 87 8a 8a 8f     }rmbbpt.........
    1a6f:	88 86 82 7d 80 81 84 80 84 7c 7a 74 6c 62 64 7c     ...}.....|ztlbd|
    1a7f:	79 91 85 89 84 84 86 89 8b 8c 89 83 80 7d 80 80     y............}..
    1a8f:	82 80 81 7a 7b 72 6a 62 5f 7d 7d 91 8b 86 84 83     ...z{rjb_}}.....
    1a9f:	86 8a 8e 8a 8a 83 80 80 81 82 83 80 81 7d 78 75     .............}xu
    1aaf:	68 65 62 79 76 90 88 87 85 83 8a 8b 8b 8c 88 84     hebyv...........
    1abf:	82 7f 81 81 81 81 81 7e 79 73 6c 68 65 6f 74 8b     .......~yslheot.
    1acf:	84 89 84 85 87 87 8c 8d 8b 85 83 7f 7d 7d 7e 7f     ............}}~.
    1adf:	81 7f 7d 77 71 68 65 64 79 83 87 8e 83 87 83 86     ..}wqhedy.......
    1aef:	89 8c 8d 86 83 7f 7d 7f 7e 81 7f 81 7f 7a 72 6d     ......}.~....zrm
    1aff:	64 67 79 7e 8b 88 87 83 84 86 88 8a 8c 87 85 81     dgy~............
    1b0f:	7e 7d 80 7f 80 84 7e 7d 77 71 6a 66 67 76 82 83     ~}....~}wqjfgv..
    1b1f:	8c 85 87 85 85 89 8c 8a 89 82 7e 7e 7d 7e 83 80     ..........~~}~..
    1b2f:	81 82 7a 76 6e 65 66 6e 74 8a 84 8c 85 85 87 85     ..zvnefnt.......
    1b3f:	88 8b 8a 86 84 7d 7e 7e 7e 80 81 83 80 7c 74 6d     .....}~~~....|tm
    1b4f:	66 62 7c 79 8d 8a 85 88 81 87 87 8a 8a 88 84 82     fb|y............
    1b5f:	7d 7f 7f 80 82 81 82 7e 7b 75 6b 66 63 78 7d 8a     }......~{ukfcx}.
    1b6f:	8d 83 89 80 88 85 8a 8b 89 84 81 7d 7e 7f 80 81     ...........}~...
    1b7f:	81 81 7d 7c 76 6b 69 61 79 7c 89 8b 84 8a 7f 86     ..}|vkiay|......
    1b8f:	82 8c 88 89 84 80 7e 7e 7f 7e 82 80 84 7d 7d 73     ......~~.~...}}s
    1b9f:	6e 68 65 7a 76 8e 88 8b 85 84 86 86 8a 89 8a 84     nhezv...........
    1baf:	84 7d 81 7c 7f 80 7f 83 7d 7e 75 74 6b 68 6c 71     .}.|....}~utkhlq
    1bbf:	86 83 90 84 8a 84 87 86 8a 89 88 83 7e 7e 7c 7e     ............~~|~
    1bcf:	7e 7f 81 80 7d 77 75 6c 69 68 77 82 87 90 85 8a     ~...}wulihw.....
    1bdf:	81 88 85 8c 89 88 81 80 7b 7d 7d 7d 80 7f 80 7c     ........{}}}...|
    1bef:	7a 74 6e 6a 68 7a 77 90 85 8f 83 85 86 85 89 89     ztnjhzw.........
    1bff:	88 86 81 7e 7f 7b 7e 7c 81 7f 7f 7d 77 76 6a 6a     ...~.{~|...}wvjj
    1c0f:	67 79 85 88 91 86 89 80 86 85 8b 87 88 80 7e 79     gy............~y
    1c1f:	7c 7c 7f 81 81 80 7b 7a 73 71 6c 6d 79 79 8e 83     ||....{zsqlmyy..
    1c2f:	8f 80 89 82 88 88 8b 87 86 7d 7e 7a 7d 7f 80 82     .........}~z}...
    1c3f:	7f 7e 7b 75 75 6a 6c 6a 81 81 8c 8b 85 84 83 86     .~{uujlj........
    1c4f:	88 8a 8a 84 81 7c 7c 7e 80 80 82 82 7f 7c 79 74     .....||~.....|yt
    1c5f:	72 6b 6c 6e 79 89 88 8d 84 86 80 86 88 8b 89 84     rklny...........
    1c6f:	7f 7a 7c 7e 81 82 83 7e 81 77 7b 70 6d 6b 6c 83     .z|~...~.w{pmkl.
    1c7f:	7c 91 83 8b 7f 89 82 8a 87 8b 83 87 79 80 7b 80     |...........y.{.
    1c8f:	81 7f 84 7e 80 79 77 74 6d 6b 6c 7e 84 8e 85 87     ...~.ywtmkl~....
    1c9f:	7c 85 81 8a 88 8b 84 82 7d 7c 7f 7e 82 81 83 7f     |.......}|.~....
    1caf:	7e 79 78 73 6f 6b 6f 7c 85 88 87 83 7e 82 81 88     ~yxsoko|....~...
    1cbf:	89 88 84 7e 7e 7b 81 80 82 82 80 82 7c 7c 76 71     ...~~{......||vq
    1ccf:	6e 69 7e 78 8f 83 89 81 7f 85 81 8a 87 89 84 7d     ni~x...........}
    1cdf:	7e 7d 81 81 82 83 7f 80 7a 7b 76 73 6c 6b 80 7d     ~}......z{vslk.}
    1cef:	8e 83 85 81 7e 85 81 8a 86 88 83 7f 7e 7e 82 81     ....~.......~~..
    1cff:	82 80 7f 7f 7b 7a 74 72 6a 74 7a 83 87 88 82 83     ....{ztrjtz.....
    1d0f:	80 82 86 86 88 87 83 7f 7f 7d 80 81 80 80 80 7d     .........}.....}
    1d1f:	7d 7c 78 74 70 74 77 7b 7f 84 85 87 87 85 83 83     }|xtptw{........
    1d2f:	84 83 83 81 81 80 7f 7e 7f 7f 80 80 7f 7d 7b 76     .......~.....}{v
    1d3f:	73 74 73 74 79 7f 84 87 8a 89 89 87 87 85 84 83     ststy...........
    1d4f:	83 81 7f 7e 7d 7d 7c 7b 79 78 74 70 72 73 76 7b     ...~}}|{yxtprsv{
    1d5f:	82 88 8a 8c 8c 89 87 87 85 83 82 81 7f 7d 7c 7c     .............}||
    1d6f:	7c 7b 7b 79 78 75 72 74 75 79 7e 84 88 8a 8b 8a     |{{yxurtuy~.....
    1d7f:	87 86 85 83 82 82 80 7f 7e 7d 7c 7c 7b 7a 79 77     ........~}||{zyw
    1d8f:	74 72 75 76 79 80 85 89 8b 8b 88 87 85 85 83 82     truvy...........
    1d9f:	82 80 7f 7e 7d 7d 7d 7c 7b 79 76 72 72 74 76 7a     ...~}}}|{yvrrtvz
    1daf:	81 85 89 8a 8b 88 86 86 85 83 82 82 7f 7e 7d 7d     .............~}}
    1dbf:	7c 7c 7b 79 77 74 72 74 75 79 7e 84 88 8b 8c 8a     ||{ywtrtuy~.....
    1dcf:	87 86 86 83 82 82 81 7f 7e 7d 7c 7b 7b 79 76 73     ........~}|{{yvs
    1ddf:	71 73 74 78 7f 84 88 8b 8c 8a 88 87 86 84 82 82     qstx............
    1def:	80 7e 7d 7d 7b 7b 79 78 75 72 71 73 75 79 81 85     .~}}{{yxurqsuy..
    1dff:	8a 8c 8d 8a 89 88 86 83 82 81 7f 7e 7d 7c 7a 7a     ...........~}|zz
    1e0f:	78 76 73 70 72 74 77 7d 84 88 8c 8e 8c 8a 89 87     xvsprtw}........
    1e1f:	84 83 82 80 7e 7d 7c 7a 79 78 76 73 71 71 73 76     ....~}|zyxvsqqsv
    1e2f:	7c 83 87 8b 8e 8d 8b 89 88 85 83 82 80 7e 7d 7c     |............~}|
    1e3f:	7a 79 77 75 72 70 71 73 76 7c 83 88 8c 8e 8d 8b     zywurpqsv|......
    1e4f:	89 88 85 83 82 80 7e 7d 7b 79 78 76 74 71 70 72     ......~}{yxvtqpr
    1e5f:	74 79 7f 85 8a 8d 8f 8c 8b 8a 87 84 83 81 7e 7d     ty............~}
    1e6f:	7c 79 77 76 74 71 70 72 74 77 7d 84 88 8c 8f 8d     |ywvtqprtw}.....
    1e7f:	8b 8a 88 85 83 81 7f 7d 7c 7a 77 76 75 73 71 73     .......}|zwvusqs
    1e8f:	74 77 7c 82 87 8b 8e 8e 8c 8a 88 85 83 81 7e 7d     tw|...........~}
    1e9f:	7c 79 76 75 73 70 70 73 74 79 80 85 8a 8e 8f 8d     |yvusppsty......
    1eaf:	8c 8a 86 83 82 7f 7c 7a 78 75 73 72 71 73 78 7a     ......|zxusrqsxz
    1ebf:	7d 82 85 87 8a 8b 89 88 87 84 83 82 81 80 7e 7b     }.............~{
    1ecf:	79 78 75 72 70 73 78 7d 81 85 87 8a 8b 8b 8b 89     yxurpsx}........
    1edf:	85 83 80 7d 7e 7a 73 75 74 71 6f 72 80 86 86 88     ...}~zsutqor....
    1eef:	85 84 89 89 87 87 82 7d 80 7f 7d 7e 79 75 76 75     .......}..}~yuvu
    1eff:	74 76 7a 81 83 84 86 83 86 89 86 87 85 80 81 80     tvz.............
    1f0f:	7d 7e 7b 76 77 76 75 75 77 80 83 83 86 84 85 89     }~{vwvuuw.......
    1f1f:	87 87 86 81 80 80 7d 7c 79 77 77 77 75 75 7c 7f     ......}|ywwwuu|.
    1f2f:	82 85 84 84 88 88 87 87 83 80 80 7d 7d 7b 77 78     ...........}}{wx
    1f3f:	78 77 77 7a 7e 80 82 83 82 84 85 86 85 84 81 80     xwwz~...........
    1f4f:	7f 7c 7c 7b 79 7a 7a 79 7c 7e 7e 81 81 81 84 83     .||{yzzy|~~.....
    1f5f:	83 83 82 82 81 7f 7e 7d 7c 7c 7b 7b 7c 7d 7e 7f     ......~}||{{|}~.
    1f6f:	7e 7f 81 81 81 82 81 81 81 7f 7f 7f 7e 7e 7d 7d     ~...........~~}}
    1f7f:	7e 7d 7e 7e 7e 7f 7f 80 80 80 80 80 80 7f 7f 7f     ~}~~~...........
    1f8f:	7f 7f 7e 7f 7f 7f 7f 7f 7f 7f 7f 7f 80 7f 7f 7f     ..~.............
    1f9f:	7f 7f 7f 7f 7e 7f 7f 7f 7f 7f 7f 7f 7f 7f 7f 7f     ....~...........
    1faf:	7f 7f 7f 7f 7f 7f 7f 7f 7f 7f 7f 7f 7f 7f 7f 7f     ................
    1fbf:	7f 7f 7f 7f 7f 7f 7f 7f 7f 7f 7f 7f 7f 7f 7f 7f     ................
    1fcf:	7f 7f 7f 7f 7f                                      .....

00001fd4 <_ZL14Wave_Resetting>:
    1fd4:	01 01 88 13 00 00 88 13 00 00 01 08 be 11 00 00     ................
    1fe4:	7f 7f 7f 7f 7f 7f 7f 7f 7f 7f 7f 7f 7f 7f 7f 7f     ................
    1ff4:	7f 7f 7f 7f 7f 7f 7f 7f 7f 7f 7f 7f 7f 7f 7f 7f     ................
    2004:	7f 7f 7f 7f 7f 7f 7f 7f 7f 7f 7f 7f 7f 7f 7f 7f     ................
    2014:	7f 7f 7f 7f 7f 7f 7f 7f 7f 7f 7f 7f 7f 7f 7f 7f     ................
    2024:	7f 7f 7f 7f 7f 7f 7f 7f 7f 7f 7f 7f 7f 7f 7f 7f     ................
    2034:	7f 7f 7f 7f 7f 7f 7f 7f 7f 7f 7f 7f 7f 7f 7f 7f     ................
    2044:	7f 7f 7f 7f 7f 7f 7f 7f 7f 7f 7f 7f 7f 7f 7f 7f     ................
    2054:	7f 7f 7f 7f 7f 7f 7f 7f 7f 7f 7f 7f 7f 7f 7f 7f     ................
    2064:	7f 7f 7f 7f 7f 7f 7f 7f 7f 7f 7f 7f 7f 7f 7f 7f     ................
    2074:	7f 7f 7f 7f 7f 7f 7f 7f 7f 7f 7f 7f 7f 7f 7f 7f     ................
    2084:	7f 7f 7f 7f 7f 7f 7f 7f 7f 7f 7f 7f 7f 7f 7f 7f     ................
    2094:	7f 7f 7f 7f 7f 7f 7f 7f 7f 7f 7f 7f 7f 7f 7f 7f     ................
    20a4:	7f 7f 7f 7f 7f 7f 7f 7f 7f 7f 7f 7f 7f 7f 7f 7f     ................
    20b4:	7f 7f 7f 7f 7f 7f 7f 7f 7f 7f 7f 7f 7f 7f 7f 7f     ................
    20c4:	7f 7f 7f 7f 7f 7f 7f 7f 7f 7f 7f 7f 7f 7f 7f 7f     ................
    20d4:	7f 7f 7f 7f 7f 7f 7f 7f 7f 7f 7f 7f 7f 7f 7f 7f     ................
    20e4:	7f 7f 7f 7f 7f 7f 7f 7f 7f 7f 7f 7f 7f 7f 7f 7f     ................
    20f4:	7f 7f 7f 7f 7f 7f 7f 7f 7f 7f 7f 7f 7f 7f 7f 7f     ................
    2104:	7f 7f 7f 7f 7f 7f 7f 7f 7f 7f 7f 7f 7f 7f 7f 7f     ................
    2114:	7f 7f 7f 7f 7f 7f 7f 7f 7f 7f 7f 7f 7f 7f 7f 7f     ................
    2124:	7f 7f 7f 7f 7f 7f 7f 7f 7f 7f 7f 7f 7f 7f 7f 7f     ................
    2134:	7f 7f 7f 7f 7f 7f 7f 7f 7f 7f 7f 7f 7f 7f 7f 7f     ................
    2144:	7f 7f 7f 7f 7f 7f 7f 7f 7f 7f 7f 7f 7f 7f 7f 7f     ................
    2154:	7f 7f 7f 7f 7f 7f 7f 7f 7f 7f 7f 7f 7f 7f 7f 7f     ................
    2164:	7f 7f 7f 7f 7f 7f 7f 7f 7f 7f 7f 7f 7f 7f 7f 7f     ................
    2174:	7f 7f 7f 7f 7f 7f 7f 7f 7f 7f 7f 7f 7f 7f 7f 7f     ................
    2184:	7f 7f 7f 7f 7f 7f 7f 7f 7f 7f 7f 7f 7f 7f 7f 7f     ................
    2194:	7f 7f 7f 7f 7f 7f 7f 7f 7f 7f 7f 7f 7f 7f 7f 7f     ................
    21a4:	7f 7f 7f 7f 7f 7f 7f 7f 7f 7f 7f 7f 7f 7f 7f 7f     ................
    21b4:	7f 7f 7f 7f 7f 7f 7f 7f 7f 7f 7f 7f 7f 7f 7f 7f     ................
    21c4:	7f 7f 7f 7f 7f 7f 7f 7f 7f 7f 7f 7f 7f 7f 7f 7f     ................
    21d4:	7f 7f 7f 7f 7f 7f 7f 7f 7f 7f 7f 7f 7f 7f 7f 7f     ................
    21e4:	7f 7f 7f 7e 7f 7f 7f 7f 7f 7f 7f 7f 7f 80 80 7f     ...~............
    21f4:	7f 7f 7e 7f 7f 7f 7f 7e 7e 7f 7f 80 81 80 7f 7f     ..~....~~.......
    2204:	7e 7d 7e 7f 7f 7e 7c 7c 7e 80 83 85 82 80 7f 7f     ~}~..~||~.......
    2214:	80 80 80 7e 7b 79 7b 7e 81 85 89 83 80 7f 82 8a     ...~{y{~........
    2224:	88 82 7c 77 76 7c 7f 7f 7e 7d 7d 7e 80 85 8a 86     ..|wv|..~}}~....
    2234:	81 7c 74 72 7c 7f 7d 75 69 71 7b 82 83 80 7d 7e     .|tr|.}uiq{...}~
    2244:	80 81 82 80 7f 7e 7c 79 7b 7e 81 87 8e 86 80 7e     .....~|y{~.....~
    2254:	81 8a 8a 83 7b 75 76 7d 7f 7f 7e 7e 7f 7f 7f 81     ....{uv}..~~....
    2264:	84 83 80 7d 77 6f 75 7d 81 80 7a 76 7b 84 8e 91     ...}wou}..zv{...
    2274:	84 7f 7f 80 81 80 7f 7f 7d 7b 7c 7e 81 86 8d 89     ........}{|~....
    2284:	82 7c 7b 7e 83 82 7a 6f 68 76 7e 7f 7d 7b 7e 7f     .|{~..zohv~.}{~.
    2294:	7f 7e 7f 80 80 7e 79 73 76 7c 83 89 88 80 7e 82     .~...~ysv|....~.
    22a4:	8e 9b 8e 82 7e 7f 82 81 7f 7f 80 82 80 7f 80 84     ....~...........
    22b4:	89 87 82 7b 71 6d 7a 7f 7e 75 66 6e 7b 82 82 7d     ...{qmz.~ufn{..}
    22c4:	7c 7e 80 7e 7b 7b 7e 7f 7d 78 79 7c 83 8e 98 8b     |~.~{{~.}xy|....
    22d4:	81 7f 83 8f 8e 85 79 73 77 80 80 7e 7d 7f 83 81     ......ysw..~}...
    22e4:	7d 7d 81 82 81 7b 6f 63 6e 7b 82 7f 76 73 7a 87     }}...{ocn{..vsz.
    22f4:	95 95 83 7f 80 85 89 80 7e 82 86 85 81 7f 82 8e     ........~.......
    2304:	9e 93 85 78 75 81 87 83 77 60 56 74 7e 7e 76 69     ...xu...w`Vt~~vi
    2314:	75 7f 7c 76 6f 74 7d 7e 71 60 67 76 8b 97 89 7a     u.|vot}~q`gv...z
    2324:	7b 88 a7 b9 93 82 7e 8b a2 91 81 7f 89 9d 94 83     {.....~.........
    2334:	7d 85 9b 9c 8a 71 59 5c 7e 83 75 54 36 5e 79 81     }....qY\~.uT6^y.
    2344:	73 5b 67 7a 82 77 5b 66 78 85 81 66 62 73 90 b0     s[gz.w[fx..fbs..
    2354:	b4 85 7c 8a b0 d0 a9 87 7b 8a a1 9b 86 7b 84 a1     ..|.....{....{..
    2364:	9b 88 77 77 8f 9d 8b 6c 46 38 73 80 75 4a 2b 4c     ..ww...lF8s.uJ+L
    2374:	75 84 78 5f 5f 77 85 83 5e 62 75 89 8e 75 64 73     u.x__w..^bu..uds
    2384:	93 bd d1 92 7f 8a b4 db ba 89 78 85 a5 a1 89 77     ..........x....w
    2394:	7b 9c 9d 8a 75 6b 89 9a 8c 69 3b 29 6c 7f 71 4c     {...uk...i;)l.qL
    23a4:	0f 45 74 87 73 58 56 75 88 80 60 5c 74 8b 8c 6e     .Et.sXVu..`\t..n
    23b4:	5f 6f 96 c6 c1 94 79 8e c0 f8 b3 8a 7d 8d be a7     _o....y.....}...
    23c4:	89 78 85 a9 a5 8a 76 79 a0 a8 91 67 47 44 7e 88     .x....vy...gGD~.
    23d4:	6c 31 16 47 7a 80 5c 3d 54 77 82 70 46 59 75 84     l1.Gz.\=Tw.pFYu.
    23e4:	76 47 46 6b 94 af 95 6c 70 98 c8 ea 9d 81 88 a7     vGFk...lp.......
    23f4:	ce a1 84 81 9c ba a2 84 7f 9d d3 c3 8f 6d 73 8f     .............ms.
    2404:	b0 91 65 3e 3c 74 85 73 4e 44 6b 81 78 5a 4a 6b     ..e><t.sNDk.xZJk
    2414:	80 77 49 0e 4a 71 83 73 2c 41 6a 94 a8 92 6d 74     .wI.Jq.s,Aj...mt
    2424:	8e a4 a2 7c 79 8a 9c 9f 78 77 91 bc de a4 82 87     ...|y...xw......
    2434:	b2 f0 c4 8e 73 81 9d aa 8a 72 71 80 96 87 75 77     ....s....rq...uw
    2444:	8b a2 8e 6d 47 55 78 89 6d 34 13 4d 79 7f 5f 42     ...mGUx.m4.My._B
    2454:	57 78 83 74 5b 65 7a 81 69 3f 49 70 8d 95 6b 5c     Wx.t[ez.i?Ip..k\
    2464:	6e 96 bc c4 8b 7b 8a a9 b7 94 80 84 96 a9 8b 7d     n....{.........}
    2474:	88 b3 c7 b1 86 7c 9a cd c0 90 6c 69 78 98 89 72     .....|....lix..r
    2484:	65 68 86 83 77 72 7a 92 8a 70 4b 46 70 83 71 41     eh..wrz..pKFp.qA
    2494:	18 4c 77 82 6d 51 5c 77 85 7f 6d 6b 7a 81 75 4a     .Lw.mQ\w..mkz.uJ
    24a4:	59 71 8b 95 72 5f 6f 93 bb ba 8f 7c 88 a4 b0 95     Yq..r_o....|....
    24b4:	80 81 91 99 87 7d 89 a4 cd a1 85 80 9b d1 b6 8f     .....}..........
    24c4:	72 6b 87 94 88 75 67 6e 81 83 7a 75 86 97 88 70     rk...ugn..zu...p
    24d4:	5d 53 7e 85 70 48 22 59 79 7f 6d 4f 63 78 83 80     ]S~.pH"Yy.mOcx..
    24e4:	71 75 7d 7c 67 4c 57 77 87 7e 5b 55 71 91 a7 a2     qu}|gLWw.~[Uq...
    24f4:	7e 7a 88 9b a5 8a 7f 81 87 84 75 78 89 a2 ab 8d     ~z........ux....
    2504:	7d 88 ae d3 af 88 7a 83 9f 99 86 78 77 82 85 81     }.....z....xw...
    2514:	80 8d af 9b 87 78 7a 93 9a 8c 6f 54 51 75 81 79     .....xz...oTQu.y
    2524:	66 5c 72 7d 7e 7b 7d 85 83 75 64 4f 70 7f 7a 60     f\r}~{}..udOp.z`
    2534:	3a 57 75 87 86 74 70 79 85 8b 83 7d 7e 7f 78 66     :Wu..tpy...}~.xf
    2544:	68 78 86 8b 80 73 78 8a 9f ac 8f 81 80 8a 96 89     hx...sx.........
    2554:	81 7e 7e 80 7e 7e 82 8b 9e 8e 82 7e 81 8e 8d 84     .~~.~~.....~....
    2564:	79 70 6d 7d 80 7d 79 78 7c 7f 7f 7e 85 7f 80 7d     ypm}.}yx|..~...}
    2574:	79 79 7b 7f 7e 7b 78 7a 7e 7f 7f 7b 7c 7f 7f 7e     yy{.~{xz~..{|..~
    2584:	83 7f 80 7f 7c 85 7c 7f 7f 7c 7e 7c 7e 80 7f 7f     ....|.|..|~|~...
    2594:	7d 80 81 80 83 7f 80 7f 7e 76 7f 7e 81 7b 84 81     }.......~v.~.{..
    25a4:	7e 7f 82 87 7c 81 7e 8a 7e 7f 7e 82 7f 76 80 7d     ~...|.~.~.~..v.}
    25b4:	80 82 7d 76 7e 80 82 7e 80 7f 7f 7e 76 7d 7f 7e     ..}v~..~...~v}.~
    25c4:	7e 7e 77 7f 7f 7e 78 7f 7f 7e 7c 85 88 7c 7c 83     ~~w..~x..~|..||.
    25d4:	83 7d 7d 7e 7f 7c 80 7f 7e 80 72 80 7e 7c 8a 71     .}}~.|..~.r.~|.q
    25e4:	7f 80 80 80 77 81 80 80 7e 79 7f 7e 7d 81 85 80     ....w...~y.~}...
    25f4:	7e 7e 79 8a 82 7b 7e 85 85 7c 80 7e 7e 87 84 7d     ~~y..{~..|.~~..}
    2604:	7c 7f 80 7f 7e 7e 7f 80 83 80 80 79 84 82 7e 7e     |...~~.....y..~~
    2614:	83 7d 84 7f 7c 87 71 80 7e 7e 87 7c 7d 7f 7e 83     .}..|.q.~~.|}.~.
    2624:	90 84 82 81 7a 85 78 7f 7e 7f 89 81 7d 7e 78 86     ....z.x.~...}~x.
    2634:	7e 7d 7f 75 8a 7d 7b 7e 78 91 81 7d 7e 7b 8a 84     ~}.u.}{~x..}~{..
    2644:	80 82 7d 77 87 82 80 81 7c 7a 7e 80 80 89 80 7d     ..}w....|z~....}
    2654:	7e 7f 80 7e 80 7f 7c 87 7b 7d 7d 7e 88 80 7f 80     ~..~..|.{}}~....
    2664:	7f 80 84 7e 7f 85 83 7d 80 81 7f 7e 82 7f 7d 7d     ...~...}...~..}}
    2674:	85 7d 7f 7f 81 82 7d 82 81 86 6d 7d 81 7f 88 78     .}....}...m}...x
    2684:	72 7e 80 7e 74 80 7e 81 87 7f 7e 7f 7e 7d 7e 86     r~.~t.~...~.~}~.
    2694:	7d 7d 79 87 81 7e 7b 80 7a 7f 80 7f 7d 7d 7c 7e     }}y..~{.z...}}|~
    26a4:	7f 7e 76 7b 7f 7e 77 8b 82 7e 80 7d 88 82 7e 80     .~v{.~w..~.}..~.
    26b4:	78 88 7c 7c 7b 85 7c 80 7f 80 7e 7c 85 81 81 87     x.||{.|...~|....
    26c4:	73 85 80 81 81 7f 82 7f 7f 80 79 7f 7e 7e 7b 8a     s.........y.~~{.
    26d4:	7b 7e 7c 84 78 7f 80 7f 7a 8b 7e 7c 7b 84 86 7d     {~|.x...z.~|{..}
    26e4:	80 7e 85 75 7f 7e 7d 84 83 7b 7e 7e 7f 80 7c 7d     .~.u.~}..{~~..|}
    26f4:	7e 7a 80 85 80 7e 81 7b 7c 82 82 82 79 89 80 80     ~z...~.{|...y...
    2704:	80 83 7a 7e 7e 87 7d 7b 80 80 82 75 7f 80 80 85     ..z~~.}{...u....
    2714:	81 79 7f 80 84 79 82 7f 80 83 74 7c 7e 7e 81 84     .y...y....t|~~..
    2724:	79 7f 7e 84 7a 78 7f 7f 77 8c 84 7c 7f 76 87 84     y.~.zx..w..|.v..
    2734:	80 81 7d 74 80 7f 7d 84 7c 7d 80 80 7f 7c 85 7e     ..}t..}.|}...|.~
    2744:	80 7b 82 7f 7e 7e 80 80 80 7f 80 78 80 86 7e 80     .{..~~.....x..~.
    2754:	7e 82 75 7d 7d 85 77 86 7f 7e 78 84 82 7d 7c 7c     ~.u}}.w..~x..}||
    2764:	7b 78 7e 7d 7f 74 7e 7f 7f 7d 7e 7e 7f 7d 7f 86     {x~}.t~..}~~.}..
    2774:	7d 7e 83 83 79 89 80 82 80 87 8b 7f 7d 7e 81 7e     }~..y.......}~.~
    2784:	7e 7e 85 78 7b 81 7f 89 79 84 7e 7d 82 7e 7b 7e     ~~.x{...y.~}.~{~
    2794:	7b 7f 7a 7a 7f 7f 85 7b 8a 7f 7e 7c 81 82 7f 7f     {.zz...{..~|....
    27a4:	76 7d 85 80 82 81 7f 84 7e 80 80 7d 82 81 7f 7e     v}......~..}...~
    27b4:	8a 85 7f 81 81 7c 82 80 82 7f 83 81 7e 7d 80 79     .....|......~}.y
    27c4:	79 7e 7f 86 85 85 7f 80 7c 86 7c 7f 7e 87 78 7b     y~......|.|.~.x{
    27d4:	7e 81 79 81 81 7f 81 87 76 77 7c 7f 85 84 81 7f     ~.y.....vw|.....
    27e4:	7f 84 77 7e 7e 7f 83 71 74 7f 80 7e 7e 7e 7e 7e     ..w~~..qt..~~~~~
    27f4:	81 73 80 7f 7d 7c 7d 7b 7f 7f 7c 75 84 80 80 83     .s..}|}{..|u....
    2804:	7a 7c 80 7f 84 81 76 7f 7f 74 8a 7c 82 82 7a 80     z|....v..t.|..z.
    2814:	70 81 83 6e 88 73 80 82 78 8b 78 7f 80 7c 85 7b     p..n.s..x.x..|.{
    2824:	81 7f 7b 81 7b 80 7e 7e 7d 7f 7f 7e 7a 84 7e 81     ..{.{.~~}..~z.~.
    2834:	80 7c 7d 85 7f 7c 7f 83 7f 7f 7f 7e 78 88 7f 7d     .|}..|.....~x..}
    2844:	7f 8b 82 7f 7d 7d 79 82 80 80 7d 80 84 7f 7e 7c     ....}}y...}...~|
    2854:	81 7d 7f 7f 7f 84 84 7e 7f 7d 84 82 7e 7d 7d 88     .}.....~.}..~}}.
    2864:	81 7e 7e 7d 81 80 7f 7f 7e 84 80 7f 7f 7e 84 81     .~~}....~....~..
    2874:	7e 7f 81 7d 7f 7f 80 82 81 81 7e 80 83 81 7d 7e     ~..}......~...}~
    2884:	80 81 7d 7d 7e 80 80 80 7e 7e 81 83 85 7f 7f 7e     ..}}~...~~.....~
    2894:	7b 7b 7d 80 7e 76 70 76 7d 80 80 7d 7e 7f 80 84     {{}.~vpv}..}~...
    28a4:	92 8b 85 77 72 81 8d 86 76 6c 6c 7f 82 7c 7b 83     ...wr...vll..|{.
    28b4:	8a 83 79 76 84 8f 88 74 58 4a 81 84 74 5a 64 79     ..yv...tXJ..tZdy
    28c4:	81 7a 76 74 81 82 7a 6e 6f 7e 81 79 6a 58 65 78     .zvt..zno~.yjXex
    28d4:	82 6e 5b 64 7a 80 81 7c 7f 7f 7f 7d 78 75 7c 82     .n[dz..|...}xu|.
    28e4:	83 75 6f 79 88 9e a8 6f 7a 89 98 7e 81 7e 80 77     .uoy...oz..~.~.w
    28f4:	81 7d 7e 81 8f 8d 84 7e 84 91 a7 99 88 80 99 ab     .}~....~........
    2904:	9e 80 81 7f 87 77 7e 7f 80 7a 8c 82 7c 7b 94 8d     .....w~..z..|{..
    2914:	85 76 60 4c 98 85 75 6a 93 7f 7f 7f 90 7b 7b 7e     .v`L..uj.....{{~
    2924:	80 6a 6f 79 80 79 6f 50 68 78 85 57 61 6d 7d 78     .joy.yoPhx.Wam}x
    2934:	88 87 85 83 83 83 87 79 78 82 7f 70 6b 7b 88 97     .......yx..pk{..
    2944:	a6 7a 76 84 91 79 76 83 7d 6f 75 8a 80 7f 9a a6     .zv..yv.}ou.....
    2954:	84 7e 85 8d 9e 97 88 76 ad a2 94 80 88 7a 6a 73     .~.....v.....zjs
    2964:	7a 7a 73 78 8e 89 7c 85 99 93 83 78 5c 46 a4 85     zzsx..|....x\F..
    2974:	77 76 b0 80 7b 85 97 6c 6f 7d 7c 57 68 86 83 77     wv..{..lo}|Wh..w
    2984:	70 5e 5d 76 73 5f 5b 76 88 7e 91 a0 94 7b 86 86     p^]vs_[v.~...{..
    2994:	6d 55 7c 7b 6c 58 74 7a 8b a5 4f 5a 79 82 62 6f     mU|{lXtz..OZy.bo
    29a4:	94 85 77 89 a2 85 7b 8e 8d 6b 6c 79 84 93 bc a3     ..w...{..kly....
    29b4:	73 8a 8f 89 60 80 76 6a 5f 8f 85 7f 92 c2 89 79     s...`.vj_......y
    29c4:	86 95 97 91 89 77 b4 a1 8f 7d 8a 6e 51 6b 7d 77     .....w...}.nQk}w
    29d4:	6e 86 97 88 80 96 9e 94 83 76 56 8e ab 83 7a 97     n........vV...z.
    29e4:	9d 65 78 86 7c 51 7a 83 73 66 95 95 84 78 74 46     .ex.|Qz.sf...xtF
    29f4:	60 8c 77 6e 7a 9d 7c 88 97 9c 6c 7a 7f 68 3d 79     `.wnz.|...lz.h=y
    2a04:	85 78 64 5f 6a 74 7a 50 67 75 86 79 98 a7 95 7f     .xd_jtzPgu.y....
    2a14:	88 88 79 5b 77 7c 66 4f 62 7a 8b 7f 29 70 7c 78     ..y[w|fObz..)p|x
    2a24:	62 a0 98 86 7b 9a 99 81 77 8d 7c 5d 61 74 86 9e     b...{...w.|]at..
    2a34:	85 4e 7b 82 69 4a 92 85 76 6f a2 8e 81 87 a3 88     .N{.iJ..vo......
    2a44:	6f 76 8e 9c b0 6d 72 86 88 55 68 83 78 5c 67 91     ov...mr..Uh.x\g.
    2a54:	83 7b 9c b5 86 7a 8c aa b8 95 72 8e 90 7e 5b 7e     .{...z....r..~[~
    2a64:	79 66 44 7e 83 79 7a b5 93 80 86 b0 c1 a3 7c 93     yfD~.yz.......|.
    2a74:	a0 9b 6a 76 7f 70 43 68 81 7a 6a 97 99 83 80 ab     ..jv.pCh.zj.....
    2a84:	cd a9 85 90 aa ad 7b 75 83 7a 4f 5d 7e 7b 66 7b     ......{u.zO]~{f{
    2a94:	94 84 7d a0 cb ab 88 8c ad bb 89 76 85 83 5f 5d     ..}........v.._]
    2aa4:	7c 7e 68 71 8a 83 7b 99 c2 ac 89 89 a8 c3 8f 78     |~hq..{........x
    2ab4:	85 8a 6b 62 7b 81 6d 71 84 81 7c 96 b9 aa 8a 87     ..kb{.mq..|.....
    2ac4:	a5 c2 95 7a 84 8c 77 6a 7b 83 75 76 82 80 7d 94     ...z..wj{.uv..}.
    2ad4:	b5 a6 8a 84 9e bc 9c 7d 82 8b 83 71 7c 83 7e 7b     .......}...q|.~{
    2ae4:	84 7f 7e 90 b0 9f 8a 80 97 b4 a2 80 7f 85 8e 79     ..~............y
    2af4:	7e 82 87 80 88 80 80 8b af 9d 89 7c 92 a8 a3 84     ~..........|....
    2b04:	7d 7c 8e 81 80 7f 86 84 8a 82 7f 86 a8 9d 88 76     }|.............v
    2b14:	84 9b 9b 88 78 70 79 87 82 7b 78 7b 83 83 7b 7c     ....xpy..{x{..{|
    2b24:	8a 8f 83 7a 77 7c 7e 80 7d 78 6e 74 7d 81 82 80     ...zw|~.}xnt}...
    2b34:	7d 7e 80 81 80 7f 7f 7f 7d 79 78 7c 82 88 89 80     }~......}yx|....
    2b44:	7e 82 89 90 88 80 7e 7e 80 7f 7f 7f 7f 7d 7b 7d     ~.....~~.....}{}
    2b54:	82 8b 92 88 80 7f 83 8b 88 82 7c 76 72 79 7e 80     ..........|vry~.
    2b64:	7f 7b 7a 7d 81 87 8d 88 82 7c 7a 7d 82 81 7b 73     .{z}.....|z}..{s
    2b74:	69 73 7c 82 83 7f 7c 7d 81 86 8a 86 81 7c 75 72     is|...|}.....|ur
    2b84:	7a 7f 7e 76 6c 72 7c 83 87 88 81 7f 80 85 8a 86     z.~vlr|.........
    2b94:	81 7c 76 70 77 7d 80 7e 77 77 7c 83 8a 8c 84 80     .|vpw}.~ww|.....
    2ba4:	7f 7f 81 81 80 7d 77 69 72 7b 84 87 82 78 7b 85     .....}wir{...x{.
    2bb4:	90 92 84 7f 80 7f 7f 7c 7d 80 80 76 72 7a 88 94     .......|}..vrz..
    2bc4:	96 83 7c 85 99 a7 8e 81 80 87 8d 84 7e 82 8f 93     ..|.........~...
    2bd4:	85 7e 84 95 af 9e 85 7c 88 a4 9a 88 77 74 7e 8b     .~.....|....wt~.
    2be4:	83 7b 7a 8d 8d 84 7a 7b 88 8e 85 77 61 4f 73 7f     .{z...z{...waOs.
    2bf4:	7a 64 55 66 7b 81 7a 6a 73 7d 7f 74 63 6f 7c 80     zdUf{.zjs}.tco|.
    2c04:	76 6b 6b 79 88 9f a0 84 7b 88 9f b5 91 81 82 91     vkky....{.......
    2c14:	9b 8c 7f 83 95 a4 8d 81 82 8c 9d 90 84 76 62 69     .............vbi
    2c24:	79 83 77 61 49 6f 7e 7c 6d 61 75 7f 7a 67 5b 6f     y.waIo~|mau.zg[o
    2c34:	7e 7c 71 65 73 7c 84 97 ac 89 80 85 98 b5 98 84     ~|qes|..........
    2c44:	7f 8c 9f 91 81 80 93 a9 96 83 7e 89 95 8c 82 7d     ..........~....}
    2c54:	76 5f 64 79 84 77 60 61 76 87 88 72 6c 79 85 81     v_dy.w`av..rly..
    2c64:	64 65 77 86 87 73 70 7a 83 86 81 84 83 75 5c 64     dew..spz.....u\d
    2c74:	7c 84 74 58 50 6f 81 79 63 5b 79 83 76 5b 52 73     |.tXPo.yc[y.v[Rs
    2c84:	81 79 68 63 76 80 7e 82 95 9d 89 78 76 9c 9d 8a     .yhcv.~....xv...
    2c94:	73 6b 87 91 87 77 78 93 9c 89 75 73 8a 94 86 79     sk...wx...us...y
    2ca4:	79 87 89 81 81 96 b7 a7 85 7c 96 b5 a9 88 79 86     y........|....y.
    2cb4:	a1 99 84 7e 8f b1 9e 86 7c 88 a2 94 83 7e 87 97     ...~....|....~..
    2cc4:	87 7e 85 9e bd a0 82 80 9e b5 a3 85 7d 8c 9b 90     .~..........}...
    2cd4:	80 81 93 a9 96 83 7e 8a 9b 8f 81 7f 89 91 85 7e     ......~........~
    2ce4:	84 98 b0 9c 85 7d 88 aa 97 87 7a 7a 8b 86 82 7f     .....}....zz....
    2cf4:	82 99 8e 84 7c 7a 8a 89 83 7d 7b 88 84 81 7f 86     ....|z...}{.....
    2d04:	99 93 86 76 6a 78 87 85 77 69 66 7a 7f 7e 7b 7c     ...vjx..wifz.~{|
    2d14:	81 81 7b 70 6d 7a 80 7c 72 6f 79 7f 7e 7a 7d 81     ..{pmz.|roy.~z}.
    2d24:	82 7a 68 54 67 7b 7f 6e 5e 65 79 84 84 80 7b 7d     .zhTg{.n^ey...{}
    2d34:	80 7b 70 70 7b 83 80 75 73 7c 82 83 7e 7a 7d 80     .{pp{..us|..~z}.
    2d44:	7d 71 70 79 88 98 97 7f 7b 86 99 a1 8f 81 7e 81     }qpy....{.....~.
    2d54:	86 83 7f 81 8b 93 87 7f 80 88 8e 87 80 7f 81 85     ................
    2d64:	82 7f 81 8b 9c 94 85 78 78 86 8d 85 78 6c 6a 76     .......xx...xljv
    2d74:	7e 7f 7a 7c 81 81 7c 76 78 80 81 7d 76 73 7b 7f     ~.z|..|vx..}vs{.
    2d84:	7e 7c 7a 80 81 7b 6f 60 6b 7a 82 7c 6b 6e 79 85     ~|z..{o`kz.|kny.
    2d94:	8e 91 84 7f 80 82 80 7b 7d 82 84 82 7d 7e 81 86     .......{}...}~..
    2da4:	8a 82 7f 80 82 82 7c 7d 83 8e 9a 90 83 7d 83 93     ......|}.....}..
    2db4:	8f 84 79 71 6e 7a 7f 7e 7c 7e 82 81 7d 7a 7d 81     ..yqnz.~|~..}z}.
    2dc4:	80 7d 78 77 7c 7f 7e 7c 7e 82 81 7c 72 66 6f 7b     .}xw|.~|~..|rfo{
    2dd4:	82 7e 70 71 7a 84 8d 92 86 7f 80 82 7f 7c 7d 81     .~pqz........|}.
    2de4:	83 82 7e 7e 81 86 88 82 7f 80 82 82 7e 7e 82 8a     ..~~........~~..
    2df4:	95 8d 83 7b 7a 83 89 83 7a 6f 68 75 7d 7f 7c 7b     ...{z...zohu}.|{
    2e04:	7f 80 7d 7a 79 7e 7f 7e 79 74 7a 7e 7f 7c 7a 7d     ..}zy~.~ytz~.|z}
    2e14:	7f 7d 77 6d 72 7b 84 8b 87 7d 7c 83 8e 97 8c 82     .}wmr{...}|.....
    2e24:	7d 7e 82 80 7f 80 84 87 82 7f 7f 83 89 86 81 7e     }~.............~
    2e34:	7f 82 81 7f 7f 83 8a 89 83 7a 70 6b 7a 80 7c 72     .........zpkz.|r
    2e44:	68 71 7b 83 86 82 7e 7f 7f 7c 78 7b 7e 7f 7e 78     hq{...~..|x{~.~x
    2e54:	79 7d 81 82 7f 7d 7e 80 7f 7b 79 7c 83 8c 95 8a     y}...}~..{y|....
    2e64:	81 7f 86 90 8c 83 7a 73 72 7c 7f 7f 80 83 83 80     ......zsr|......
    2e74:	7e 7e 81 83 81 7d 79 79 7f 7f 7e 7d 7f 82 81 7c     ~~...}yy..~}...|
    2e84:	74 6b 73 7c 81 7f 76 76 7c 83 8c 92 87 80 7f 7f     tks|..vv|.......
    2e94:	7e 7d 7e 80 81 81 7e 7e 81 85 89 82 7f 7f 81 82     ~}~...~~........
    2ea4:	7f 7e 81 86 8e 89 82 7c 79 7c 82 81 7c 73 6c 75     .~.....|y|..|slu
    2eb4:	7d 81 81 80 80 80 7e 7b 7a 7e 7f 7e 7a 75 7a 7e     }.....~{z~.~zuz~
    2ec4:	80 7f 7c 7e 7f 7e 7a 74 77 7c 82 88 8a 81 7f 81     ..|~.~ztw|......
    2ed4:	87 8f 89 82 7c 78 79 7d 7f 7f 82 84 82 7f 7f 80     ....|xy}........
    2ee4:	84 83 80 7d 7c 7d 7f 7f 7f 80 83 84 81 7c 76 71     ...}|}.......|vq
    2ef4:	78 7e 7f 7c 76 77 7c 82 88 8c 84 80 7e 7d 7c 7c     x~.|vw|.....~}||
    2f04:	7e 80 80 7f 7d 7e 80 83 85 81 7f 7f 7f 7e 7c 7e     ~...}~.......~|~
    2f14:	81 86 8c 87 81 7d 7d 81 83 81 7c 76 71 78 7d 81     .....}}...|vqx}.
    2f24:	82 83 81 80 7e 7d 7d 7f 7f 7e 7c 79 7c 7e 80 80     ....~}}..~|y|~..
    2f34:	81 80 80 7e 7a 75 79 7d 81 85 85 80 7f 80 86 8c     ...~zuy}........
    2f44:	87 81 7c 79 78 7c 7e 80 81 83 81 7f 7f 81 83 82     ..|yx|~.........
    2f54:	80 7e 7c 7b 7d 7e 80 82 86 84 81 7d 79 77 7c 7f     .~|{}~.....}yw|.
    2f64:	7e 7b 76 79 7d 82 86 88 83 80 7e 7d 7b 7d 7f 7f     ~{vy}.....~}{}..
    2f74:	7e 7c 7d 7e 80 82 84 81 80 7e 7c 79 7b 7e 81 84     ~|}~.....~|y{~..
    2f84:	86 82 80 7f 81 84 84 81 7d 78 75 7a 7e 80 82 83     ........}xuz~...
    2f94:	81 80 7f 7e 7f 80 7f 7e 7c 7a 7c 7e 80 81 83 82     ...~...~|z|~....
    2fa4:	80 7e 7b 78 7b 7e 80 81 80 7e 7e 80 84 88 85 80     .~{x{~...~~.....
    2fb4:	7d 7b 7a 7d 7f 80 81 82 80 7f 7f 80 82 81 80 7e     }{z}...........~
    2fc4:	7c 7b 7d 7e 80 83 85 83 80 7e 7c 7b 7e 7f 7e 7c     |{}~.....~|{~.~|
    2fd4:	79 7b 7e 81 84 86 83 80 7e 7d 7c 7d 7f 7f 7f 7e     y{~.....~}|}...~
    2fe4:	7e 7f 80 81 82 81 80 7e 7c 79 7b 7e 80 83 84 81     ~......~|y{~....
    2ff4:	7f 7f 80 81 81 80 7e 7b 79 7b 7e 80 82 83 81 7f     ......~{y{~.....
    3004:	7f 7e 7e 7f 7f 7f 7e 7d 7d 7e 80 82 84 82 80 7e     .~~...~}}~.....~
    3014:	7b 79 7c 7e 7f 80 7e 7e 7f 80 82 85 82 80 7e 7c     {y|~..~~......~|
    3024:	7b 7d 7f 7f 80 80 80 7f 7f 80 80 80 7f 7e 7d 7b     {}...........~}{
    3034:	7c 7e 80 82 84 81 80 7f 7e 7e 7f 7f 7f 7e 7c 7d     |~......~~...~|}
    3044:	7e 80 82 84 81 80 7e 7e 7e 7f 7f 7f 80 80 7f 7f     ~.....~~~.......
    3054:	7f 81 82 81 80 7e 7c 7a 7d 7e 80 81 81 80 7f 7f     .....~|z}~......
    3064:	7f 80 80 7f 7e 7d 7b 7d 7e 80 81 81 80 7f 7f 7e     ....~}{}~......~
    3074:	7e 7e 7f 7f 7f 7e 7e 7f 80 81 83 81 80 7e 7d 7c     ~~...~~......~}|
    3084:	7e 7f 7f 7f 7f 7e 7f 7f 80 81 81 7f 7f 7e 7d 7e     ~....~.......~}~
    3094:	7f 7f 80 80 80 7f 7f 7f 7f 7f 7f 7f 7e 7d 7e 7f     ............~}~.
    30a4:	80 81 82 80 7f 7f 7e 7e 7f 7f 7f 7e 7e 7e 7f 7f     ......~~...~~~..
    30b4:	80 80 7f 7f 7f 7e 7e 7f 7f 7f 80 80 7f 7f 7f 7f     .....~~.........
    30c4:	7f 7f 7f 7f 7e 7e 7e 7f 7f 80 80 7f 7f 7f 7f 7f     ....~~~.........
    30d4:	7f 7f 7f 7f 7e 7f 7f 7f 80 80 80 7f 7f 7e 7e 7e     ....~........~~~
    30e4:	7f 7f 7f 80 7f 7f 7f 7f 7f 7f 7f 7f 7f 7e 7e 7f     .............~~.
    30f4:	7f 80 80 80 7f 7f 7f 7e 7f 7f 7f 7f 80 7f 7f 7f     .......~........
    3104:	7f 7f 7f 7f 7f 7f 7f 7f 7f 7f 7f 7f 7f 7f 7f 7f     ................
    3114:	7f 7f 7f 7f 7f 7f 7f 7f 7f 7f 7f 7f 7f 7f 7f 7f     ................
    3124:	7f 7f 7f 7f 7f 7f 7f 7f 7f 7f 7f 7f 7f 7f 7f 7f     ................
    3134:	7f 7f 7f 7f 7f 7f 7f 7f 7f 7f 7f 7f 7f 7f 7f 7f     ................
    3144:	7f 7f 7f 7f 7f 7f 7f 7f 7f 7f 7f 7f 7f 7f 7f 7f     ................
    3154:	7f 7f 7f 7f 7f 7f 7f 7f 7f 7f 7f 7f 7f 7f 7f 7f     ................
    3164:	7f 7f 7f 7f 7f 7f 7f 7f 7f 7f 7f 7f 7f 7f 7f 7f     ................
    3174:	7f 7f 7f 7f 7f 7f 7f 7f 7f 7f 7f 7f 7f 7f 7f 7f     ................
    3184:	7f 7f 7f 7f 7f 7f 7f 7f 7f 7f 7f 7f 7f 7f 7f 7f     ................
    3194:	7f 7f 7f 7f 7f 7f 7f 7f 7f 7f 7f 7f 7f 7f 7f        ...............

000031a3 <_ZL7Wave_ok>:
    31a3:	01 01 88 13 00 00 88 13 00 00 01 08 87 0e 00 00     ................
    31b3:	7f 7f 7f 7f 7f 7f 7f 7f 7f 7f 7f 7f 7f 7f 7f 7f     ................
    31c3:	7f 7f 7f 7f 7f 7f 7f 7f 7f 7f 7f 7f 7f 7f 7f 7f     ................
    31d3:	7f 7f 7f 7f 7f 7f 7f 7f 7f 7f 7f 7f 7f 7f 7f 7f     ................
    31e3:	7f 7f 7f 7f 7f 7f 7f 7f 7f 7f 7f 7f 7f 7f 7f 7f     ................
    31f3:	7f 7f 7f 7f 7f 7f 7f 7f 7f 7f 7f 7f 7f 7f 7f 7f     ................
    3203:	7f 7f 7f 7f 7f 7f 7f 7f 7f 7f 7f 7f 7f 7f 7f 7f     ................
    3213:	7f 7f 7f 7f 7f 7f 7f 7f 7f 7f 7f 7f 7f 7f 7f 7f     ................
    3223:	7f 7f 7f 7f 7f 7f 7f 7f 7f 7f 7f 7f 7f 7f 7f 7f     ................
    3233:	7f 7f 7f 7f 7f 7f 7f 7f 7f 7f 7f 7f 7f 7f 7f 7f     ................
    3243:	7f 7f 7f 7f 7f 7f 7f 7f 7f 7f 7f 7f 7f 7f 7f 7f     ................
    3253:	7f 7f 7f 7f 7f 7f 7f 7f 7f 7f 7f 7f 7f 7f 7f 7f     ................
    3263:	7f 7f 7f 7f 7f 7f 7f 7f 7f 7f 7f 7f 7f 7f 7f 7f     ................
    3273:	7f 7f 7f 7f 7f 7f 7f 7f 7f 7f 7f 7f 7f 7f 7f 7f     ................
    3283:	7f 7f 7f 7f 7f 7f 7f 7f 7f 7f 7f 7f 7f 7f 7f 7f     ................
    3293:	7f 7f 7f 7f 7f 7f 7f 7f 7f 7f 7f 7f 7f 7f 7f 7f     ................
    32a3:	7f 7f 7f 7f 7f 7f 7f 7f 7f 7f 7f 7f 7f 7f 7f 7f     ................
    32b3:	7f 7f 7f 7f 7f 7f 7f 7f 7f 7f 7f 7f 7f 7f 7f 7f     ................
    32c3:	7f 7f 7f 7f 7f 7f 7f 7f 7f 7f 7f 7f 7f 7f 7f 7f     ................
    32d3:	7f 7f 7f 7f 7f 7f 7f 7f 7f 7f 7f 7f 7f 7f 7f 7f     ................
    32e3:	7f 7f 7f 7f 7f 7f 7f 7f 7f 7f 7f 7f 7f 7f 7f 7f     ................
    32f3:	7f 7f 7f 7f 7f 7f 7f 7f 7f 7f 7f 7f 7f 7f 7f 7f     ................
    3303:	7f 7f 7f 7f 7f 7f 7f 7f 7f 7f 7f 7f 7f 7f 7f 7f     ................
    3313:	7f 7f 7f 7f 7f 7f 7f 7f 7f 7f 7f 7f 7f 7f 7f 7f     ................
    3323:	7f 7f 7f 7f 7f 7f 7f 7f 7f 7f 7f 7f 7f 7f 7f 7f     ................
    3333:	7f 7f 7f 7f 7f 7f 7f 7f 7f 7f 7f 7f 7f 7f 7f 7f     ................
    3343:	7f 7f 7f 7f 7f 7f 7f 7f 7f 7f 7f 7f 7f 7f 7f 7f     ................
    3353:	7f 7f 7f 7f 7f 7f 7f 7f 7f 7f 7f 7f 7f 7f 7f 7f     ................
    3363:	7f 7f 7f 7f 7f 7f 7f 7f 7f 7f 7f 7f 7f 7f 7f 7f     ................
    3373:	7f 7f 7f 7f 7f 7f 7f 7f 7f 7f 7f 7f 7f 7f 7f 7f     ................
    3383:	7f 7f 7f 7f 7f 7f 7f 7f 7f 7f 7f 7f 7f 7f 7f 7f     ................
    3393:	7f 7f 7f 7f 7f 7f 7f 7f 7f 7f 7f 7f 7f 7f 7f 7f     ................
    33a3:	7f 7f 7f 7f 7f 7f 7f 7f 7f 7f 7f 80 80 80 80 7f     ................
    33b3:	7f 7f 7f 7f 80 80 7f 7e 7c 7f 7f 7f 7f 7f 85 8d     .......~|.......
    33c3:	86 7d 82 7f 7f 7f 7f 7f 85 83 81 80 81 7f 7f 7f     .}..............
    33d3:	7f 7f 82 a2 99 7d 78 7f 7f 7f 7f 7f 81 7c 7a 82     .....}x......|z.
    33e3:	8d 7f 7f 7f 7f 7f 71 68 61 60 80 7f 7f 7f 7f 7f     ......qha`......
    33f3:	73 7f 92 92 84 7f 7f 7f 7f 7f 7e 72 6f 6b 60 7f     s.........~rok`.
    3403:	7f 7f 7f 7f 85 7e 7f 7a 7f 7f 7f 7f 7f 7f 85 8a     .....~.z........
    3413:	87 79 6b 7f 7f 7f 7f 7f a8 b5 94 78 73 7f 7f 7f     .yk........xs...
    3423:	7f 7f 77 78 87 8f 8d 7f 7f 7f 7f 7f 59 63 9b ba     ..wx........Yc..
    3433:	a2 7f 7f 7f 7f 7f 99 8e 7a 73 83 7f 7f 7f 7f 7f     ........zs......
    3443:	59 50 50 5c a3 7f 7f 7f 7f 7f 7c 8b a0 90 7a 7f     YPP\......|...z.
    3453:	7f 7f 7f 7f 6b 56 50 4e 4c 7f 7f 7f 7f 7f 79 85     ....kVPNL.....y.
    3463:	7d 90 a4 7f 7f 7f 7f 7f 8d 7c 64 4e 46 7f 7f 7f     }........|dNF...
    3473:	7f 7f 7f 6e 7f 7d 81 7f 7f 7f 7f 7f 8d 8f 85 6b     ...n.}.........k
    3483:	4f 7f 7f 7f 7f 7f e3 95 6a 74 7d 7f 7f 7f 7f 7f     O.......jt}.....
    3493:	75 8f 95 82 69 7f 7f 7f 7f 7f e0 db 95 67 6f 7f     u...i........go.
    34a3:	7f 7f 7f 7f 73 7c 93 8f 7a 7f 7f 7f 7f 7f b1 ea     ....s|..z.......
    34b3:	c5 86 65 7f 7f 7f 7f 7f 8f 79 81 91 86 7f 7f 7f     ..e......y......
    34c3:	7f 7f 96 e9 e7 9f 6b 7f 7f 7f 7f 7f a2 7f 82 91     ......k.........
    34d3:	88 7f 7f 7f 7f 7f 91 e9 ed a7 73 7f 7f 7f 7f 7f     ..........s.....
    34e3:	a3 85 86 8f 81 7f 7f 7f 7f 7f ae f9 df 97 6e 7f     ..............n.
    34f3:	7f 7f 7f 7f 9b 89 8a 8b 6e 7f 7f 7f 7f 7f e3 f9     ........n.......
    3503:	bd 81 6e 7f 7f 7f 7f 7f 90 8c 8f 74 4e 7f 7f 7f     ..n........tN...
    3513:	7f 7f fc cd 96 76 63 7f 7f 7f 7f 7f 93 91 7a 49     .....vc.......zI
    3523:	24 7f 7f 7f 7f 7f d8 9c 7e 67 59 7f 7f 7f 7f 7f     $.......~gY.....
    3533:	94 78 4d 1f 16 7f 7f 7f 7f 7f a9 85 69 55 64 7f     .xM.........iUd.
    3543:	7f 7f 7f 7f 78 40 16 0e 23 7f 7f 7f 7f 7f 80 5a     ....x@..#......Z
    3553:	4f 6e 8f 7f 7f 7f 7f 7f 2c 09 08 48 a1 7f 7f 7f     On......,..H....
    3563:	7f 7f 53 55 78 9a 9f 7f 7f 7f 7f 7f 02 26 79 d1     ..SUx........&y.
    3573:	ef 7f 7f 7f 7f 7f 66 86 98 a8 aa 7f 7f 7f 7f 7f     ......f.........
    3583:	5a bd e8 eb d1 7f 7f 7f 7f 7f 8f a1 ad a3 74 7f     Z.............t.
    3593:	7f 7f 7f 7f d9 e9 db b4 7e 7f 7f 7f 7f 7f ad ac     ........~.......
    35a3:	81 39 0c 7f 7f 7f 7f 7f e4 bd 83 50 4d 7f 7f 7f     .9.........PM...
    35b3:	7f 7f 80 3c 12 20 52 7f 7f 7f 7f 7f 85 57 52 5b     ...<. R......WR[
    35c3:	66 7f 7f 7f 7f 7f 1c 3b 6a 93 b3 7f 7f 7f 7f 7f     f......;j.......
    35d3:	57 5a 64 8a a9 7f 7f 7f 7f 7f 7c 91 b7 d9 cb 7f     WZd.......|.....
    35e3:	7f 7f 7f 7f 70 9a 9d 78 52 7f 7f 7f 7f 7f c4 c6     ....p..xR.......
    35f3:	ae 8c 74 7f 7f 7f 7f 7f 82 66 57 5c 6c 7f 7f 7f     ..t......fW\l...
    3603:	7f 7f 98 7f 6c 59 57 7f 7f 7f 7f 7f 66 71 73 77     ....lYW.....fqsw
    3613:	8f 7f 7f 7f 7f 7f 6d 59 60 7b 86 7f 7f 7f 7f 7f     ......mY`{......
    3623:	71 81 9b a8 a3 7f 7f 7f 7f 7f 74 81 7f 78 74 7f     q.........t..xt.
    3633:	7f 7f 7f 7f 94 9b 95 8e 8c 7f 7f 7f 7f 7f 80 77     ...............w
    3643:	77 78 74 7f 7f 7f 7f 7f 8c 8f 8e 81 79 7f 7f 7f     wxt.........y...
    3653:	7f 7f 7f 76 72 75 76 7f 7f 7f 7f 7f 83 85 85 82     ...vruv.........
    3663:	82 7f 7f 7f 7f 7f 7a 78 77 77 7a 7f 7f 7f 7f 7f     ......zxwwz.....
    3673:	83 83 84 85 84 7f 7f 7f 7f 7f 7a 79 7a 7c 7e 7f     ..........zyz|~.
    3683:	7f 7f 7f 7f 82 84 83 82 81 7f 7f 7f 7f 7f 7b 7c     ..............{|
    3693:	7d 7e 7e 7f 7f 7f 7f 7f 82 81 81 80 7f 7f 7f 7f     }~~.............
    36a3:	7f 7f 7d 7e 7e 7f 7f 7f 7f 7f 7f 7f 81 80 7f 7e     ..}~~..........~
    36b3:	7d 7f 7f 7f 7f 7f 7e 7e 7f 7f 80 7f 7f 7f 7f 7f     }.....~~........
    36c3:	7f 7e 7e 7d 7d 7f 7f 7f 7f 7f 7f 7f 80 80 80 7f     .~~}}...........
    36d3:	7f 7f 7f 7f 7e 7e 7e 7e 7e 7f 7f 7f 7f 7f 80 80     ....~~~~~.......
    36e3:	80 80 80 7f 7f 7f 7f 7f 7f 7f 7f 7f 7f 7f 7f 7f     ................
    36f3:	7f 7f 80 80 80 80 7f 7f 7f 7f 7f 7f 7f 7f 7f 7f     ................
    3703:	7f 7f 7f 7f 7f 7f 80 80 80 80 7f 7f 7f 7f 7f 7f     ................
    3713:	7e 7f 7f 7f 7f 7f 7f 7f 7f 7f 7f 7f 7f 7f 7f 7f     ~...............
    3723:	7f 7f 7f 7f 7f 7e 7e 7e 7f 7f 7f 7f 7f 7f 7e 7e     .....~~~......~~
    3733:	7e 7e 7f 7f 7f 7f 7f 7f 7f 7f 7f 7f 7f 7f 7f 7f     ~~..............
    3743:	7f 7f 7f 7f 7f 7f 7f 7f 7f 7f 7f 7f 7f 7f 7f 7f     ................
    3753:	7f 7f 7f 7f 7f 7f 7f 7f 7f 7f 7f 7f 7f 7f 7f 7f     ................
    3763:	7f 7f 7f 80 7f 7f 7f 7f 7f 7f 7f 7f 7e 7f 7f 7f     ............~...
    3773:	7f 7f 7f 7f 7f 7e 80 80 7f 7f 7f 7f 7f 80 7f 80     .....~..........
    3783:	80 80 7f 7f 7f 7f 7f 7f 7f 80 7e 80 7f 7f 7f 7f     ..........~.....
    3793:	7f 7f 80 83 7d 7d 7f 7f 7f 7f 7f 81 7c 81 7e 7e     ....}}......|.~~
    37a3:	7f 7f 7f 7f 7f 80 7c 82 7c 7c 7f 7f 7f 7f 7f 7f     ......|.||......
    37b3:	7e 80 7e 7d 7f 7f 7f 7f 7f 7d 7e 7c 7b 7d 7f 7f     ~.~}.....}~|{}..
    37c3:	7f 7f 7f 80 7d 7a 80 7b 7f 7f 7f 7f 7f 80 81 80     ....}z.{........
    37d3:	83 7c 7f 7f 7f 7f 7f 7e 84 82 81 81 7f 7f 7f 7f     .|.....~........
    37e3:	7f 80 81 7c 80 7f 7f 7f 7f 7f 7f 80 81 7d 7c 80     ...|.........}|.
    37f3:	7f 7f 7f 7f 7f 7e 7b 7c 80 7f 7f 7f 7f 7f 7f 7f     .....~{|........
    3803:	7c 7f 7c 81 7f 7f 7f 7f 7f 7c 7f 7b 7f 83 7f 7f     |.|......|.{....
    3813:	7f 7f 7f 7f 7c 78 7f 7c 7f 7f 7f 7f 7f 7c 7b 7f     ....|x.|.....|{.
    3823:	79 7e 7f 7f 7f 7f 7f 7e 7e 81 7d 7e 7f 7f 7f 7f     y~.....~~.}~....
    3833:	7f 7e 7f 7e 7e 80 7f 7f 7f 7f 7f 79 83 84 7d 81     .~.~~......y..}.
    3843:	7f 7f 7f 7f 7f 80 83 83 7f 81 7f 7f 7f 7f 7f 7f     ................
    3853:	82 7d 7e 7e 7f 7f 7f 7f 7f 82 80 7c 7f 7e 7f 7f     .}~~.......|.~..
    3863:	7f 7f 7f 85 80 80 7f 7d 7f 7f 7f 7f 7f 7f 7e 81     .......}......~.
    3873:	7b 7d 7f 7f 7f 7f 7f 7f 7e 7a 80 7c 7f 7f 7f 7f     {}......~z.|....
    3883:	7f 7f 7d 7f 7c 7c 7f 7f 7f 7f 7f 7d 7e 80 7d 7e     ..}.||.....}~.}~
    3893:	7f 7f 7f 7f 7f 7e 7e 7e 7e 7c 7f 7f 7f 7f 7f 80     .....~~~~|......
    38a3:	7d 7f 7f 7f 7f 7f 7f 7f 7f 80 7f 82 7f 80 7f 7f     }...............
    38b3:	7f 7f 7f 81 7b 83 7e 83 7f 7f 7f 7f 7f 7f 7b 83     ....{.~.......{.
    38c3:	7f 82 7f 7f 7f 7f 7f 81 7d 7d 7d 7e 7f 7f 7f 7f     ........}}}~....
    38d3:	7f 83 80 84 81 83 7f 7f 7f 7f 7f 82 7f 81 7b 7c     ..............{|
    38e3:	7f 7f 7f 7f 7f 79 7c 7d 80 83 7f 7f 7f 7f 7f 8b     .....y|}........
    38f3:	8a 8b 89 87 7f 7f 7f 7f 7f 6d 6c 68 6b 69 7f 7f     .........mlhki..
    3903:	7f 7f 7f 91 94 91 91 8e 7f 7f 7f 7f 7f 87 81 79     ...............y
    3913:	70 67 7f 7f 7f 7f 7f 73 7e 98 92 9d 7f 7f 7f 7f     pg.....s~.......
    3923:	7f 84 84 89 8c 92 7f 7f 7f 7f 7f 63 61 60 60 70     ...........ca``p
    3933:	7f 7f 7f 7f 7f 90 8a 82 83 7e 7f 7f 7f 7f 7f 8a     .........~......
    3943:	7d 6b 67 63 7f 7f 7f 7f 7f 88 aa a0 a3 8f 7f 7f     }kgc............
    3953:	7f 7f 7f 82 90 95 98 8e 7f 7f 7f 7f 7f 6c 62 56     .............lbV
    3963:	4e 76 7f 7f 7f 7f 7f 82 73 6b 78 7c 7f 7f 7f 7f     Nv......skx|....
    3973:	7f 84 78 72 78 77 7f 7f 7f 7f 7f 58 87 a8 bb ad     ..xrxw.....X....
    3983:	7f 7f 7f 7f 7f 77 8f 92 9f 95 7f 7f 7f 7f 7f 80     .....w..........
    3993:	82 7c 6f 5b 7f 7f 7f 7f 7f c0 b1 92 71 63 7f 7f     .|o[........qc..
    39a3:	7f 7f 7f a6 98 87 7a 70 7f 7f 7f 7f 7f 76 5d 45     ......zp.....v]E
    39b3:	3a 41 7f 7f 7f 7f 7f 77 65 54 5f 7b 7f 7f 7f 7f     :A.....weT_{....
    39c3:	7f 7a 69 6d 71 88 7f 7f 7f 7f 7f 3d 37 44 9b a9     .zimq......=7D..
    39d3:	7f 7f 7f 7f 7f 4f 63 7b 95 a7 7f 7f 7f 7f 7f 68     .....Oc{.......h
    39e3:	74 8a 95 95 7f 7f 7f 7f 7f 42 8e 9d d9 ac 7f 7f     t........B......
    39f3:	7f 7f 7f 7f 8c ad a6 a4 7f 7f 7f 7f 7f 87 94 96     ................
    3a03:	8a 71 7f 7f 7f 7f 7f a9 b8 cb a5 8d 7f 7f 7f 7f     .q..............
    3a13:	7f a7 a1 a9 90 7f 7f 7f 7f 7f 7f 96 8d 7d 66 55     .............}fU
    3a23:	7f 7f 7f 7f 7f cc ad a9 77 68 7f 7f 7f 7f 7f 9d     ........wh......
    3a33:	a0 8c 7b 6d 7f 7f 7f 7f 7f 88 74 61 50 4c 7f 7f     ..{m......taPL..
    3a43:	7f 7f 7f a0 a7 6d 6d 5c 7f 7f 7f 7f 7f 9d 8b 76     .....mm\.......v
    3a53:	6e 6f 7f 7f 7f 7f 7f 77 5d 53 4b 4d 7f 7f 7f 7f     no.....w]SKM....
    3a63:	7f a3 79 6f 62 6a 7f 7f 7f 7f 7f 8c 79 71 71 76     ..yobj......yqqv
    3a73:	7f 7f 7f 7f 7f 62 53 50 4e 54 7f 7f 7f 7f 7f 89     .....bSPNT......
    3a83:	70 69 65 7e 7f 7f 7f 7f 7f 80 71 72 75 8a 7f 7f     pie~......qru...
    3a93:	7f 7f 7f 58 53 52 55 65 7f 7f 7f 7f 7f 73 70 64     ...XSRUe.....spd
    3aa3:	79 81 7f 7f 7f 7f 7f 77 72 77 80 90 7f 7f 7f 7f     y......wrw......
    3ab3:	7f 56 53 56 59 91 7f 7f 7f 7f 7f 74 6d 6e 83 8a     .VSVY......tmn..
    3ac3:	7f 7f 7f 7f 7f 72 74 77 8a 8b 7f 7f 7f 7f 7f 57     .....rtw.......W
    3ad3:	53 5a 64 9f 7f 7f 7f 7f 7f 73 69 79 84 96 7f 7f     SZd......siy....
    3ae3:	7f 7f 7f 72 79 7f 92 8e 7f 7f 7f 7f 7f 57 58 5d     ...ry........WX]
    3af3:	81 98 7f 7f 7f 7f 7f 72 69 85 85 9c 7f 7f 7f 7f     .......ri.......
    3b03:	7f 72 7d 87 91 8d 7f 7f 7f 7f 7f 56 59 63 95 9a     .r}........VYc..
    3b13:	7f 7f 7f 7f 7f 6d 74 86 8e 9a 7f 7f 7f 7f 7f 73     .....mt........s
    3b23:	7b 89 8c 88 7f 7f 7f 7f 7f 55 54 5e 92 96 7f 7f     {........UT^....
    3b33:	7f 7f 7f 6d 76 87 8a 97 7f 7f 7f 7f 7f 76 7b 87     ...mv........v{.
    3b43:	8a 8b 7f 7f 7f 7f 7f 57 56 59 80 99 7f 7f 7f 7f     .......WVY......
    3b53:	7f 70 74 88 88 9a 7f 7f 7f 7f 7f 77 78 85 89 8d     .pt........wx...
    3b63:	7f 7f 7f 7f 7f 5b 5b 59 72 99 7f 7f 7f 7f 7f 76     .....[[Yr......v
    3b73:	6d 88 84 9a 7f 7f 7f 7f 7f 75 78 80 86 8b 7f 7f     m........ux.....
    3b83:	7f 7f 7f 5d 5d 5c 5f 98 7f 7f 7f 7f 7f 7a 6e 7e     ...]]\_......zn~
    3b93:	82 92 7f 7f 7f 7f 7f 72 75 7b 87 8a 7f 7f 7f 7f     .......ru{......
    3ba3:	7f 5c 5c 5c 5c 7e 7f 7f 7f 7f 7f 7a 74 72 86 87     .\\\\~.....ztr..
    3bb3:	7f 7f 7f 7f 7f 76 76 77 86 87 7f 7f 7f 7f 7f 62     .....vvw.......b
    3bc3:	5d 5f 5d 67 7f 7f 7f 7f 7f 7b 7c 6c 81 7f 7f 7f     ]_]g.....{|l....
    3bd3:	7f 7f 7f 7d 74 76 7a 87 7f 7f 7f 7f 7f 63 5e 60     ...}tvz......c^`
    3be3:	5c 5b 7f 7f 7f 7f 7f 8c 7d 76 6f 81 7f 7f 7f 7f     \[......}vo.....
    3bf3:	7f 88 77 75 71 80 7f 7f 7f 7f 7f 69 61 5f 5d 5d     ..wuq......ia_]]
    3c03:	7f 7f 7f 7f 7f a1 7f 82 72 76 7f 7f 7f 7f 7f 8d     ........rv......
    3c13:	81 77 74 75 7f 7f 7f 7f 7f 70 66 62 5e 5f 7f 7f     .wtu.....pfb^_..
    3c23:	7f 7f 7f 93 9d 7d 81 6f 7f 7f 7f 7f 7f 93 8e 7c     .....}.o.......|
    3c33:	77 72 7f 7f 7f 7f 7f 7c 70 65 61 5f 7f 7f 7f 7f     wr.....|pea_....
    3c43:	7f aa 93 9a 81 81 7f 7f 7f 7f 7f 99 91 8e 7d 78     ..............}x
    3c53:	7f 7f 7f 7f 7f 84 7b 74 68 64 7f 7f 7f 7f 7f 8b     ......{thd......
    3c63:	ab 94 a1 83 7f 7f 7f 7f 7f 8c 99 90 91 81 7f 7f     ................
    3c73:	7f 7f 7f 87 85 7c 74 6a 7f 7f 7f 7f 7f 87 8c a7     .....|tj........
    3c83:	95 9e 7f 7f 7f 7f 7f 88 88 97 90 93 7f 7f 7f 7f     ................
    3c93:	7f 82 84 85 7d 77 7f 7f 7f 7f 7f 64 85 8a a5 93     ....}w.....d....
    3ca3:	7f 7f 7f 7f 7f 7c 87 88 93 8f 7f 7f 7f 7f 7f 78     .....|.........x
    3cb3:	7f 82 83 7d 7f 7f 7f 7f 7f 61 65 81 86 a0 7f 7f     ...}.....ae.....
    3cc3:	7f 7f 7f 7e 7b 85 86 91 7f 7f 7f 7f 7f 76 78 7e     ...~{........vx~
    3cd3:	80 82 7f 7f 7f 7f 7f 63 60 69 7e 89 7f 7f 7f 7f     .......c`i~.....
    3ce3:	7f 7e 7f 7c 83 86 7f 7f 7f 7f 7f 78 79 77 7d 7e     .~.|.......xyw}~
    3cf3:	7f 7f 7f 7f 7f 63 65 60 6b 7e 7f 7f 7f 7f 7f 8a     .....ce`k~......
    3d03:	81 7e 7d 81 7f 7f 7f 7f 7f 84 79 79 76 7b 7f 7f     .~}.......yyv{..
    3d13:	7f 7f 7f 69 65 63 65 70 7f 7f 7f 7f 7f 90 84 80     ...iecep........
    3d23:	7d 7e 7f 7f 7f 7f 7f 88 7e 7a 75 78 7f 7f 7f 7f     }~......~zux....
    3d33:	7f 6e 67 68 64 6b 7f 7f 7f 7f 7f 92 8c 84 81 7e     .nghdk.........~
    3d43:	7f 7f 7f 7f 7f 8b 86 7c 79 76 7f 7f 7f 7f 7f 6f     .......|yv.....o
    3d53:	6c 67 67 6a 7f 7f 7f 7f 7f 92 8e 87 83 82 7f 7f     lggj............
    3d63:	7f 7f 7f 8c 87 80 7a 78 7f 7f 7f 7f 7f 6f 6e 6b     ......zx.....onk
    3d73:	6c 6d 7f 7f 7f 7f 7f 93 92 8a 86 82 7f 7f 7f 7f     lm..............
    3d83:	7f 8b 89 80 7c 76 7f 7f 7f 7f 7f 71 6e 6d 70 70     ....|v.....qnmpp
    3d93:	7f 7f 7f 7f 7f 91 90 8b 8a 85 7f 7f 7f 7f 7f 8a     ................
    3da3:	88 83 7e 77 7f 7f 7f 7f 7f 6f 70 70 72 73 7f 7f     ..~w.....opprs..
    3db3:	7f 7f 7f 8e 8e 89 8a 85 7f 7f 7f 7f 7f 88 86 81     ................
    3dc3:	7d 77 7f 7f 7f 7f 7f 73 74 75 76 78 7f 7f 7f 7f     }w.....stuvx....
    3dd3:	7f 89 8b 8a 8a 89 7f 7f 7f 7f 7f 85 83 7f 7d 79     ..............}y
    3de3:	7f 7f 7f 7f 7f 74 74 76 77 79 7f 7f 7f 7f 7f 87     .....ttvwy......
    3df3:	86 88 87 87 7f 7f 7f 7f 7f 85 81 7f 7d 7a 7f 7f     ............}z..
    3e03:	7f 7f 7f 75 76 78 78 7a 7f 7f 7f 7f 7f 85 85 87     ...uvxxz........
    3e13:	85 85 7f 7f 7f 7f 7f 82 83 80 80 7d 7f 7f 7f 7f     ...........}....
    3e23:	7f 78 78 79 7a 7b 7f 7f 7f 7f 7f 82 82 84 83 85     .xxyz{..........
    3e33:	7f 7f 7f 7f 7f 81 82 80 80 7e 7f 7f 7f 7f 7f 7b     .........~.....{
    3e43:	7b 7b 7b 7c 7f 7f 7f 7f 7f 81 81 82 81 82 7f 7f     {{{|............
    3e53:	7f 7f 7f 81 81 81 81 80 7f 7f 7f 7f 7f 7d 7c 7c     .............}||
    3e63:	7b 7c 7f 7f 7f 7f 7f 7f 80 80 80 80 7f 7f 7f 7f     {|..............
    3e73:	7f 80 81 81 81 81 7f 7f 7f 7f 7f 7e 7e 7d 7d 7d     ...........~~}}}
    3e83:	7f 7f 7f 7f 7f 7e 7f 7f 7f 80 7f 7f 7f 7f 7f 80     .....~..........
    3e93:	80 80 80 80 7f 7f 7f 7f 7f 7f 7f 7f 7e 7e 7f 7f     ............~~..
    3ea3:	7f 7f 7f 7f 7f 7f 7f 7f 7f 7f 7f 7f 7f 80 80 80     ................
    3eb3:	80 7f 7f 7f 7f 7f 7f 7f 7f 7f 7f 7f 7f 7f 7f 7f     ................
    3ec3:	7f 7f 7f 7f 7f 7f 7f 7f 7f 7f 7f 7f 7f 7f 7f 7f     ................
    3ed3:	7f 7f 7f 7f 7f 7f 7f 7f 7f 7f 7f 7f 7f 7f 7f 7f     ................
    3ee3:	7f 7f 7f 7f 7f 7f 7f 7f 7f 7f 7f 7f 7f 7f 7f 7f     ................
    3ef3:	7f 7f 7f 7f 7f 7f 7f 7f 7f 7f 7f 7f 7f 7f 7f 7f     ................
    3f03:	7f 7f 7f 7f 7f 7f 7f 7f 7f 7f 7f 7f 7f 7f 7f 7f     ................
    3f13:	7f 7f 7f 7f 7f 7f 7f 7f 7f 7f 7f 7f 7f 7f 7f 7f     ................
    3f23:	7f 7f 7f 7f 7f 7f 7f 7f 7f 7f 7f 7f 7f 7f 7f 7f     ................
    3f33:	7f 7f 7f 7f 7f 7f 7f 7f 7f 7f 7f 7f 7f 7f 7f 7f     ................
    3f43:	7f 7f 7f 7f 7f 7f 7f 7f 7f 7f 7f 7f 7f 7f 7f 7f     ................
    3f53:	7f 7f 7f 7f 7f 7f 7f 7f 7f 7f 7f 7f 7f 7f 7f 7f     ................
    3f63:	7f 7f 7f 7f 7f 7f 7f 7f 7f 7f 7f 7f 7f 7f 7f 7f     ................
    3f73:	7f 7f 7f 7f 7f 7f 7f 7f 7f 7f 7f 7f 7f 7f 7f 7f     ................
    3f83:	7f 7f 7f 7f 7f 7f 7f 7f 7f 7f 7f 7f 7f 7f 7f 7f     ................
    3f93:	7f 7f 7f 7f 7f 7f 7f 7f 7f 7f 7f 7f 7f 7f 7f 7f     ................
    3fa3:	7f 7f 7f 7f 7f 7f 7f 7f 7f 7f 7f 7f 7f 7f 7f 7f     ................
    3fb3:	7f 7f 7f 7f 7f 7f 7f 7f 7f 7f 7f 7f 7f 7f 7f 7f     ................
    3fc3:	7f 7f 7f 7f 7f 7f 7f 7f 7f 7f 7f 7f 7f 7f 7f 7f     ................
    3fd3:	7f 7f 7f 7f 7f 7f 7f 7f 7f 7f 7f 7f 7f 7f 7f 7f     ................
    3fe3:	7f 7f 7f 7f 7f 7f 7f 7f 7f 7f 7f 7f 7f 7f 7f 7f     ................
    3ff3:	7f 7f 7f 7f 7f 7f 7f 7f 7f 7f 7f 7f 7f 7f 7f 7f     ................
    4003:	7f 7f 7f 7f 7f 7f 7f 7f 7f 7f 7f 7f 7f 7f 7f 7f     ................
    4013:	7f 7f 7f 7f 7f 7f 7f 7f 7f 7f 7f 7f 7f 7f 7f 7f     ................
    4023:	7f 7f 7f 7f 7f 7f 7f 7f 7f 7f 7f 7f 7f 7f 7f 7f     ................
    4033:	7f 7f 7f 7f 7f 7f 7f 7f                             ........

0000403b <_ZL11Wave_cancel>:
    403b:	01 01 88 13 00 00 88 13 00 00 01 08 19 11 00 00     ................
    404b:	7f 7f 7f 7f 7f 7f 7f 7f 7f 7f 7f 7f 7f 7f 7f 7f     ................
    405b:	7f 7f 7f 7f 7f 7f 7f 7f 7f 7f 7f 7f 7f 7f 7f 7f     ................
    406b:	7f 7f 7f 7f 7f 7f 7f 7f 7f 7f 7f 7f 7f 7f 7f 7f     ................
    407b:	7f 7f 7f 7f 7f 7f 7f 7f 7f 7f 7f 7f 7f 7f 7f 7f     ................
    408b:	7f 7f 7f 7f 7f 7f 7f 7f 7f 7f 7f 7f 7f 7f 7f 7f     ................
    409b:	7f 7f 7f 7f 7f 7f 7f 7f 7f 7f 7f 7f 7f 7f 7f 7f     ................
    40ab:	7f 7f 7f 7f 7f 7f 7f 7f 7f 7f 7f 7f 7f 7f 7f 7f     ................
    40bb:	7f 7f 7f 7f 7f 7f 7f 7f 7f 7f 7f 7f 7f 7f 7f 7f     ................
    40cb:	7f 7f 7f 7f 7f 7f 7f 7f 7f 7f 7f 7f 7f 7f 7f 7f     ................
    40db:	7f 7f 7f 7f 7f 7f 7f 7f 7f 7f 7f 7f 7f 7f 7f 7f     ................
    40eb:	7f 7f 7f 7f 7f 7f 7f 7f 7f 7f 7f 7f 7f 7f 7f 7f     ................
    40fb:	7f 7f 7f 7f 7f 7f 7f 7f 7f 7f 7f 7f 7f 7f 7f 7f     ................
    410b:	7f 7f 7f 7f 7f 7f 7f 7f 7f 7f 7f 7f 7f 7f 7f 7f     ................
    411b:	7f 7f 7f 7f 7f 7f 7f 7f 7f 7f 7f 7f 7f 7f 7f 7f     ................
    412b:	7f 7f 7f 7f 7f 7f 7f 7f 7f 7f 7f 7f 7f 7f 7f 7f     ................
    413b:	7f 7f 7f 7f 7f 7f 7f 7f 7f 7f 7f 7f 7f 7f 7f 7f     ................
    414b:	7f 7f 7f 7f 7f 7f 7f 7f 7f 7f 7f 7f 7f 7f 7f 7f     ................
    415b:	7f 7f 7f 7f 7f 7f 7f 7f 7f 7f 7f 7f 7f 7f 7f 7f     ................
    416b:	7f 7f 7f 7f 7f 7f 7f 7f 7f 7f 7f 7f 7f 7f 7f 7f     ................
    417b:	7f 7f 7f 7f 7f 7f 7f 7f 7f 7f 7f 7f 7f 7f 7f 7f     ................
    418b:	7f 7f 7f 7f 7f 7f 7f 7f 7f 7f 7f 7f 7f 7f 7f 7f     ................
    419b:	7f 7f 7f 7f 7f 7f 7f 7f 7f 7f 7f 7f 7f 7f 7f 7f     ................
    41ab:	7f 7f 7f 7f 7f 7f 7f 7f 7f 7f 7f 7f 7f 7f 7f 7f     ................
    41bb:	7f 7f 7f 7f 7f 7f 7f 7f 7f 7f 7f 7f 7f 7f 7f 7f     ................
    41cb:	7f 7f 7f 7f 7f 7f 7f 7f 7f 7f 7f 7f 7f 7f 7f 7f     ................
    41db:	7f 7f 7f 7f 7f 7f 7f 7f 7f 7f 7f 7f 7f 7f 7f 7f     ................
    41eb:	7f 7f 7f 7f 7f 7f 7f 7f 7f 7f 7f 7f 7f 7f 7f 7f     ................
    41fb:	7f 7f 7f 7f 7f 7f 7f 7f 7f 7f 7f 7f 7f 7f 7f 7f     ................
    420b:	7f 7f 7f 7f 7f 7f 7f 7f 7f 7f 7f 7f 7f 7f 7f 7f     ................
    421b:	7f 7e 7f 7f 7f 80 80 7f 7f 7f 7f 7f 7f 7f 7f 7f     .~..............
    422b:	7f 7f 7f 7f 7f 7f 7f 7f 7f 7f 7e 80 7f 7f 7d 81     ..........~...}.
    423b:	80 7f 7f 7f 7f 7d 7f 80 7f 7f 7e 7f 7f 7f 80 7e     .....}....~....~
    424b:	7f 7f 7f 7f 7e 7f 7f 80 80 7e 80 7e 7e 7d 7e 7f     ....~....~.~~}~.
    425b:	7f 80 81 80 7f 7f 7f 80 7f 7f 7f 7f 7f 7e 7f 7f     .............~..
    426b:	80 80 80 7f 7f 7e 7e 7f 7f 7f 80 81 81 7f 7e 7d     .....~~.......~}
    427b:	7d 7f 7f 80 7f 80 81 80 7f 7f 7d 7d 7f 7f 7e 80     }.........}}..~.
    428b:	7f 7f 7f 7e 7d 7e 7f 7f 7e 7e 7f 7f 80 80 7e 80     ...~}~..~~....~.
    429b:	7f 7f 7e 7c 7e 7f 80 82 80 80 80 7f 7d 7b 7d 7f     ..~|~.......}{}.
    42ab:	80 80 82 81 7f 7f 7d 7d 7e 7f 80 7f 80 81 7f 7f     ......}}~.......
    42bb:	7f 7e 7f 7f 7f 7f 7d 7e 7f 7f 7f 80 7f 80 7f 80     .~....}~........
    42cb:	7d 7c 7f 80 80 7d 81 7f 7f 7d 7d 7e 7f 7f 7e 7f     }|...}...}}~..~.
    42db:	7f 80 7f 7c 7e 7e 7f 7f 7f 81 7f 7f 7e 7a 7c 7e     ...|~~......~z|~
    42eb:	7f 80 7d 7e 7f 7f 7f 7d 7d 7e 7f 7f 7f 7c 7e 7f     ..}~...}}~...|~.
    42fb:	7f 7f 7c 7e 7f 7f 80 7c 7f 7f 7f 80 81 80 80 80     ..|~...|........
    430b:	7e 7e 7d 7e 7f 80 82 7f 7f 7f 7d 7d 7d 7f 7f 7f     ~~}~......}}}...
    431b:	7f 7d 80 7e 7d 7d 7f 7f 80 81 7d 81 7f 7f 7e 7a     .}.~}}....}...~z
    432b:	7c 80 7f 81 80 80 80 7f 7f 82 80 80 7f 80 80 81     |...............
    433b:	7f 7f 82 80 80 7f 7f 7f 7f 7f 80 7f 80 82 83 80     ................
    434b:	7f 7e 82 80 7f 7f 80 85 82 7f 7f 80 7e 7d 7f 7f     .~..........~}..
    435b:	7f 82 7f 80 7f 7f 80 7e 7e 80 83 7f 7f 7f 7f 80     .......~~.......
    436b:	80 7d 7f 7f 7f 84 7d 7f 7f 80 7f 7e 7e 80 7f 82     .}....}....~~...
    437b:	7e 80 7f 81 7f 7f 7f 7f 7f 80 7f 7f 7e 7d 84 7c     ~...........~}.|
    438b:	7f 80 7f 7e 7f 7f 7f 81 7e 81 7f 7f 80 7e 7e 80     ...~....~....~~.
    439b:	7f 7f 7f 7f 7f 7f 7d 7d 7e 7f 7f 7e 7f 7e 7f 7f     ......}}~..~.~..
    43ab:	7d 7c 7e 7e 7f 7c 83 7e 80 7f 80 81 80 7f 80 7f     }|~~.|.~........
    43bb:	82 7e 7f 7f 7d 80 7d 7f 80 81 85 81 80 7f 7d 85     .~..}.}.......}.
    43cb:	7f 80 7e 7b 7c 7e 7e 80 83 7e 81 7e 80 87 89 8a     ..~{|~~..~.~....
    43db:	81 7d 7c 7f 81 81 7d 74 71 75 7d 82 86 8b 85 80     .}|...}tqu}.....
    43eb:	80 85 95 8f 85 77 69 6b 7a 81 7a 6a 5d 6c 7b 83     .....wikz.zj]l{.
    43fb:	87 8a 86 81 7d 7f 84 8e 85 75 5d 40 69 7c 7c 68     ....}....u]@i||h
    440b:	4d 61 78 85 89 89 7f 80 7d 74 71 81 84 76 57 35     Max.....}tq..vW5
    441b:	57 76 7e 6d 41 5a 75 88 8b 82 79 7e 7f 74 66 74     Wv~mAZu...y~.tft
    442b:	7f 78 5e 31 4a 76 86 6d 48 52 73 89 90 7f 78 7c     .x^1Jv.mHRs...x|
    443b:	80 7d 5d 6f 7b 7b 62 36 4a 70 88 78 4a 4f 73 8b     .}]o{{b6Jp.xJOs.
    444b:	8e 80 75 7c 81 79 69 68 7b 80 6c 41 50 6f 8c 8f     ..u|.yih{.lAPo..
    445b:	53 5c 71 8a 99 87 7b 7b 81 84 6f 6f 79 83 7c 5d     S\q...{{..ooy.|]
    446b:	58 72 92 99 90 5b 75 90 99 9f 7d 7d 83 85 7f 75     Xr...[u...}}...u
    447b:	7a 86 8b 7c 6a 74 8f b9 af 88 74 8b b4 a5 90 7d     z..|jt....t....}
    448b:	82 90 86 81 7b 85 98 94 80 7a 8b af dc a9 82 89     ....{....z......
    449b:	a3 d4 95 84 81 88 97 82 7f 84 8e ae 88 81 85 9a     ................
    44ab:	c9 b1 8e 7e 8d cc a4 87 7a 7e 90 86 81 81 87 a0     ...~....z~......
    44bb:	92 83 7c 86 a1 a4 8b 6c 69 67 a9 86 6e 71 67 88     ..|....lig..nqg.
    44cb:	81 7b 83 83 91 82 76 77 72 8f 86 6f 4d 20 81 82     .{....vwr..oM ..
    44db:	70 5a 4e 74 7f 7d 7c 76 85 81 78 6c 63 76 80 78     pZNt.}|v..xlcv.x
    44eb:	56 33 48 7a 85 4f 54 51 7b 84 7a 7a 76 81 7e 6b     V3Hz.OTQ{.zzv.~k
    44fb:	69 69 7d 81 6c 57 53 71 93 7b 77 52 76 89 89 8b     ii}.lWSq.{wRv...
    450b:	78 7f 81 76 77 6c 7b 86 84 81 68 74 91 b9 b8 88     x..vwl{...ht....
    451b:	73 89 aa 9d 89 7f 81 85 7f 7b 7b 85 95 98 81 7b     s........{{....{
    452b:	8a ad de b5 7e 80 b6 ab a0 82 7c 85 80 85 7c 80     ....~.....|...|.
    453b:	94 9c 95 81 80 9b c2 b2 8f 71 81 be a1 8a 79 79     .........q....yy
    454b:	77 85 7e 7f 8b 93 94 84 79 81 8f a7 8a 6a 45 83     w.~.....y....jE.
    455b:	86 8e 77 60 77 75 81 80 7c 96 88 84 79 6d 6b 86     ..w`wu..|...ymk.
    456b:	86 6f 49 1a 59 81 72 5c 4e 6e 7f 82 77 8d 7e 84     .oI.Y.r\Nn..w.~.
    457b:	7a 69 63 70 7f 79 52 33 45 6f 79 6e 26 6b 78 81     zicp.yR3Eoyn&kx.
    458b:	89 7a 86 80 7b 6d 6a 6c 7b 82 73 49 4f 6f 96 7f     .z..{mjl{.sIOo..
    459b:	6a 4f 78 85 95 7b 8a 7e 7d 76 62 72 7a 84 89 7a     jOx..{.~}vbrz..z
    45ab:	60 72 93 c2 bb 6c 74 8c 8a a1 7d 83 7f 7b 66 73     `r...lt...}..{fs
    45bb:	7b 85 90 97 7d 78 91 b7 e9 a8 77 89 a8 95 8f 80     {...}x....w.....
    45cb:	7d 78 7f 6c 7d 84 94 91 92 7e 86 b3 d6 bb 8d 8a     }x.l}....~......
    45db:	9b c2 90 81 7b 7f 6e 7e 7a 85 88 a0 8a 84 7d 95     ....{.n~z.....}.
    45eb:	c9 b3 8f 6a a1 b3 a0 85 80 6e 7f 78 7d 82 96 89     ...j.....n.x}...
    45fb:	8e 83 7a 74 a2 a8 8d 69 44 a7 a1 88 75 80 6f 7c     ..zt...iD...u.o|
    460b:	7e 83 89 a5 85 82 78 77 6c 90 8c 6c 3b 1c 9a 89     ~.....xwl..l;...
    461b:	74 64 80 76 7f 7f 8c 91 95 81 7c 69 6d 78 84 6c     td.v......|imx.l
    462b:	44 10 52 89 73 59 56 83 7c 7f 80 a0 88 84 7b 78     D.R.sYV.|.....{x
    463b:	59 73 7f 77 43 19 3b 7a 6f 60 44 71 81 83 7b 81     Ys.wC.;zo`Dq..{.
    464b:	96 83 79 75 74 6c 7c 7e 5e 1d 40 6c 7d 48 50 5e     ..yutl|~^.@l}HP^
    465b:	7c 7c 86 7a 85 86 79 6f 6d 72 79 7f 6c 3c 3c 6c     ||.z..yomry.l<<l
    466b:	8d 5b 33 60 79 7f 7e 84 7c 85 77 75 69 75 7c 84     .[3`y.~.|.wuiu|.
    467b:	79 4c 48 6b 96 76 2f 5b 75 83 77 7f 7b 81 77 6e     yLHk.v/[u.w.{.wn
    468b:	68 73 7c 85 81 54 4c 6b 98 88 36 58 74 86 76 7a     hs|..TLk..6Xt.vz
    469b:	7e 7f 77 68 6c 71 7c 83 86 5f 50 6c 99 9b 47 58     ~.whlq|.._Pl..GX
    46ab:	73 8a 7b 76 80 7e 7a 66 6d 71 7b 83 88 69 53 6d     s.{v.~zfmq{..iSm
    46bb:	99 a9 57 57 73 8d 85 76 81 7e 7c 68 6d 72 7a 83     ..WWs..v.~|hmrz.
    46cb:	88 6b 54 6d 98 af 65 57 72 8f 90 7b 80 7d 7e 6e     .kTm..eWr..{.}~n
    46db:	6b 73 7a 84 86 6a 52 6c 98 ab 6b 59 71 90 97 82     ksz..jRl..kYq...
    46eb:	7e 7d 7f 74 6d 73 7a 84 84 66 53 6d 97 a6 74 5e     ~}.tmsz..fSm..t^
    46fb:	72 90 9c 8f 82 7e 7f 7b 78 77 7b 84 84 67 5a 70     r....~.{xw{..gZp
    470b:	94 a3 8a 6f 75 8e a2 a8 8f 81 7e 80 86 7f 7d 82     ...ou.....~...}.
    471b:	82 6f 64 72 90 a3 9f 7c 78 8b a5 bb 9c 85 7a 7c     .odr...|x.....z|
    472b:	88 85 81 7d 78 64 60 72 8e a0 98 76 77 8b a8 c1     ...}xd`r...vw...
    473b:	a0 86 7a 80 90 8b 82 7c 73 5b 5c 73 8c 9a 8a 71     ..z....|s[\s...q
    474b:	77 8b a9 c1 a1 85 7b 83 93 8c 82 7c 6f 54 59 73     w.....{....|oTYs
    475b:	8b 93 80 6d 76 8c a9 c0 9f 85 7d 85 92 8b 82 7b     ...mv.....}....{
    476b:	6c 51 5a 74 8a 8f 7b 6c 77 8c a8 bd 9d 84 7d 85     lQZt..{lw.....}.
    477b:	91 8a 82 7b 6b 51 5b 75 89 8e 7c 6e 77 8b a8 be     ...{kQ[u..|nw...
    478b:	9d 84 7d 85 91 8b 82 7a 6b 52 5d 76 88 8d 7d 6f     ..}....zkR]v..}o
    479b:	78 8b a6 bd 9d 84 7d 83 90 8a 82 7a 6a 53 5f 76     x.....}....zjS_v
    47ab:	88 8e 81 73 79 8a a5 bd 9e 85 7c 81 8e 8b 83 7a     ...sy.....|....z
    47bb:	6b 57 63 77 87 8f 86 77 7a 89 a2 ba 9e 85 7b 7e     kWcw...wz.....{~
    47cb:	8a 8a 83 7a 6d 5b 66 77 88 92 8e 7c 7b 87 9f b8     ...zm[fw...|{...
    47db:	9f 86 79 79 84 88 82 7a 6e 60 69 78 88 95 96 82     ..yy...zn`ix....
    47eb:	7c 86 9c b4 9f 87 78 75 7d 85 82 7b 71 64 6c 78     |.....xu}..{qdlx
    47fb:	88 97 9d 88 7e 83 95 ad 9d 87 76 6e 74 80 81 7c     ....~.....vnt..|
    480b:	72 69 6f 7a 87 97 a2 8e 81 80 8c a2 99 87 75 66     rioz..........uf
    481b:	65 79 7f 7d 74 69 72 7b 85 94 a2 91 83 7c 80 90     ey.}tir{.....|..
    482b:	92 86 76 64 5a 71 7d 7f 79 71 76 7c 83 8e 9c 92     ..vdZq}.yqv|....
    483b:	84 7a 75 7a 85 83 78 67 5a 6d 7c 81 80 7b 7b 7e     .zuz..xgZm|..{{~
    484b:	81 86 8b 88 82 7b 74 70 79 7e 7e 78 6e 74 7c 82     .....{tpy~~xnt|.
    485b:	86 88 83 7f 7f 80 82 81 80 7e 7b 78 7b 7e 80 81     .........~{x{~..
    486b:	81 7f 7f 80 82 84 82 80 7e 7e 7d 7e 7f 7f 7f 7d     ........~~}~...}
    487b:	7d 7e 80 82 83 81 7f 7f 7f 81 80 7f 7f 7f 7f 7f     }~..............
    488b:	7f 7f 7f 80 7f 7f 7f 80 81 81 80 7e 7d 7e 7f 7f     ...........~}~..
    489b:	7f 7d 7b 7b 7d 81 80 7b 7b 7e 80 80 7f 7e 7f 7f     .}{{}..{{~...~..
    48ab:	7f 7c 7e 7e 80 7f 7f 7d 7e 80 81 82 81 7f 80 83     .|~~...}~.......
    48bb:	81 80 80 7f 81 80 80 7f 7f 7f 79 7d 7f 7f 83 80     ..........y}....
    48cb:	7f 7f 7f 7f 7e 83 7f 80 79 82 7f 7e 7f 7c 85 7c     ....~...y..~.|.|
    48db:	7e 7e 7f 7a 82 81 81 82 81 83 80 7f 80 75 79 7e     ~~.z.........uy~
    48eb:	7f 7d 84 7f 80 7f 81 76 84 80 80 7d 7d 7f 7f 7d     .}.....v...}}..}
    48fb:	81 7b 78 7f 7f 83 7e 85 7f 80 82 84 85 7f 7f 7b     .{x...~........{
    490b:	7d 77 7f 80 78 91 7e 7e 80 88 84 82 80 81 7e 80     }w..x.~~......~.
    491b:	85 80 81 82 80 7d 7e 7f 82 76 7b 82 80 86 68 7b     .....}~..v{...h{
    492b:	81 81 89 70 81 80 7e 86 75 6f 7f 7f 85 8a 7f 7e     ...p..~.uo.....~
    493b:	81 82 72 84 80 81 7e 7e 80 7f 82 76 97 82 7e 7e     ..r...~~...v..~~
    494b:	7e 7b 85 7f 7f 7d 7a 7b 7e 7f 82 7f 7f 7f 7e 75     ~{...}z{~.....~u
    495b:	89 77 7e 7f 83 79 83 7f 7f 81 76 83 7f 82 7c 84     .w~..y....v...|.
    496b:	84 7e 7c 7d 83 7b 7e 7e 7e 7d 7c 7e 80 77 86 80     .~|}.{~~~}|~.w..
    497b:	7f 80 85 77 7d 80 7f 7f 88 7b 7d 81 87 75 86 82     ...w}....{}..u..
    498b:	81 83 81 7d 7f 80 77 91 79 7e 7e 86 74 7c 7e 7d     ...}..w.y~~.t|~}
    499b:	85 7e 7c 7f 7c 86 79 79 81 7e 7e 84 80 7e 7f 83     .~|.|.yy.~~..~..
    49ab:	7c 84 80 80 84 7e 79 7f 7f 79 86 80 7f 7c 7d 86     |....~y..y...|}.
    49bb:	76 7f 7c 86 6d 7f 7f 80 7d 81 7e 7e 7f 85 82 7d     v.|.m...}.~~...}
    49cb:	7f 7e 83 78 86 7e 7c 81 80 7f 7e 7e 7b 84 71 81     .~.x.~|...~~{.q.
    49db:	80 8d 6e 85 81 80 7a 85 7b 7e 7f 87 74 78 7d 7c     ..n...z.{~..tx}|
    49eb:	8a 72 79 80 81 7e 87 72 81 81 7e 86 80 7e 80 84     .ry..~.r..~..~..
    49fb:	72 86 82 81 7e 6f 82 82 83 7b 85 7e 81 7e 82 83     r...~o...{.~.~..
    4a0b:	81 7f 7e 81 7e 83 7e 7c 80 88 84 7f 80 81 7f 85     ..~.~.~|........
    4a1b:	80 81 79 80 7f 7d 7e 75 82 7b 7e 7c 7e 84 78 82     ..y..}~u.{~|~.x.
    4a2b:	82 87 6e 89 80 82 7c 83 81 7e 7d 84 67 78 7f 81     ..n...|..~}.gx..
    4a3b:	88 72 84 7c 7c 82 79 81 81 81 7d 8e 79 7e 7e 76     .r.||.y...}.y~~v
    4a4b:	82 81 7e 7c 85 7c 7d 7e 80 82 75 83 7e 7c 7b 87     ..~|.|}~..u.~|{.
    4a5b:	84 7f 80 79 83 80 7d 7e 91 77 84 81 80 84 7a 82     ...y..}~.w....z.
    4a6b:	80 7d 79 89 7a 80 81 87 74 7f 7f 7f 82 94 82 7e     .}y.z...t......~
    4a7b:	7e 7d 82 88 81 80 81 84 7a 7f 7e 80 77 80 80 80     ~}......z.~.w...
    4a8b:	80 80 85 82 81 81 81 85 7e 7e 8a 78 89 80 7c 7b     ........~~.x..|{
    4a9b:	7d 7e 7e 80 7c 7e 7d 80 7f 79 7b 7e 81 81 7e 7e     }~~.|~}..y{~..~~
    4aab:	7a 81 80 7a 8e 75 81 84 6d 99 73 83 87 6b a4 67     z..z.u..m.s..k.g
    4abb:	83 85 74 97 73 80 81 7d 89 77 81 83 71 98 75 82     ..t.s..}.w..q.u.
    4acb:	82 7e 82 79 81 80 7d 86 7e 80 82 71 8c 75 81 81     .~.y..}.~..q.u..
    4adb:	76 87 72 82 80 7a 87 80 7e 7f 79 87 70 81 7e 7c     v.r..z..~.y.p.~|
    4aeb:	83 82 7e 7f 7f 83 7f 7f 7e 7e 80 7d 80 7e 7d 7e     ..~.....~~.}.~}~
    4afb:	81 7d 7d 83 81 7a 7f 7e 81 81 7d 80 80 7d 76 7e     .}}..z.~..}..}v~
    4b0b:	7f 7e 7b 7a 82 7f 7e 83 77 82 80 7f 81 7e 7d 7f     .~{z..~.w....~}.
    4b1b:	7e 7f 7e 7e 80 7d 7f 81 80 7e 80 7e 7f 7f 7e 7f     ~.~~.}...~.~..~.
    4b2b:	7f 82 7d 7f 7f 7d 85 83 7f 7f 7e 7b 81 7f 7f 7f     ..}..}....~{....
    4b3b:	7f 7f 7e 7f 7f 82 83 7e 7f 7f 7e 80 7f 7e 82 80     ..~....~..~..~..
    4b4b:	81 7f 7f 80 82 7f 7f 7f 7e 84 7f 7f 7f 80 7f 7f     ........~.......
    4b5b:	7f 7f 7e 80 7f 7f 7f 80 81 7e 7f 80 81 84 80 7f     ..~......~......
    4b6b:	7e 7e 80 7e 7f 7f 7d 79 78 7c 82 8a 8e 81 7e 82     ~~.~..}yx|....~.
    4b7b:	8e 9b 8e 82 7e 7f 83 81 7f 80 86 8e 85 80 80 86     ....~...........
    4b8b:	92 8d 84 78 6a 5b 6d 7f 79 68 58 67 7b 7f 78 6d     ...xj[m.yhXg{.xm
    4b9b:	71 7d 7e 73 65 6e 7d 7e 76 6f 77 7f 7d 7a 80 87     q}~sen}~vow.}z..
    4bab:	84 75 5e 4b 71 84 73 61 50 6d 80 7a 6f 6c 7b 82     .u^Kq.saPm.zol{.
    4bbb:	77 66 5d 75 80 7a 73 77 81 81 7c 7b 89 8d 85 75     wf]u.zsw..|{...u
    4bcb:	5f 56 75 85 73 62 60 76 80 7a 73 7c 83 83 78 6a     _Vu.sb`v.zs|..xj
    4bdb:	69 7b 81 7b 74 7c 85 81 7c 7d 8b 8d 84 77 68 59     i{.{t|..|}...whY
    4beb:	6c 7c 7a 5e 57 73 7d 7f 73 70 82 81 7b 6f 66 77     l|z^Ws}.sp..{ofw
    4bfb:	7f 7d 74 6e 7e 81 7c 7a 7e 86 83 7a 6e 64 6d 79     .}tn~.|z~..zndmy
    4c0b:	87 8d 62 5e 79 84 89 7b 73 7d 7d 75 6d 71 7c 80     ..b^y..{s}}umq|.
    4c1b:	7d 77 77 7d 7e 76 72 7b 7f 7d 73 6b 73 7b 85 9b     }ww}~vr{.}sks{..
    4c2b:	ae 8d 78 8d 9b 95 84 7e 83 84 6d 6e 7b 84 8a 83     ..x....~..mn{...
    4c3b:	7b 7d 81 84 7d 76 7c 81 7f 74 73 7c 82 8a 97 95     {}..}v|..ts|....
    4c4b:	88 76 85 be a8 84 7e 80 8d 89 7e 86 93 90 85 80     .v....~...~.....
    4c5b:	80 87 88 84 80 80 8b 90 81 7d 82 8a 91 88 82 79     .........}.....y
    4c6b:	61 47 66 82 70 57 69 80 7f 7d 74 85 95 84 7d 7e     aGf.pWi..}t...}~
    4c7b:	7a 81 82 7c 7c 7b 81 82 7b 7c 89 89 82 7c 76 6e     z..||{..{|...|vn
    4c8b:	70 78 8b 9d 85 5f 73 87 7f 7e 7e 7d 80 70 5b 75     px..._s..~~}.p[u
    4c9b:	7f 7f 84 7c 77 7d 80 7e 78 75 7c 80 76 6e 78 7d     ...|w}.~xu|.vnx}
    4cab:	82 8d 9b 97 88 76 84 c0 ac 84 80 7e 75 81 80 83     .....v.....~u...
    4cbb:	93 8e 7b 7f 7c 7d 8f 88 7f 80 83 8d 8b 80 82 8c     ..{.|}..........
    4ccb:	8b 84 82 7b 6f 5a 61 78 7d 56 37 6d 7f 80 84 78     ...{oZax}V7m...x
    4cdb:	79 81 7a 77 84 7e 7c 81 75 6a 7c 80 7d 77 6e 7a     y.zw.~|.uj|.}wnz
    4ceb:	81 7a 76 77 77 7b 84 91 a9 9b 82 87 ac af 83 7f     .zvww{..........
    4cfb:	7d 7e 8a 83 7c 84 84 80 86 81 80 8d 92 7e 7d 82     }~..|........~}.
    4d0b:	84 88 80 7d 83 89 88 87 82 7a 6c 57 69 80 74 55     ...}.....zlWi.tU
    4d1b:	59 7d 7f 81 7f 71 7b 81 7a 77 7a 79 7d 7e 72 6f     Y}...q{.zwzy}~ro
    4d2b:	81 81 7d 7c 7a 7f 81 7b 75 77 79 7c 84 93 a4 93     ..}|z..{uwy|....
    4d3b:	7e 8a a7 a4 80 7f 7d 7c 8b 85 7d 84 8a 89 84 80     ~.....}|..}.....
    4d4b:	80 8c 90 7d 7c 82 82 81 7e 7d 82 8a 8a 84 82 7a     ...}|...~}.....z
    4d5b:	6a 59 6c 80 74 58 5a 7d 80 81 83 74 76 80 7a 6f     jYl.tXZ}...tv.zo
    4d6b:	70 7d 7f 7e 75 6d 7d 81 7b 7a 80 84 81 7c 76 73     p}.~um}.{z...|vs
    4d7b:	78 7d 83 92 a3 93 80 87 a7 b2 86 7e 7e 7b 85 8a     x}.........~~{..
    4d8b:	80 82 93 97 82 7e 81 87 8f 84 7e 83 89 84 7b 7d     .....~....~...{}
    4d9b:	81 87 8b 86 81 7c 71 61 69 7a 7d 5e 43 6c 7e 7f     .....|qaiz}^Cl~.
    4dab:	83 85 79 7c 7f 70 5e 73 7f 7c 77 74 79 7f 7d 74     ..y|.p^s.|wty.}t
    4dbb:	6f 7d 81 7c 76 73 79 7d 82 89 93 8f 84 7b 89 b3     o}.|vsy}.....{..
    4dcb:	a1 84 7e 80 7b 7f 81 7c 7f 95 92 82 7f 89 90 86     ..~.{..|........
    4ddb:	80 7f 85 8f 87 80 81 89 90 86 81 7d 76 6e 72 7a     ...........}vnrz
    4deb:	86 85 65 5f 77 84 7f 7e 81 7f 82 87 7a 6f 7a 82     ..e_w..~....zoz.
    4dfb:	7a 6b 75 7d 7f 7b 73 76 7d 7f 78 6d 75 7d 81 85     zku}.{sv}.xmu}..
    4e0b:	8c 8a 83 79 6d 7b 93 88 76 74 7f 80 7f 7e 76 74     ...ym{..vt...~vt
    4e1b:	83 83 79 77 87 8b 82 7e 7f 85 85 81 7d 7f 89 89     ..yw...~....}...
    4e2b:	82 7c 7b 78 78 7c 84 90 98 80 7a 89 98 92 80 7f     .|{xx|....z.....
    4e3b:	7f 82 8b 84 7d 84 8e 8a 7a 7c 82 83 7f 7c 7d 81     ....}...z|...|}.
    4e4b:	83 7d 78 7c 82 84 85 83 81 7c 72 64 70 7e 79 60     .}x|.....|rdp~y`
    4e5b:	53 73 7f 7f 7f 7d 7a 7e 7e 72 66 78 80 7b 74 76     Ss...}z~~rfx.{tv
    4e6b:	80 80 7d 79 79 7f 80 7c 76 75 7c 7e 81 89 93 8d     ..}yy..|vu|~....
    4e7b:	83 7d 8a a8 9b 84 7e 81 80 7e 7f 7e 7e 8a 8b 82     .}....~..~.~~...
    4e8b:	7f 89 94 87 7f 80 85 87 82 7f 80 85 8c 86 80 7e     ...............~
    4e9b:	7a 73 75 7c 84 8b 82 70 78 87 8a 81 7e 7f 7f 81     zsu|...px...~...
    4eab:	84 7d 7c 83 84 79 75 7c 81 7e 79 7b 7e 7f 7e 78     .}|..yu|.~y{~.~x
    4ebb:	78 7d 81 82 83 84 81 7b 71 69 79 82 78 67 64 7a     x}.....{qiy.xgdz
    4ecb:	7f 7f 80 7b 7b 7f 7d 74 71 7f 81 7c 79 7d 82 80     ...{{.}tq..|y}..
    4edb:	7e 7d 7e 82 81 7c 79 79 7d 7e 81 88 91 8a 81 80     ~}~..|yy}~......
    4eeb:	90 a4 90 81 7e 7d 7c 7f 80 7f 84 8d 87 80 81 88     ....~}|.........
    4efb:	8c 83 7f 80 82 83 7f 7e 81 85 88 83 80 7e 7a 73     .......~.....~zs
    4f0b:	76 7c 82 81 71 6e 7a 83 84 83 81 7f 7f 80 7d 7a     v|..qnz.......}z
    4f1b:	7d 80 7e 76 78 7d 80 7f 7c 7d 7f 7f 7c 76 79 7e     }.~vx}..|}..|vy~
    4f2b:	80 81 84 84 81 7c 76 77 82 82 7a 72 73 7b 7e 80     .....|vw..zrs{~.
    4f3b:	80 7e 7f 80 7d 7a 7d 82 81 7d 7c 7c 7f 7f 7f 7f     .~..}z}..}||....
    4f4b:	83 83 80 7d 7c 7c 7d 7e 81 86 89 84 7f 81 8b 94     ...}||}~........
    4f5b:	88 80 7e 7c 7b 7d 7e 80 84 86 81 7f 80 83 86 82     ..~|{}~.........
    4f6b:	7f 7f 80 7e 7d 7e 80 84 87 81 7f 7e 79 74 7a 7e     ...~}~.....~ytz~
    4f7b:	7f 7a 71 75 7c 81 84 85 81 7f 7f 7c 79 7b 7f 7f     .zqu|......|y{..
    4f8b:	7c 78 7b 7e 80 7f 7d 7f 7f 7e 7a 75 7a 7e 80 81     |x{~..}..~zuz~..
    4f9b:	84 83 80 7e 7d 7e 82 81 7c 77 76 7b 7e 80 80 81     ...~}~..|wv{~...
    4fab:	81 80 7e 7f 82 82 80 7e 7c 7c 7f 7f 7f 82 85 83     ..~....~||......
    4fbb:	80 7e 7c 7b 7d 7e 80 81 82 80 7e 81 86 8b 85 80     .~|{}~....~.....
    4fcb:	7d 7b 7b 7d 7e 80 81 81 7f 7f 80 82 83 81 7f 7f     }{{}~...........
    4fdb:	7e 7c 7c 7e 80 82 84 82 80 7f 7e 7e 7e 7f 7f 7b     ~||~......~~~..{
    4feb:	77 7b 7e 80 83 86 82 80 7e 7d 7c 7e 7f 7f 7e 7c     w{~.....~}|~..~|
    4ffb:	7d 7f 7f 80 81 81 80 7e 7c 7a 7c 7e 80 81 82 80     }......~|z|~....
    500b:	7f 7f 7e 7f 80 80 7e 7b 7a 7c 7e 80 81 82 80 7f     ..~...~{z|~.....
    501b:	7f 7e 7e 80 7f 7f 7f 7d 7e 7f 7f 81 83 82 80 7e     .~~....}~......~
    502b:	7c 7a 7c 7e 7f 80 81 7f 7f 80 81 82 81 80 7e 7d     |z|~..........~}
    503b:	7c 7d 7e 80 81 81 80 7f 7f 7f 80 7f 7f 7f 7e 7d     |}~...........~}
    504b:	7e 7f 80 81 83 81 80 7e 7e 7e 7e 7f 7f 7f 7d 7d     ~......~~~~...}}
    505b:	7f 7f 80 82 81 7f 7e 7e 7d 7e 7f 80 80 80 7f 7f     ......~~}~......
    506b:	7f 7e 80 80 7f 7f 7e 7c 7d 7e 80 81 81 80 7f 7f     .~....~|}~......
    507b:	7e 7f 80 7f 7f 7e 7d 7d 7f 7f 80 81 80 7f 7f 7e     ~....~}}.......~
    508b:	7e 7f 7f 7f 7f 7f 7f 7f 7f 80 81 80 7f 7f 7e 7d     ~.............~}
    509b:	7e 7f 7f 7f 80 7f 7f 7f 80 81 80 7f 7f 7e 7f 7f     ~............~..
    50ab:	7f 7f 7f 7f 7f 7f 7f 80 80 80 7f 7f 7f 7e 7f 7f     .............~..
    50bb:	7f 7f 80 7f 7f 7f 7f 7f 7f 7f 7f 7f 7f 7f 7f 7f     ................
    50cb:	7f 80 80 7f 7f 7f 7f 7f 7f 7f 7f 7f 7f 7f 7f 7f     ................
    50db:	80 7f 7f 7f 7f 7f 7f 7f 7f 7f 7f 7f 7f 7f 7f 7f     ................
    50eb:	7f 7f 7f 7f 7f 7f 7f 7f 7f 7f 7f 7f 7f 7f 7f 7f     ................
    50fb:	7f 7f 7f 7f 7f 7f 7f 7f 7f 7f 7f 7f 7f 7f 7f 7f     ................
    510b:	7f 7f 7f 7f 7f 7f 7f 7f 7f 7f 7f 7f 7f 7f 7f 7f     ................
    511b:	7f 7e 7f 7f 7f 7f 7f 7f 7f 7f 7f 7e 7f 7f 7f 7f     .~.........~....
    512b:	7f 7f 7f 7f 7f 7f 7f 7f 7f 7f 7f 7f 7f 7f 7f 7f     ................
    513b:	7f 7f 7f 7f 7e 7f 7f 7f 7f 80 7f 7f 7f 7f 7f 7f     ....~...........
    514b:	7f 7f 7f 7f 7f 7f 7f 7f 7f 7f 7f 7f 7f 7f 7f 7f     ................
    515b:	7f 7f 7f 7f 7f 7f 7f 7f 7f 7f                       ..........

00005165 <_ZL9Wave_Over>:
    5165:	01 01 88 13 00 00 88 13 00 00 01 08 db 06 00 00     ................
    5175:	7f 7f 7f 7f 7f 7f 7f 7f 7f 7f 7f 7f 7f 7f 7f 7f     ................
    5185:	7f 7f 80 80 80 7f 7f 81 82 80 7f 80 81 82 80 7f     ................
    5195:	7f 81 83 81 7f 7f 7e 7e 7f 7f 7e 7b 7b 7e 80 7d     ......~~..~{{~.}
    51a5:	7a 7a 7e 80 7e 7c 7e 80 80 7e 7e 7d 7f 7f 7e 7a     zz~.~|~..~~}..~z
    51b5:	75 7a 7f 7d 79 74 7b 7f 7e 7b 79 7d 7f 7e 7c 79     uz.}yt{.~{y}.~|y
    51c5:	7a 7d 81 80 77 76 7b 84 85 75 70 7a 83 7f 73 77     z}..wv{..upz..sw
    51d5:	7d 82 87 8b 81 7d 87 97 9b 85 7d 84 8e 91 89 81     }....}....}.....
    51e5:	7d 7e 87 8c 85 78 7d 9e 9b 86 7c 89 97 89 80 7e     }~...x}...|....~
    51f5:	77 6a 77 80 79 71 79 85 82 7c 7f 88 88 81 80 8b     wjw.yqy..|......
    5205:	93 7c 7a 88 8f 76 75 7c 80 79 7f 8c 84 7a 83 96     .|z..vu|.y...z..
    5215:	88 7f 82 85 7d 7a 7d 82 80 6c 71 7c 7b 62 50 71     ....}z}..lq|{bPq
    5225:	7f 78 71 76 7a 7d 84 8d 7d 71 7b 83 7a 6b 74 7d     .xqvz}..}q{.zkt}
    5235:	7f 78 6e 76 80 7a 7c 8e 97 85 7e 8b 9d 87 7e 82     .xnv.z|...~...~.
    5245:	7f 6c 71 7e 7d 77 7d 86 81 7d 80 8b 8b 84 7c 8b     .lq~}w}..}....|.
    5255:	a4 8f 7d 8d 9f 95 79 7a 83 7e 7d 83 84 77 78 8c     ..}...yz.~}..wx.
    5265:	8f 82 80 87 90 87 7f 84 94 8f 74 79 84 6f 42 5f     ..........ty.oB_
    5275:	7d 77 61 6c 85 82 7f 91 a0 88 7d 85 87 77 74 7d     }wal......}..wt}
    5285:	7f 74 5e 6e 7f 74 5d 75 95 8c 71 7d 9d 96 80 84     .t^n.t]u..q}....
    5295:	83 64 60 77 80 6b 56 6d 7f 7b 76 7b 89 82 80 9b     .d`w.kVm.{v{....
    52a5:	b5 95 79 96 b4 a2 73 75 86 80 76 84 88 71 71 9e     ..y...su..v..qq.
    52b5:	a3 88 7c 89 99 8a 7e 83 81 5b 5c 77 77 4a 1e 59     ..|...~..[\wwJ.Y
    52c5:	83 70 62 74 88 7e 8d a5 a5 73 73 8e 92 70 6f 7c     .pbt.~...ss..po|
    52d5:	7d 74 7c 93 8b 71 89 d2 c6 8c 83 9e bd 88 7c 7d     }t|..q........|}
    52e5:	61 3c 5f 83 6b 52 55 88 84 79 7e 90 84 7a 92 a6     a<_.kRU..y~..z..
    52f5:	81 4d 69 95 88 4c 53 7c 7d 7c a3 b1 88 82 ac d2     .Mi..LS|}|......
    5305:	9d 7d 86 92 82 72 7e 7a 53 3e 71 8c 5f 39 61 9b     .}...r~zS>q._9a.
    5315:	8b 78 7f 86 6e 70 8f 87 39 45 75 7e 6a 60 7b 82     .x..np..9Eu~j`{.
    5325:	7d 88 bc a8 84 8f c8 f5 a1 78 91 9f 83 78 83 6a     }........x...x.j
    5335:	50 64 a2 90 6e 75 a5 94 81 83 88 73 5f 73 89 65     Pd..nu.....s_s.e
    5345:	16 33 73 78 59 41 7a 80 84 ac ce 9b 77 98 b0 9c     .3sxYAz.....w...
    5355:	6b 79 84 7d 70 7f 85 6e 61 88 b5 95 6a 79 b4 ac     ky.}p..na...jy..
    5365:	82 7f 7f 53 4d 76 7a 4c 2b 64 82 76 6d 7a 87 80     ...SMvzL+d.vmz..
    5375:	82 9a b1 91 75 99 c7 af 68 75 8b 88 77 8c 8a 70     ....u...hu..w..p
    5385:	6b b0 ad 88 7c 93 9c 8c 80 80 86 76 6d 79 81 57     k...|......vmy.W
    5395:	16 4e 7b 73 52 5d 76 80 84 9e a5 84 78 8e 98 7e     .N{sR]v.....x..~
    53a5:	70 7a 85 88 79 6f 7d 7b 6a 71 9d 8e 6e 73 b1 a3     pz..yo}{jq..ns..
    53b5:	87 7c 85 78 70 7a 83 6f 56 6f 7d 79 6b 5f 70 81     .|.xpz.oVo}yk_p.
    53c5:	71 6a 77 97 84 88 a7 c5 92 78 8e a3 90 73 7d 7c     qjw......x...s}|
    53d5:	6e 62 82 85 79 72 97 94 86 78 86 b3 a2 84 87 97     nb..yr...x......
    53e5:	84 65 72 88 77 42 5a 7c 7b 6c 74 91 84 7b 8b 99     .er.wBZ|{lt..{..
    53f5:	86 7c 89 9c 99 7d 79 91 a1 8d 6d 7a 7e 61 49 79     .|...}y...mz~aIy
    5405:	85 70 67 8b 92 83 7f 90 92 80 7e 7f 71 59 67 7b     .pg.......~.qYg{
    5415:	82 72 58 56 75 84 73 61 77 84 78 7e 9c 99 81 83     .rXVu.saw.x~....
    5425:	91 95 82 7e 81 85 8e 91 86 75 69 71 7c 83 74 59     ...~.....uiq|.tY
    5435:	48 68 7f 7a 70 73 86 80 81 85 89 7b 7c 83 8a 8c     Hh.zps.....{|...
    5445:	7e 7e 88 9d b1 9f 84 7b 82 94 92 86 74 68 5e 77     ~~.....{....th^w
    5455:	80 7a 71 7e 81 81 7d 81 7e 80 7d 84 88 85 78 78     .zq~..}.~.}...xx
    5465:	8e a9 ba 92 7f 85 92 91 8b 83 76 6a 5b 75 7f 7a     ..........vj[u.z
    5475:	76 86 87 82 7f 89 8b 87 7c 85 8f 83 73 76 90 a8     v.......|...sv..
    5485:	a8 86 7d 83 83 80 88 84 72 66 61 72 7d 80 81 79     ..}.....rfar}..y
    5495:	81 7f 81 85 8f 84 7e 82 8b 84 76 79 8b a0 a7 95     ......~...vy....
    54a5:	82 7f 85 8b 8c 84 75 69 68 74 7a 88 8f 7c 78 7d     ......uihtz..|x}
    54b5:	7d 76 7d 88 84 78 7d 8e 87 7f 87 96 a4 95 85 78     }v}..x}........x
    54c5:	7c 89 8c 80 7d 73 5c 69 7b 84 90 aa 96 82 81 8d     |...}s\i{.......
    54d5:	85 81 80 76 5d 5c 7d 84 7a 80 97 8d 82 78 66 55     ...v]\}.z....xfU
    54e5:	76 81 7d 80 86 72 76 8e 9c 97 8d 84 75 74 8b 93     v.}..rv.....ut..
    54f5:	83 7e 7e 6a 65 79 7e 6d 6b 85 85 78 7a 76 6f 77     .~~jey~mk..xzvow
    5505:	89 86 6f 72 7d 84 98 b2 98 82 7f 7e 74 75 7c 81     ..or}......~tu|.
    5515:	80 7f 80 7e 82 8f 9b 8c 82 7c 76 72 7b 7e 80 88     ...~.....|vr{~..
    5525:	94 89 80 81 86 8a 86 82 7a 72 6b 78 7e 80 85 8e     ........zrkx~...
    5535:	87 81 7f 80 84 87 82 7a 75 7c 7e 7e 82 87 85 80     .......zu|~~....
    5545:	80 7c 79 7b 83 81 7e 7f 81 7d 7e 81 83 85 84 81     .|y{..~..}~.....
    5555:	7d 80 85 83 7f 7e 7a 74 7c 80 7b 75 7c 85 81 7f     }....~zt|.{u|...
    5565:	84 83 7c 7e 7f 79 74 7d 80 7e 7f 7f 7b 7c 83 84     ..|~.yt}.~..{|..
    5575:	7f 7c 7e 7f 7f 7d 7d 7e 81 83 81 7d 7f 80 82 8a     .|~..}}~...}....
    5585:	88 81 7d 7c 77 78 7d 82 84 84 81 7f 81 87 8b 84     ..}|wx}.........
    5595:	80 7d 79 76 7c 7e 81 85 86 82 80 7e 7e 80 81 80     .}yv|~.....~~...
    55a5:	7d 7b 7a 7d 7e 81 86 89 84 80 7d 7b 7c 80 7f 7f     }{z}~.....}{|...
    55b5:	81 83 80 7e 80 82 84 84 81 7b 76 76 7d 7f 7e 7c     ...~.....{vv}.~|
    55c5:	79 7c 7e 80 81 81 7f 7f 7f 80 7f 7f 7f 7f 7f 7f     y|~.............
    55d5:	7f 7f 80 81 81 7f 7f 7f 7e 80 81 80 7d 7a 79 7b     ........~...}zy{
    55e5:	7e 80 81 80 80 7f 7f 80 80 7f 7f 7e 7b 78 7b 7e     ~..........~{x{~
    55f5:	82 86 8a 86 81 7d 7b 7a 7d 7f 7f 7e 7b 7b 7e 81     .....}{z}..~{{~.
    5605:	85 8a 85 81 7c 78 75 7a 7e 80 83 84 81 7f 7f 7f     ....|xuz~.......
    5615:	82 82 80 7d 79 77 79 7d 82 85 87 83 80 7e 7d 7e     ...}ywy}.....~}~
    5625:	7f 7f 7f 7f 7d 7d 7e 80 82 84 82 80 7e 7c 7c 7d     ....}}~.....~||}
    5635:	7e 80 81 81 80 7f 7f 81 84 80 7f 80 80 81 81 80     ~...............
    5645:	7e 7e 80 80 80 7e 7b 77 7b 7e 80 81 80 7f 7f 7f     ~~...~{w{~......
    5655:	7e 7c 7c 7e 80 81 81 80 7f 7f 80 81 80 7f 7e 7c     ~||~..........~|
    5665:	79 7b 7e 80 83 86 83 7f 7f 7e 7d 7e 7f 80 82 83     y{~......~}~....
    5675:	81 7f 80 83 87 84 80 7d 7a 7a 7e 7f 7f 7f 7d 7e     .......}zz~...}~
    5685:	7f 7e 7c 7a 7c 7e 80 80 7d 7c 7e 80 81 82 80 7f     .~|z|~..}|~.....
    5695:	7f 7e 7d 7e 7f 80 81 82 80 7f 7f 7f 7e 7d 7e 81     .~}~........~}~.
    56a5:	83 86 83 7f 80 83 86 83 80 7d 7c 7e 7f 7f 7f 7e     .........}|~...~
    56b5:	7f 82 81 7c 77 73 79 7e 7f 7c 79 7b 7e 81 82 80     ...|wsy~.|y{~...
    56c5:	7f 7f 7e 7d 7c 7d 7e 80 81 81 80 7f 7f 7f 7d 7d     ..~}|}~.......}}
    56d5:	7e 81 84 86 7f 7e 81 84 86 84 80 7f 81 84 82 80     ~....~..........
    56e5:	7e 80 88 86 81 7b 75 74 7d 80 7d 79 75 79 7e 7f     ~....{ut}.}yuy~.
    56f5:	7b 7a 7d 7f 7f 7d 79 7a 7d 81 81 81 7f 7f 7f 7e     {z}..}yz}......~
    5705:	7a 7b 7e 82 86 81 7a 7d 82 86 8c 86 7f 81 83 86     z{~...z}........
    5715:	85 80 80 87 8f 8a 83 7a 78 80 84 81 7b 75 76 7c     .......zx...{uv|
    5725:	7f 7d 7a 7b 7f 80 7d 79 73 78 7e 7f 7e 7a 7b 7e     .}z{..}ysx~.~z{~
    5735:	7f 7b 77 79 7d 83 83 77 76 7d 82 88 88 7f 7d 82     .{wy}..wv}....}.
    5745:	85 8a 83 7e 83 8c 94 8e 83 7d 80 87 87 82 7b 79     ...~.....}....{y
    5755:	7c 81 80 7d 7c 80 83 81 7c 77 74 7a 7f 7e 7a 78     |..}|...|wtz.~zx
    5765:	7c 7f 7d 79 74 77 7d 81 81 78 74 7c 82 83 81 7d     |.}ytw}..xt|...}
    5775:	7d 82 84 80 7d 7d 84 8d 94 8b 82 7e 82 88 87 81     }...}}.....~....
    5785:	7c 7c 81 81 80 7e 7f 88 87 82 7b 76 78 7f 80 7d     ||...~....{vx..}
    5795:	78 74 7c 7f 7d 79 74 7b 7f 7f 7d 7b 7d 7e 81 83     xt|.}yt{..}{}~..
    57a5:	7f 7e 7f 80 80 80 7c 7e 81 85 8b 86 81 7d 7a 7a     .~....|~.....}zz
    57b5:	7e 80 7d 79 79 7c 7e 7f 7f 7f 81 80 7c 77 74 7a     ~.}yy|~.....|wtz
    57c5:	7f 7f 7d 76 79 7e 80 7e 7a 7a 7d 81 82 81 7d 7e     ..}vy~.~zz}...}~
    57d5:	80 7f 84 83 7f 7f 7f 80 80 7f 80 82 84 84 81 7c     ...............|
    57e5:	79 76 7c 7f 7f 7c 77 79 7e 80 81 7f 7f 7f 7f 7c     yv|..|wy~......|
    57f5:	74 76 7d 80 7f 7c 7b 7d 82 84 83 7f 7e 81 86 86     tv}..|{}....~...
    5805:	81 7f 80 84 87 82 7f 81 82 81 81 7f 7f 82 87 82     ................
    5815:	80 7e 7c 7a 7d 7f 80 80 81 80 7f 7f 81 84 82 80     .~|z}...........
    5825:	7e 7d 7c 7e 7f 81 84 88 84 80 7f 83 86 83 80 7f     ~}|~............
    5835:	7f 81 81 7f 7e 7e 81 82 80 7d 7c 7e 82 81 7c 79     ....~~...}|~..|y
    5845:	80 84 80 7d 7a 7d 80 80 7d 7d 7f 80                 ...}z}..}}..

00005851 <_ZL9Wave_Game>:
    5851:	01 01 88 13 00 00 88 13 00 00 01 08 91 07 00 00     ................
    5861:	80 81 82 80 7f 7f 7e 7e 7f 7f 7f 80 80 7f 7f 7f     ......~~........
    5871:	7f 80 80 7f 7e 7d 7c 7d 7f 80 82 82 81 7f 7e 7d     ....~}|}......~}
    5881:	7d 7e 7f 7f 7f 7f 7e 7f 7f 80 81 81 7f 7e 7c 7b     }~....~......~|{
    5891:	7d 7f 80 81 81 80 7f 7f 7e 7e 7f 7f 7f 7f 80 7f     }.......~~......
    58a1:	7f 7f 7f 80 80 7f 7e 7d 7d 7d 7f 80 81 83 81 7f     ......~}}}......
    58b1:	7e 7d 7c 7e 7f 7f 80 7f 7f 7f 7f 80 80 80 7f 7e     ~}|~...........~
    58c1:	7d 7c 7d 7f 80 81 81 80 7f 7f 7d 7e 80 7e 7f 82     }|}.......}~.~..
    58d1:	7d 81 7f 80 7f 80 7f 80 7e 7d 7e 7d 7e 7f 83 80     }.......~}~}~...
    58e1:	82 80 7e 7d 7e 7d 7f 7f 7e 7d 80 7f 7f 80 80 82     ..~}~}..~}......
    58f1:	7f 7e 7e 7e 7c 7e 81 82 83 81 7f 7e 7e 7b 7d 7f     .~~~|~.....~~{}.
    5901:	80 7f 7e 82 7f 7e 80 85 80 7f 7d 7d 7b 7b 7e 80     ..~..~....}}{{~.
    5911:	86 85 85 80 7d 7c 79 7c 7e 7f 7d 79 7e 7e 81 85     ....}|y|~.}y~~..
    5921:	88 84 81 7c 77 70 7b 7d 82 85 86 82 7f 7f 80 82     ...|wp{}........
    5931:	84 80 7c 76 71 78 7d 83 8a 8e 86 81 7c 79 7b 7e     ..|vqx}.....|y{~
    5941:	7f 7d 7a 73 78 7d 82 8a 88 86 81 7c 78 75 79 7e     .}zsx}.....|xuy~
    5951:	81 82 80 7d 7e 82 8d 90 8c 82 7a 70 6a 74 7d 81     ...}~.....zpjt}.
    5961:	83 7e 7a 7e 85 89 94 8e 81 7a 75 78 7c 7f 81 85     .~z~.....zux|...
    5971:	8a 87 80 7d 7a 83 84 82 77 65 5c 66 7b 88 90 94     ...}z...we\f{...
    5981:	7c 7f 85 8b 9b 8e 83 79 6e 6e 79 7e 81 7b 8c 84     |......ynny~.{..
    5991:	83 79 6b 6e 77 7e 7d 6f 5b 62 78 8e a1 a8 91 82     .yknw~}o[bx.....
    59a1:	7c 8c 96 8f 85 7a 5d 74 72 7e 80 7d 7f 7d 7f 79     |....z]tr~.}.}.y
    59b1:	68 56 67 7b 84 7d 77 69 79 90 ac bc 99 85 78 72     hVg{.}wiy.....xr
    59c1:	79 8a 82 77 6f 66 77 7b 82 87 8a 81 7f 7b 7f 5b     y..wofw{.....{.[
    59d1:	6f 78 8a 94 8e 7f 7c 85 ac b4 a6 88 74 65 67 7a     ox....|.....tegz
    59e1:	7e 7d 6a 6c 75 7b 7e a0 86 8d 81 7c 75 6f 71 7b     ~}jlu{~....|uoq{
    59f1:	8b 9c ab 8f 80 7d 98 90 a0 86 70 58 54 73 7a 80     .....}....pXTsz.
    5a01:	8e 7a 74 7d 83 92 78 9e 7f 77 6e 7a 74 7e 82 92     .zt}..x..wnzt~..
    5a11:	a0 94 84 78 7c 77 93 81 72 59 4b 5e 79 84 97 83     ...x|w..rYK^y...
    5a21:	8a 7e 85 8b 90 94 7e 71 7f 66 71 7f 82 85 7c 8e     .~....~q.fq...|.
    5a31:	83 75 5b 65 7a 7f 74 6f 48 5e 77 8e a1 8b 8d 80     .u[ez.toH^w.....
    5a41:	7e 79 93 8b 81 79 75 64 6c 7d 87 85 8f 81 81 7d     ~y...yudl}.....}
    5a51:	68 60 62 7b 83 7d 58 6a 79 90 a2 b3 9b 81 7a 71     h`b{.}Xjy.....zq
    5a61:	77 6f 81 7c 6f 70 6c 7d 8e 85 a0 84 80 7f 7c 7d     wo.|opl}......|}
    5a71:	72 7c 8a 9f 96 80 7d 8e 91 bb 99 84 73 6b 7b 71     r|....}.....sk{q
    5a81:	7e 86 8a 72 74 7b 86 93 b3 8c 84 7d 82 81 8c 7e     ~..rt{.....}...~
    5a91:	81 8e a7 9c 84 78 83 af 99 86 70 64 57 6e 7e 80     .....x....pdWn~.
    5aa1:	85 96 8b 83 86 89 97 9d 82 6e 67 6f 79 82 7a 72     .........ngoy.zr
    5ab1:	81 7f 85 77 57 54 74 81 73 5c 40 6a 79 85 8f 7a     ...wWTt.s\@jy..z
    5ac1:	83 80 79 62 66 87 82 77 5a 60 5e 7a 82 7f 6c 6d     ..ybf..wZ`^z..lm
    5ad1:	7e 7e 7a 54 6b 7a 8a 85 6d 69 78 8d 8e 96 85 80     ~~zTkz..mix.....
    5ae1:	80 76 74 6a 79 8a 75 6c 61 78 8b a4 93 7e 7d 85     .vtjy.ulax...~}.
    5af1:	94 87 7a 7d 8a 96 9b 90 7f 84 99 a7 95 80 7d 81     ..z}..........}.
    5b01:	7d 7a 7d 89 9b b3 96 7e 8c a2 bb a0 82 77 88 a6     }z}....~.....w..
    5b11:	85 84 7f 89 9b 8e 85 7c 70 81 8b 83 75 6b 7a 81     .......|p...ukz.
    5b21:	81 7d 87 88 98 85 71 60 6b 9d 83 6a 5d 70 70 81     .}....q`k..j]pp.
    5b31:	77 73 60 7f 80 77 70 5c 76 7d 7d 78 6d 70 7e 80     ws`..wp\v}}xmp~.
    5b41:	7a 68 77 80 7d 63 57 62 79 87 7c 51 64 76 86 89     zhw.}cWby.|Qdv..
    5b51:	80 70 7b 85 8d 6f 78 7a 82 95 7e 80 7d 81 8a 79     .p{..oxz..~.}..y
    5b61:	84 7c 82 8b 82 78 7b 88 9e a7 8e 81 7e a6 98 a0     .|...x{.....~...
    5b71:	81 7d 88 91 91 80 7e 89 93 8e 7f 79 87 7b 83 7e     .}....~....y.{.~
    5b81:	81 89 8e 89 80 7c 84 95 90 82 73 71 67 79 7e 75     .....|....sqgy~u
    5b91:	76 56 7e 7f 79 7a 6b 7e 7f 7b 7b 70 84 7d 7d 87     vV~.yzk~.{{p.}}.
    5ba1:	82 8a 81 79 77 70 81 7f 7c 72 67 73 7a 83 96 8c     ...ywp..|rgsz...
    5bb1:	8a 7b 80 97 87 80 7e 7d 8c 78 7f 7e 80 87 7a 8a     .{....~}.x.~..z.
    5bc1:	7e 7a 77 6c 73 7d 83 84 81 7e 7d 84 8d 98 90 82     ~zwls}...~}.....
    5bd1:	76 71 6e 8d 80 76 77 89 7b 80 7c 81 7a 86 7f 7c     vqn..vw.{.|.z..|
    5be1:	7e 6e 7d 7c 83 89 97 85 81 7f 7d 82 84 81 7a 6c     ~n}|......}...zl
    5bf1:	63 6d 7b 85 8b 68 76 7d 88 72 96 7b 7d 7e 80 7e     cm{..hv}.r.{}~.~
    5c01:	77 7f 80 90 87 8b 82 7d 6c 7e 74 7f 80 7d 78 74     w......}l~t..}xt
    5c11:	7d 88 94 a6 90 83 80 83 a4 81 83 82 7a 86 83 80     }...........z...
    5c21:	81 7d 90 80 81 7a 75 74 73 7e 85 84 8b 7f 80 7f     .}...zuts~......
    5c31:	85 92 8f 84 75 63 5c 73 81 7a 6e 66 7c 7d 7f 7b     ....uc\s.znf|}.{
    5c41:	7d 7b 80 7f 77 7b 75 7d 83 8b 90 86 80 7e 7d 7d     }{..w{u}.....~}}
    5c51:	7c 80 7a 6f 58 69 79 8a 91 77 76 7c 85 87 94 7d     |.zoXiy..wv|...}
    5c61:	7f 80 86 79 82 7e 81 88 96 86 81 7b 78 79 7c 7f     ...y.~.....{xy|.
    5c71:	81 81 78 75 7b 89 9d b0 96 81 82 8b a8 87 84 7b     ..xu{..........{
    5c81:	74 85 7f 81 7e 7f 7f 8b 81 79 6d 73 70 80 80 7a     t...~....ymsp..z
    5c91:	7b 84 7e 82 8a a4 91 86 73 6c 7e 88 83 7c 5b 77     {.~.....sl~..|[w
    5ca1:	69 7e 7e 80 6d 7c 7e 7d 6f 6c 6d 7c 85 80 7d 78     i~~.m|~}olm|..}x
    5cb1:	7e 81 81 92 85 84 77 5a 60 6b 7f 7d 75 68 69 7b     ~.....wZ`k.}uhi{
    5cc1:	87 8f 8a 7e 7e 86 7c 87 73 7c 86 97 93 85 7d 83     ...~~.|.s|....}.
    5cd1:	86 93 86 83 79 69 51 72 79 7f 83 7d 73 7d 8a 93     ....yiQry..}s}..
    5ce1:	a1 8e 81 7d 89 86 84 7f 83 8d 9f 8c 83 80 81 8f     ...}............
    5cf1:	8c 82 75 68 58 64 7c 88 84 79 83 7b 81 9b 93 96     ..uhXd|..y.{....
    5d01:	82 78 72 81 7a 7f 7f 88 88 8e 81 78 7f 78 85 80     .xr.z......x.x..
    5d11:	76 67 4c 63 79 8a 8d 84 85 7c 80 93 95 8e 83 79     vgLcy....|.....y
    5d21:	6e 75 76 7e 81 89 89 87 81 7b 7c 73 83 7f 7a 6a     nuv~.....{|s..zj
    5d31:	56 60 79 8d 96 93 8a 7d 7f 95 8e 92 82 77 6e 73     V`y....}.....wns
    5d41:	71 7e 86 89 93 8c 80 79 80 72 83 80 7c 6b 5e 63     q~.....y.r..|k^c
    5d51:	79 8c 9a 9e 8d 80 7f 88 91 8c 82 78 6e 71 70 7d     y..........xnqp}
    5d61:	85 8f 92 8f 81 7a 78 76 7c 80 7d 72 65 67 79 8c     .....zxv|.}regy.
    5d71:	a0 a5 93 81 7d 81 8b 87 83 79 6a 6c 71 7c 86 8f     ....}....yjlq|..
    5d81:	95 8e 82 7a 74 78 7a 80 7d 72 64 6c 7a 89 a1 a2     ...ztxz.}rdlz...
    5d91:	94 82 7d 7b 86 85 82 7a 6c 6b 6f 7c 86 92 95 8e     ..}{...zlko|....
    5da1:	82 7a 73 7a 79 80 7d 72 68 6e 7a 88 9a a4 91 82     .zszy.}rhnz.....
    5db1:	7b 78 80 83 81 7b 6d 69 6e 7b 87 92 98 8d 81 7a     {x...{min{.....z
    5dc1:	75 77 7c 80 7c 72 66 6e 7b 89 99 a1 90 82 7b 7d     uw|.|rfn{.....{}
    5dd1:	81 84 81 7b 72 6d 6f 7c 87 91 99 8d 82 7a 76 76     ...{rmo|.....zvv
    5de1:	7e 80 7c 73 67 6e 7b 88 96 9d 8d 81 7c 7d 82 84     ~.|sgn{.....|}..
    5df1:	80 7b 74 6f 73 7c 86 90 99 8b 82 7b 77 78 81 80     .{tos|.....{wx..
    5e01:	7b 70 66 6f 7b 87 94 98 8a 81 7d 7e 83 83 80 7c     {pfo{.....}~...|
    5e11:	77 6e 74 7c 85 8e 95 8a 82 7b 76 7b 7f 80 7b 71     wnt|.....{v{..{q
    5e21:	68 6f 7b 86 91 92 88 80 7e 7f 84 82 80 7d 76 71     ho{.....~....}vq
    5e31:	75 7d 85 8e 93 8b 81 7c 78 7e 81 80 7b 70 6a 70     u}.....|x~..{pjp
    5e41:	7c 86 8f 8e 87 80 7e 81 85 84 80 7c 74 71 74 7d     |.....~....|tqt}
    5e51:	84 8d 92 89 81 7c 7c 80 83 81 7b 70 69 71 7c 85     .....||...{piq|.
    5e61:	8b 8c 84 7f 7f 82 84 84 80 7c 75 70 76 7d 84 8a     .........|upv}..
    5e71:	8f 86 80 7d 81 85 86 81 7b 72 6b 73 7d 83 87 86     ...}....{rks}...
    5e81:	81 7f 80 82 85 83 80 7c 75 6f 75 7d 83 8a 8b 84     .......|uou}....
    5e91:	80 7f 83 89 88 81 7a 73 6d 75 7d 82 83 81 7e 7e     ......zsmu}...~~
    5ea1:	81 83 83 83 80 7c 77 71 76 7d 83 86 8a 82 7f 80     .....|wqv}......
    5eb1:	85 8d 88 82 7a 71 6f 77 7e 80 7f 7e 7c 7e 81 83     ....zqow~..~|~..
    5ec1:	85 83 80 7c 78 70 79 7d 82 86 86 80 7f 82 85 91     ...|xpy}........
    5ed1:	88 81 7a 74 6f 7a 7e 7f 80 78 7c 7e 81 82 87 83     ..ztoz~..x|~....
    5ee1:	80 7c 77 74 78 7e 81 86 80 80 7e 81 8b 8e 89 82     .|wtx~....~.....
    5ef1:	7b 72 76 7b 7e 7f 7d 79 7a 7e 80 86 85 85 80 7c     {rv{~.}yz~.....|
    5f01:	75 73 79 7e 81 80 82 7a 7e 83 89 8c 8a 81 7a 78     usy~...z~.....zx
    5f11:	79 7c 7f 7e 7b 78 7b 7f 81 84 87 86 80 7b 77 75     y|.~{x{......{wu
    5f21:	7b 7e 80 80 78 7b 7d 83 87 90 88 80 7c 7b 7b 7e     {~..x{}.....|{{~
    5f31:	7f 7d 7d 77 7d 7e 81 84 89 85 80 7b 79 75 7c 7e     .}}w}~.....{yu|~
    5f41:	7f 7d 75 7a 7d 82 88 8d 85 80 7d 7d 7d 7f 80 7e     .}uz}.....}}}..~
    5f51:	7c 7c 7d 7e 80 85 87 84 80 7d 78 7a 7a 7f 80 7b     ||}~.....}xzz..{
    5f61:	7a 79 7d 83 87 8a 85 80 7e 7d 81 80 7f 7e 7e 7c     zy}.....~}...~~|
    5f71:	7e 7f 81 84 85 83 80 7d 7b 78 7d 7e 7f 80 7c 7d     ~......}{x}~..|}
    5f81:	7e 82 87 8c 85 80 7d 7b 7c 7e 7f 7f 7c 7c 7d 7e     ~.....}{|~..||}~
    5f91:	80 81 83 80 80 7e 7b 7c 7b 7f 80 7e 7e 7e 7f 80     .....~{|{..~~~..
    5fa1:	81 82 82 80 7d 7a 79 7c 7f 80 7e 7d 7c 7e 80 82     ....}zy|..~}|~..
    5fb1:	82 81 7f 7f 7f 7f 7f 7f 7f 7f 81 80 7f 7f 7e 82     ..............~.
    5fc1:	81 80 7d 7a 7b 7c 7f 7f 7e 7c 7d 7f 80 81 82 80     ..}z{|..~|}.....
    5fd1:	7f 7e 7e 7e 7f 7f 7f 80 7f 7f 7f 7f 80 81 80 7f     .~~~............
    5fe1:	7e 7e 7d 7e 7f 7f 7f 7e 7f 7f 7f 80 80 80 7f 7f     ~~}~...~........
    5ff1:	7f 7f                                               ..

00005ff3 <_ZL22Wave_Mother_Ship_Sound>:
    5ff3:	01 01 88 13 00 00 88 13 00 00 01 08 d1 02 00 00     ................
    6003:	79 82 85 81 89 82 70 7c 7e 7a 76 82 82 7f 78 86     y.....p|~zv...x.
    6013:	8a 82 80 88 7d 74 76 82 85 76 7a 7d 87 7e 7e 83     ....}tv..vz}.~~.
    6023:	80 82 8b 7e 78 80 89 7d 7c 7d 7c 6c 82 9e 85 70     ...~x..}|}|l...p
    6033:	7e 89 70 74 8f 86 72 85 87 69 72 8f 75 74 85 7b     ~.pt..r..ir.ut.{
    6043:	6b 92 98 8e 98 99 77 7b 7f 65 77 73 6c 82 82 79     k.....w{.ewsl..y
    6053:	88 84 7d 95 8a 7f 9e 76 80 81 68 6d 7b 60 92 9f     ..}....v..hm{`..
    6063:	80 9e 87 6a 7d 6a 88 86 8b 7a 80 78 78 8e 73 81     ...j}j...z.xx.s.
    6073:	82 77 9d 7c 8d 74 76 92 54 a9 56 a4 65 8e 86 79     .w.|.tv.T.V.e..y
    6083:	9e 4d b5 35 c0 3a bc 55 a3 59 97 67 92 69 97 77     .M.5.:.U.Y.g.i.w
    6093:	89 7f 8b 81 80 80 7a 86 6f 89 67 8c 65 9b 6b 89     ......z.o.g.e.k.
    60a3:	90 6d 8d 77 71 91 77 72 9f 5b 95 8f 75 76 94 7f     .m.wq.wr.[..uv..
    60b3:	7a 6e 93 7c 66 79 8d 76 6c 70 7c 7e 8d 93 8b 82     zn.|fy.vlp|~....
    60c3:	6c 7e 78 98 89 99 6b 75 64 6e 7c 99 96 8a 74 72     l~x...kudn|...tr
    60d3:	6f 63 98 ad 9d 79 87 6a 5b 56 93 8c 86 80 9d 71     oc...y.j[V.....q
    60e3:	6c 7f 74 74 90 7a 88 99 61 86 77 70 99 7d 87 96     l.tt.z..a.wp.}..
    60f3:	5e 88 74 80 89 7f 8a 72 85 72 8f 7a 83 80 79 7e     ^.t....r.r.z..y~
    6103:	71 84 7d 88 8c 80 8c 6a 8c 56 a0 59 b4 54 b6 4d     q.}....j.V.Y.T.M
    6113:	b1 4e 9c 73 7b 8e 60 a7 4e a2 5d 91 80 7e 88 6d     .N.s{.`.N.]..~.m
    6123:	88 87 80 87 6e 87 7b 85 70 79 67 81 92 88 a3 83     ....n.{.pyg.....
    6133:	78 75 61 6f 85 7e a0 9c 84 93 83 70 93 79 76 92     xuao.~.....p.yv.
    6143:	7b 6a 89 5a 75 85 67 7d 85 82 78 9c 7e 85 91 85     {j.Zu.g}..x.~...
    6153:	7a 93 73 79 6b 6d 72 65 7c 83 7f 7f 95 78 78 89     z.sykmre|....xx.
    6163:	7f 6e 90 7e 76 77 97 75 80 94 88 6a 75 82 75 74     .n.~vw.u...ju.ut
    6173:	92 85 6d 6e 8a 7e 7a 85 85 7a 7a 88 83 81 80 80     ..mn.~z..zz.....
    6183:	75 82 7e 91 79 7b 87 7f 71 78 93 78 7b 7e 88 70     u.~.y{..qx.x{~.p
    6193:	74 81 86 74 83 93 8e 73 82 74 82 86 82 79 73 7d     t..t...s.t...ys}
    61a3:	72 8a 98 8d 7d 82 66 6f 7d 6f 86 99 84 8c 88 78     r...}.fo}o.....x
    61b3:	79 81 69 79 71 74 88 6f 74 7e 84 8f 87 88 94 8e     y.iyqt.ot~......
    61c3:	8a 89 75 8f 90 83 8a 74 88 8a 7e 89 78 82 91 7d     ..u....t..~.x..}
    61d3:	88 76 81 8f 7d 7f 62 7b 80 7d 75 67 7c 7b 8f 82     .v..}.b{.}ug|{..
    61e3:	80 7e 83 9a 88 7c 69 7c 80 83 7d 66 7e 79 96 80     .~...|i|..}f~y..
    61f3:	87 64 80 85 95 7b 71 69 77 91 8d 86 70 7c 7b 8b     .d...{qiw...p|{.
    6203:	7d 80 6e 7c 8a 99 7b 79 6a 7d 85 9e 85 78 59 79     }.n|..{yj}...xYy
    6213:	80 98 94 80 68 64 7d 89 9d 83 7f 60 77 78 a3 7a     ....hd}....`wx.z
    6223:	8b 5d 8b 75 a5 77 84 53 79 78 94 a0 81 80 5c 8a     .].u.w.Syx....\.
    6233:	75 ab 6d 82 54 7e 83 ad 94 7f 65 5e 7d 92 a7 83     u.m.T~....e^}...
    6243:	79 58 7a 7a a4 82 8e 62 7f 70 9e 7e 8a 5d 80 75     yXzz...b.p.~.].u
    6253:	a1 85 88 63 75 7c 99 8e 83 6f 76 7e 81 87 73 83     ...cu|...ov~..s.
    6263:	77 92 7a 82 6b 80 7e 88 84 73 83 7d 96 7e 87 75     w.z.k.~..s.}.~.u
    6273:	89 7b 79 6b 6c 74 8b 90 87 80 86 8d 9b 85 7e 72     .{yklt........~r
    6283:	7a 86 7b 78 68 7c 7d 86 7b 74 7f 80 87 7e 7c 91     z.{xh|}.{t...~|.
    6293:	8c 89 8c 74 8f 8a 76 83 6a 75 7f 70 7a 84 79 93     ...t..v.ju.pz.y.
    62a3:	94 83 8f 79 6d 6f 74 7a 96 8a 81 84 77 69 84 91     ...ymotz....wi..
    62b3:	8b 79 81 74 7c 85 82 74 77 7e 7d 83 7f 85 77 7e     .y.t|..tw~}...w~
    62c3:	82 84 77 79 88 81 77 7c 83 86 81 7d 7c 7f 7c 7c     ..wy..w|...}|.||
    62d3:	80 85                                               ..

000062d5 <_ZL18Wave_Alien_Sound_2>:
    62d5:	01 01 88 13 00 00 88 13 00 00 01 08 92 01 00 00     ................
    62e5:	80 7f 7f 7f 7f 7f 7f 80 7f 7f 7e 81 84 8e 84 76     ..........~....v
    62f5:	5b 59 64 8e a1 b0 96 7d 68 6c 76 81 79 6f 6b 6f     [Yd....}hlv.yoko
    6305:	79 81 8b 90 94 98 8e 91 92 94 86 7c 59 54 5d 73     y..........|YT]s
    6315:	91 93 95 82 81 80 7e 80 7e 7b 7a 81 79 82 7f 89     ......~.~{z.y...
    6325:	7d 89 77 7b 73 79 7d 85 85 86 84 7e 85 86 87 84     }.w{sy}....~....
    6335:	7d 80 76 79 79 7b 7e 73 6f 66 76 8d ad af a0 84     }.vyy{~sofv.....
    6345:	6f 6b 76 79 6c 65 5b 68 72 86 8a 92 94 96 96 96     okvyle[hr.......
    6355:	8a 82 79 71 72 74 74 77 74 79 7d 85 86 89 83 7e     ..yqrttwty}....~
    6365:	76 7b 82 90 90 8d 7c 7a 78 79 77 6c 6a 6e 7c 82     v{....|zxywljn|.
    6375:	8c 8b 8e 8f 90 8f 88 82 7b 76 6e 6f 74 85 89 74     ........{vnot..t
    6385:	67 58 71 88 b0 b7 a0 80 73 6d 6e 83 7d 71 62 68     gXq.....smn.}qbh
    6395:	6d 80 87 94 82 84 8e 8e 98 95 87 75 70 6d 73 78     m..........upmsx
    63a5:	76 77 76 7e 81 87 89 86 80 78 7e 84 8b 93 85 80     vwv~.....x~.....
    63b5:	76 78 7c 7d 79 6f 73 6f 80 86 8a 8e 87 8a 8a 86     vx|}yoso........
    63c5:	85 7f 7a 7b 76 7b 7d 6e 64 5a 71 85 ab b5 a5 91     ..z{v{}ndZq.....
    63d5:	79 72 71 72 70 6e 60 6c 6e 81 84 89 86 8e 8e 99     yrqrpn`ln.......
    63e5:	94 90 7f 77 73 72 79 75 77 75 77 7f 86 86 84 82     ...wsryuwuw.....
    63f5:	77 7b 85 91 95 97 82 73 78 75 7c 6e 6a 66 6f 81     w{.....sxu|njfo.
    6405:	8b 90 8c 8b 8c 8e 8b 8b 80 78 73 70 73 7c 83 75     .........xsps|.u
    6415:	6b 67 68 88 ac ac aa 90 79 7b 72 77 75 67 62 6f     kgh.....y{rwugbo
    6425:	70 7a 7e 83 7c 8c 8d 9c 93 92 8d 7b 79 73 74 6d     pz~.|......{ystm
    6435:	77 72 75 7f 84 87 83 86 7a 7b 82 8d 8f 8a 7f 75     wru.....z{.....u
    6445:	76 78 80 7b 6e 69 70 7a 85 8b 8b 88 88 8c 8b 8a     vx.{nipz........
    6455:	85 7d 75 75 77 74 76 72 70 7d 88 94 90 8a 7a 7f     .}uuwtvrp}....z.
    6465:	81 88 7f 7a 74 75 77 7b 7c 7c 79 7e 82 84 88 88     ...ztuw{||y~....
    6475:	84 82 83                                            ...

00006478 <_ZL18Wave_Alien_Sound_1>:
    6478:	01 01 88 13 00 00 88 13 00 00 01 08 b6 01 00 00     ................
    6488:	80 7f 7e 7f 80 7f 7f 7f 7f 80 80 7e 7d 7d 7c 84     ..~........~}}|.
    6498:	8a 93 8b 71 57 4e 6c 8a b3 ae a4 7f 78 6d 7b 7b     ...qWNl.....xm{{
    64a8:	7f 76 6d 6b 67 75 7e 92 88 85 76 7c 8c 9b a2 90     .vmkgu~...v|....
    64b8:	71 50 5e 67 8d 94 94 87 7b 79 79 80 83 81 88 84     qP^g....{yy.....
    64c8:	80 73 77 75 87 87 83 78 6e 72 7a 85 8b 8b 85 81     .swu...xnrz.....
    64d8:	82 82 85 88 84 80 78 77 6b 74 72 85 89 91 89 8c     ......xwktr.....
    64e8:	81 7f 7b 80 7d 8c 77 7b 6c 6f 76 89 80 83 7f 7a     ..{.}.w{lov....z
    64f8:	86 83 86 85 80 77 7d 6f 79 85 98 95 8f 70 67 5f     .....w}oy....pg_
    6508:	72 76 7c 74 74 76 94 92 96 83 7e 81 94 98 9d 7a     rv|ttv....~....z
    6518:	5b 50 56 76 85 95 92 89 85 8a 8a 8f 86 7f 77 68     [PVv..........wh
    6528:	75 79 7c 7a 76 6b 78 7c 8c 88 86 87 89 89 85 83     uy|zvkx|........
    6538:	7f 7c 7d 7b 7c 7d 80 7e 7c 7a 7b 74 7a 7f 78 8a     .|}{|}.~|z{tz.x.
    6548:	86 88 82 81 7c 7d 75 75 75 75 81 82 84 87 84 83     ....|}uuuu......
    6558:	86 83 84 85 85 7e 7a 72 67 70 7c 92 97 93 80 75     .....~zrgp|....u
    6568:	78 7f 86 7f 76 78 73 82 86 87 81 85 92 9b 9c 87     x...vxs.........
    6578:	6c 55 54 68 81 91 8b 86 73 7d 8a 98 9e 93 74 73     lUTh....s}....ts
    6588:	63 77 7a 80 70 70 6c 7a 88 8f 8d 88 83 84 86 84     cwz.pplz........
    6598:	81 7b 7a 7b 82 80 82 7c 7a 77 79 7a 7f 7e 83 81     .{z{...|zwyz.~..
    65a8:	8a 84 88 7b 7d 7b 80 7d 77 76 71 7e 7f 84 87 86     ...{}{.}wvq~....
    65b8:	83 84 82 85 86 81 80 74 6f 68 75 81 93 97 91 80     .......tohu.....
    65c8:	77 7b 7e 86 7d 75 75 75 7f 84 86 84 89 93 9a 99     w{~.}uuu........
    65d8:	86 6a 55 53 65 82 91 8b 86 74 7e 8b 99 9e 93 73     .jUSe....t~....s
    65e8:	73 63 78 7a 80 73 70 6b 78 88 8f 8e 87 83 84 87     scxz.spkx.......
    65f8:	86 82 7c 78 7a 7d 7e 81 7e 7a 76 79 7b 81 83 84     ..|xz}~.~zvy{...
    6608:	81 83 7f 7c 7d 82 80 80 7e 7c 7d 7d 7f 81 7d 7d     ...|}...~|}}..}}
    6618:	7e 81 83 87 86 84 7f 7d 7a 79 7a 7c 7e 7f 7e 7f     ~......}zyz|~.~.
    6628:	7f 80 81 83 83 83 82 80 7f 7f 7e 7e 7d 7f 7e 7f     ..........~~}.~.
    6638:	7d 7f 7c 7c 7e 80 81                                }.||~..

0000663f <_ZL14Wave_Tik_Tak_1>:
    663f:	01 01 10 27 00 00 10 27 00 00 01 08 79 01 00 00     ...'...'....y...
    664f:	7c 94 45 9b 69 68 93 68 8c 86 60 9b 8f 8b 98 8a     |.E.ih.h..`.....
    665f:	7f 87 7b 65 6a 87 6b 7a 83 7c 73 8b 71 7c 9f 6e     ..{ej.kz.|s.q|.n
    666f:	8b b0 57 8f 92 57 9e 61 55 9a 5f 80 89 5e 7e 91     ..W..W.aU._..^~.
    667f:	69 91 98 6f 93 97 6f 89 8b 71 7d 8b 6e 6a 93 5c     i..o..o..q}.nj.\
    668f:	7b a1 5a 84 a5 68 89 a1 69 97 8c 5d 84 8e 64 87     {.Z..h..i..]..d.
    669f:	8c 64 71 80 67 75 8d 73 8b a2 82 81 96 6f 81 8b     .dq.gu.s.....o..
    66af:	67 83 85 6b 82 7c 69 78 73 83 84 7e 9d 87 85 9b     g..k.|ixs..~....
    66bf:	75 7e 86 67 88 87 66 8c 7a 66 83 64 7c 8b 8b 84     u~.g..f.zf.d|...
    66cf:	95 91 7e 87 89 6b 92 84 6b 9f 7d 60 94 6c 62 98     ..~..k..k.}`.lb.
    66df:	5b 75 a8 6c 92 94 6a 80 81 71 79 80 7e 70 92 6f     [u.l..j..qy.~p.o
    66ef:	60 92 6d 62 a1 77 78 a8 76 83 9c 70 82 95 73 85     `.mb.wx.v..p..s.
    66ff:	8e 7a 85 79 6e 7a 7b 78 7d 88 7a 80 80 7c 86 7f     .z.ynz{x}.z..|..
    670f:	7d 8f 84 80 7f 80 80 7e 7c 7b 7c 83 75 7f 83 76     }......~|{|.u..v
    671f:	7e 7c 7a 84 7d 80 8a 82 7a 76 80 77 78 84 79 82     ~|z.}...zv.wx.y.
    672f:	84 7a 80 7c 7e 7f 84 86 80 87 86 7c 7c 81 79 7c     .z.|~......||.y|
    673f:	88 80 7d 85 7a 7a 7c 7e 7d 7c 8b 7e 77 8f 78 6f     ..}.zz|~}|.~w.xo
    674f:	8c 76 74 96 7a 77 90 6e 7b 84 70 80 81 82 88 7b     .vt.zw.n{.p....{
    675f:	88 7d 79 88 78 83 88 81 8a 7e 80 7c 71 85 7e 77     .}y.x....~.|q.~w
    676f:	94 7f 77 8c 6f 76 88 72 7d 8c 74 82 85 6e 77 79     ..w.ov.r}.t..nwy
    677f:	73 7d 84 7f 83 86 7f 7a 7e 78 83 8d 81 8b 89 7b     s}.....z~x.....{
    678f:	87 81 72 89 7f 7b 91 80 79 88 7a 72 89 7b 7b 96     ..r..{..y.zr.{{.
    679f:	82 76 90 72 6d 86 77 79 8e 81 79 88 7a 73 85 7d     .v.rm.wy..y.zs.}
    67af:	79 8c 81 7c 86 7c 76 7f 7a 78 89 7e 7f 8a 76 81     y..|.|v.zx.~..v.
    67bf:	82 70 83 81 74 8b 7d 74 86 77                       .p..t.}t.w

000067c9 <_ZL19Wave_Ship_Explosion>:
    67c9:	01 01 88 13 00 00 88 13 00 00 01 08 41 09 00 00     ............A...
    67d9:	7f 7f 7f 7f 7f 7f 7f 7f 7f 7f 7f 7f 7f 7f 7f 7f     ................
    67e9:	7f 7f 7f 7f 7f 7f 7f 7f 7f 7f 7f 7f 7f 7f 7e 7e     ..............~~
    67f9:	7f 7f 7f 7f a4 8d 8a 62 62 7b 96 d8 c9 9e 30 5a     .......bb{....0Z
    6809:	0d 76 71 91 77 71 96 6f 67 be ea f3 77 8c 18 55     .vq.wq.og...w..U
    6819:	4f d8 b0 98 5c 54 12 5d 8a c2 75 8b 59 50 4a 90     O...\T.]..u.YPJ.
    6829:	a9 9f 99 8d 52 56 84 8a ac 85 99 64 6a 77 94 9d     ....RV.....djw..
    6839:	7a 6c 5d 79 72 92 75 8a 80 84 8f 8c 79 4d 57 5f     zl]yr.u.....yMW_
    6849:	72 ae a9 a7 7d 8c 55 5e 63 85 75 af 8c 92 7c 94     r...}.U^c.u...|.
    6859:	80 89 66 6c 5a 74 7b 94 8b 7b 99 61 4d 43 6e 69     ..flZt{..{.aMCni
    6869:	bb 84 98 9a 8b 95 91 84 8c 8e 7d 90 62 82 71 89     ..........}.b.q.
    6879:	66 86 6a 8c 7b 76 87 a9 96 8c 97 61 6c 62 64 63     f.j.{v.....albdc
    6889:	4d 5a 8b 73 af 95 59 40 95 c0 d6 c4 b5 4b 50 5f     MZ.s..Y@.....KP_
    6899:	61 ae 9a 96 65 67 89 a2 97 b0 82 6b 53 75 65 74     a...eg.....kSuet
    68a9:	8e 8f 7b 7b 6d 7a 75 89 9d 8d 7d 80 65 71 77 8f     ..{{mzu...}.eqw.
    68b9:	85 82 84 69 5b 69 95 a5 8c 96 54 2f 4a a1 b7 cc     ...i[i....T/J...
    68c9:	8f 6f 5a 53 90 a1 b1 85 81 53 45 3e 85 a9 a8 b4     .oZS.....SE>....
    68d9:	98 6b 6f 62 79 87 75 8b 6d 63 6f 80 b1 77 5a 5a     .koby.u.mco..wZZ
    68e9:	67 78 df a4 4f 4f 52 68 a8 b1 70 52 63 99 93 a0     gx..OORh..pRc...
    68f9:	a4 79 5f 70 88 8f 8b 7a 7a 5d 60 7e 76 a3 a2 ad     .y_p...zz]`~v...
    6909:	89 6b 71 66 70 a2 aa a5 83 78 72 95 62 4b 56 5b     .kqfp....xr.bKV[
    6919:	5b d6 d6 ce 8a 89 70 8f bb 96 78 24 5a 3b 4d 6f     [.....p...x$Z;Mo
    6929:	9d 74 6b 5b 32 6a 6e f9 ce c0 87 88 49 8f a6 a1     .tk[2jn.....I...
    6939:	7f 5d 72 4e a0 bf b8 6a 77 3d 75 71 81 3f 50 77     .]rN...jw=uq.?Pw
    6949:	91 8c 91 68 69 74 a1 a3 7b 98 71 6e 70 99 96 c1     ...hit..{.qnp...
    6959:	9f a5 56 79 5a 84 87 7a 7d 68 7d 6e 86 7f 8c 68     ..VyZ..z}h}n...h
    6969:	6c 7b 88 82 93 74 83 6d 99 8c 88 79 55 77 68 e4     l{...t.m...yUwh.
    6979:	ac bf 29 33 00 79 95 d5 a3 73 5f 5f 85 7f 98 8d     ..)3.y...s__....
    6989:	54 7f 39 58 56 9d 8f 96 7a 81 7a 80 74 66 6a 84     T.9XV...z.z.tfj.
    6999:	9f a3 9c 88 8b 88 86 8c 73 6c 73 61 6b 75 8f 91     ........slsaku..
    69a9:	81 6b 77 89 7e a6 67 98 95 ad 90 80 56 5c 73 7d     .kw.~.g.....V\s}
    69b9:	8f 74 77 7a 76 9d 6f 63 50 7f 7d b0 9b a7 7d 75     .twzv.ocP.}...}u
    69c9:	88 77 7b 74 7b 71 7d 82 90 77 6c 6f 59 84 96 a5     .w{t{q}..wloY...
    69d9:	ae a5 6e 86 55 6d 8c 82 8a 85 5f 61 6f 7d 83 93     ..n.Um...._ao}..
    69e9:	7b 87 83 9a 89 92 84 86 5e 73 74 7b 8f 8b 86 78     {.......^st{...x
    69f9:	7d 8c 80 74 7d 7f 70 86 7e 6e 6b 79 82 84 8d 98     }..t}.p.~nky....
    6a09:	93 81 86 7d 7d 82 7f 97 7e 79 83 68 6e 89 8c 77     ...}}...~y.hn..w
    6a19:	88 73 7e 74 81 93 7e 87 86 7a 75 7c 7e 7b 8a 95     .s~t..~..zu|~{..
    6a29:	92 82 76 75 5d 6d 67 89 7a 98 74 85 7a 89 84 85     ..vu]mg.z.t.z...
    6a39:	82 7f 70 7d 82 ae b4 b5 7b 77 47 76 7d 89 7a 6d     ..p}....{wGv}.zm
    6a49:	71 6f 79 91 90 81 86 78 74 7b 82 87 7d 7a 72 9e     qoy....xt{..}zr.
    6a59:	92 84 80 61 74 91 9f 8b 94 6e 7e 6b 79 75 70 78     ...at....n~kyupx
    6a69:	7f 7d 78 7c 78 81 76 84 7a 7d 81 89 7d 8f 8f 90     .}x|x.v.z}..}...
    6a79:	81 7d 6e 75 78 89 7d 7d 7e 8a 75 7d 76 7d 7e 71     .}nux.}}~.u}v}~q
    6a89:	74 7a 6d 88 87 71 6a 7a 77 85 94 87 7e 7f 78 82     tzm..qjzw...~.x.
    6a99:	8b 8f 87 7e 79 84 7c 9f 9c 96 6d 7a 68 81 8f 7b     ...~y.|...mzh..{
    6aa9:	88 75 7c 6d 72 75 79 7d 82 7b 7c 79 7c 8e 82 8f     .u|mruy}.{|y|...
    6ab9:	7b 84 4e 5a 5d 84 80 b1 9b 8d 86 7b 7c 7d 7f 89     {.NZ]......{|}..
    6ac9:	85 72 6b 6f 67 75 a8 ad a1 93 7c 4e 57 70 8b 86     .rkogu....|NWp..
    6ad9:	87 7c 6e 74 7e 96 83 7b 91 95 8d 89 8a 55 7c 6a     .|nt~..{.....U|j
    6ae9:	94 85 98 7c 73 67 7f 89 82 71 91 74 8f 9e 9b 6d     ...|sg...q.t...m
    6af9:	84 6e 74 92 94 95 6e 75 70 86 82 92 78 65 72 7b     .nt...nup...xer{
    6b09:	8a 96 86 6f 7b 76 8a 52 60 43 73 92 c3 a6 98 64     ...o{v.R`Cs....d
    6b19:	51 67 89 97 9e 74 6f 78 7c 94 92 9c 8a 8e 70 88     Qg...tox|.....p.
    6b29:	6b 7d 75 7b 7c 85 8b 7a 8a 76 84 86 95 6e 98 85     k}u{|..z.v...n..
    6b39:	92 82 75 6a 6b 7a 7d 94 78 7d 79 72 87 99 92 86     ..ujkz}.x}yr....
    6b49:	70 64 6b 7a 89 91 83 69 63 43 7c 82 99 9c 8e 68     pdkz...icC|....h
    6b59:	66 7a 8a a1 90 6d 71 66 87 8b 91 7c 7d 73 77 85     fz...mqf...|}sw.
    6b69:	8c 86 80 7c 75 7a 6c 67 6b 81 8d 9d 7c 78 63 7f     ...|uzlgk...|xc.
    6b79:	8c 95 8a 7f 6c 7b 78 7e 82 87 7a 76 7d 8c aa 99     ....l{x~..zv}...
    6b89:	93 7f 56 6c 6c a2 67 75 51 74 7e a5 8d 6a 66 5f     ..Vll.guQt~..jf_
    6b99:	7d a2 a3 8e 85 74 7d 78 97 92 8c 65 6a 4e 92 9d     }....t}x...ejN..
    6ba9:	b9 63 5b 40 72 87 ad 9b 82 73 71 91 99 73 63 4a     .c[@r....sq..scJ
    6bb9:	68 71 9f a9 95 96 7a 7c 76 8b 93 7b 6d 5d 6d 7d     hq....z|v..{m]m}
    6bc9:	a0 79 75 56 85 82 a6 84 84 67 83 7d 9d 87 89 70     .yuV.....g.}...p
    6bd9:	6b 77 8a 95 93 92 8b 7e 67 87 5c 7c 70 8a 8a 8c     kw.....~g.\|p...
    6be9:	84 65 69 83 8e 9e 9d 76 6d 69 7d 86 8f 84 80 78     .ei....vmi}....x
    6bf9:	84 86 8f 76 71 56 7c 6d a8 77 86 3e 44 60 8b 90     ...vqV|m.w.>D`..
    6c09:	bd 90 78 77 7e 86 62 6e 66 8f 75 b8 7d 85 74 7f     ..xw~.bnf.u.}.t.
    6c19:	8a 83 99 81 7b 6c 7b 76 7b 74 81 81 74 85 87 86     ....{l{v{t..t...
    6c29:	88 7f 87 85 8f 96 89 6c 61 6f 89 a3 9a 80 61 4d     .......lao....aM
    6c39:	69 7c a3 8c 78 63 78 7f 9c 7d 6f 69 75 7f 99 8b     i|..xcx..}oiu...
    6c49:	81 7b 78 76 79 7d 90 7d 79 78 71 6d 8c 8f 83 7a     .{xvy}.}yxqm...z
    6c59:	83 77 88 61 64 63 85 88 b0 82 81 77 5e 7e 82 92     .w.adc.....w^~..
    6c69:	92 77 65 56 72 7f 93 9d 71 5a 5a 83 8d ac 83 87     .weVr...qZZ.....
    6c79:	7d 7a 91 89 81 79 78 83 8c 88 76 78 63 84 86 96     }z...yx...vxc...
    6c89:	8b 7b 75 74 66 81 98 94 a6 73 60 56 64 88 b2 a1     .{utf....s`Vd...
    6c99:	a3 77 5c 6e 74 81 a1 89 87 82 68 78 6a 72 89 7b     .w\nt.....hxjr.{
    6ca9:	8a 8a 78 81 7d 87 77 6e 6c 71 91 b2 a5 93 83 55     ..x.}.wnlq.....U
    6cb9:	72 79 6d 71 63 8a 7d 91 8e 7d 86 85 91 84 74 70     rymqc.}..}....tp
    6cc9:	7c 62 88 8c 5e 59 5f 79 82 af 94 97 7e 8c 85 8f     |b..^Y_y....~...
    6cd9:	83 6d 83 82 8d 8d 82 71 6d 78 82 9a 60 71 65 5f     .m.....qmx..`qe_
    6ce9:	78 a7 a0 91 8c 86 82 75 8f 7d 6c 69 73 78 76 89     x......u.}lisxv.
    6cf9:	84 84 84 8e 83 84 82 7a 7e 7d 7b 87 7e 87 75 90     .......z~}{.~.u.
    6d09:	79 87 86 76 7d 78 95 90 98 84 84 6c 65 70 6d 7b     y..v}x.....lepm{
    6d19:	7b 87 82 81 8b 7d 81 82 69 66 66 7c 7f 96 83 80     {....}..iff|....
    6d29:	81 80 88 8b 82 93 6f 81 6d 7f 70 89 80 85 83 7b     ......o.m.p....{
    6d39:	81 7f 74 7b 76 7d 7c 87 7d 75 82 7c 85 7e 83 87     ..t{v}|.}u.|.~..
    6d49:	7f 83 82 81 79 86 82 82 7a 7f 7e 7d 83 84 79 8b     ....y...z.~}..y.
    6d59:	72 86 7b 8d 73 74 71 72 85 86 90 79 79 7c 82 82     r.{.stqr...yy|..
    6d69:	7e 85 7e 84 84 8b 82 7f 7b 79 7e 83 80 82 6f 7e     ~.~.....{y~...o~
    6d79:	7e 88 8c 88 73 77 7b 7e 82 7f 80 7a 7b 83 86 84     ~...sw{~...z{...
    6d89:	84 80 7c 7c 7d 85 7b 7c 7b 7e 7d 82 81 7e 7f 7e     ..||}.{|{~}..~.~
    6d99:	82 80 81 7f 7d 7e 7c 80 7f 80 81 7e 80 80 80 81     ....}~|....~....
    6da9:	7d 7e 7b 7f 80 83 7e 82 7c 81 7f 82 7c 74 87 87     }~{...~.|...|t..
    6db9:	8f 87 83 6e 75 7b 7f 83 7c 80 7a 7b 82 91 79 70     ...nu{..|.z{..yp
    6dc9:	71 70 79 92 8d 84 85 7e 86 7c 82 7e 67 6e 80 78     qpy....~.|.~gn.x
    6dd9:	8c 8b 75 73 7d 81 8f 83 87 81 7c 83 82 7d 7c 7c     ..us}.....|..}||
    6de9:	7b 82 86 7f 86 76 83 7a 83 77 7a 73 7c 7d 83 80     {....v.z.wzs|}..
    6df9:	87 85 84 83 7e 74 7a 83 7e 85 7d 7f 80 6f 70 76     ....~tz.~.}..opv
    6e09:	83 80 92 7e 80 7f 7e 7c 86 85 89 81 7f 7d 7b 7a     ...~..~|.....}{z
    6e19:	84 7c 77 8e 85 82 82 79 7a 77 83 8a 8b 83 87 6f     .|w....yzw.....o
    6e29:	85 8c 8c 7d 7b 70 76 7a 7f 8c 81 86 7d 7c 81 7f     ...}{pvz....}|..
    6e39:	87 82 7d 77 76 74 79 7b 7e 84 80 7f 71 77 75 87     ..}wvty{~...qwu.
    6e49:	88 8b 7f 78 78 77 7f 80 81 83 7d 78 7a 81 80 8b     ...xxw....}xz...
    6e59:	79 7b 76 84 84 87 7c 7c 7f 7b 86 82 86 7f 7d 7e     y{v...||.{....}~
    6e69:	80 7f 82 7b 97 99 93 78 7e 65 78 7e 83 85 6f 7b     ...{...x~ex~..o{
    6e79:	6d 88 87 94 85 7c 76 78 81 82 87 7c 79 79 7f 7b     m....|vx...|yy.{
    6e89:	75 85 71 87 88 7f 6c 78 71 80 98 8b 84 77 77 84     u.q...lxq....ww.
    6e99:	7f 86 84 73 6f 6d 72 82 75 8f 88 60 61 6b 84 8b     ...somr.u..`ak..
    6ea9:	9d 8b 86 7a 73 7f 7a 7b 9b 9c 97 8b 80 62 7a 7b     ...zs.z{.....bz{
    6eb9:	80 83 78 7b 77 71 7e 84 76 92 91 87 88 86 6f 7a     ..x{wq~.v.....oz
    6ec9:	77 7f 84 81 7c 73 73 7c 90 84 89 7a 77 6b 78 7f     w...|ss|...zwkx.
    6ed9:	7f 86 8d 81 78 8e 8a 8f 8c 7c 68 6a 82 76 7f 78     ....x....|hj.v.x
    6ee9:	7a 8c 94 97 82 85 78 82 77 7a 6d 6e 7a 76 89 7f     z.....x.wzmnzv..
    6ef9:	8a 7e 83 7b 8c 7d 95 7e 7e 76 79 87 85 8d 72 7e     .~.{.}.~~vy...r~
    6f09:	79 8a 85 95 7e 89 75 78 7b 76 87 7e 83 70 7e 79     y...~.ux{v.~.p~y
    6f19:	84 81 8c 82 8e 7f 79 79 66 86 91 99 84 79 65 65     ......yyf....yee
    6f29:	7c 7e 8c 84 7e 70 6c 81 8d 94 88 70 63 67 7d 8e     |~..~pl....pcg}.
    6f39:	98 8a 7a 79 75 84 8a 8b 8f 7d 7a 72 7d 76 82 81     ..zyu....}zr}v..
    6f49:	83 86 7d 73 74 72 7b 88 85 83 81 7a 7a 75 7b 85     ..}str{....zzu{.
    6f59:	80 8b 86 75 77 7b 74 86 78 89 88 93 88 7c 7a 72     ...uw{t.x....|zr
    6f69:	80 84 8a 7e 7c 71 7b 76 84 83 80 88 8d 8a 8c 88     ...~|q{v........
    6f79:	77 7e 75 7b 83 85 7f 70 6e 76 81 86 88 6c 61 67     w~u{...pnv...lag
    6f89:	7d 80 96 84 84 7c 7f 8b 84 87 81 84 82 8b 82 80     }....|..........
    6f99:	7d 7b 77 7f 8c 7d 87 76 70 74 7c 81 87 6b 74 73     }{w..}.vpt|..kts
    6fa9:	7a 83 9a 8f 8a 84 82 7a 7c 85 7e 8d 6f 75 6c 6d     z......z|.~.oulm
    6fb9:	71 92 88 89 88 80 7b 73 81 7e 81 7b 8e 84 87 7e     q.....{s.~.{...~
    6fc9:	8e 76 7b 7e 75 7d 85 89 82 81 7b 77 78 7f 85 81     .v{~u}....{wx...
    6fd9:	7f 6c 6b 6e 88 86 8c 81 81 79 7f 85 86 86 7e 78     .lkn.....y....~x
    6fe9:	79 7d 7a 7d 81 7f 81 7f 85 82 84 83 80 7d 7d 7e     y}z}.........}}~
    6ff9:	7f 7a 7e 7f 7f 80 7f 7c 7f 7f 80 81 82 7f 7f 7f     .z~....|........
    7009:	7c 80 82 80 81 7d 7d 79 86 89 8a 7f 80 74 7c 7a     |....}}y.....t|z
    7019:	81 7c 7e 7e 80 7a 82 7d 80 7e 81 7e 81 83 80 7f     .|~~.z.}.~.~....
    7029:	7b 83 82 84 8c 7d 80 7c 86 7d 8f 86 88 74 7d 70     {....}.|.}...t}p
    7039:	7d 7d 81 85 76 7c 7b 80 7d 81 7d 7e 80 81 7d 7b     }}..v|{.}.}~..}{
    7049:	86 80 7f 7f 78 7d 83 87 82 81 7b 81 7c 80 7e 7f     ....x}....{.|.~.
    7059:	7b 79 7c 7f 83 82 85 7b 7b 7d 81 7c 7d 7c 7e 7e     {y|....{{}.|}|~~
    7069:	85 83 7f 7e 7f 80 80 80 80 7b 79 7c 7e 80 84 81     ...~.....{y|~...
    7079:	80 7d 80 7e 7f 7f 7e 7e 83 80 84 7c 7f 7a 7e 80     .}.~..~~...|.z~.
    7089:	82 87 81 7a 7d 78 7e 86 85 81 7e 7a 7e 7d 7f 81     ...z}x~...~z~}..
    7099:	7c 7c 7d 7e 7f 7c 7a 7a 76 86 7e 83 79 81 7f 83     ||}~.|zzv.~.y...
    70a9:	83 82 7e 7b 80 83 81 80 80 7e 7e 7e 81 7f 7e 7e     ..~{.....~~~..~~
    70b9:	78 78 7b 82 82 85 80 80 7f 7e 80 7e 80 85 83 84     xx{......~.~....
    70c9:	81 7d 79 7e 80 80 80 7c 86 7f 7f 81 7b 7c 85 86     .}y~...|....{|..
    70d9:	80 7f 7a 80 7a 87 88 87 7c 80 76 7b 80 81 81 7b     ..z.z...|.v{...{
    70e9:	7f 7d 7c 80 81 7f 80 80 7d 7d 7e 7c 7e 7d 80 7f     .}|.....}}~|~}..
    70f9:	80 7f 7f 7e 79 87 88 89 81 7f 76 7b 7c 7f 83 76     ...~y.....v{|..v
    7109:	77 76 7f 80 89 83 80 81 7e 81 84 80 80 7d 7f 7e     wv......~....}.~
    7119:	7e 7d                                               ~}

0000711b <_ZL15Wave_Canno_Fire>:
    711b:	01 01 88 13 00 00 88 13 00 00 01 08 4b 06 00 00     ............K...
    712b:	68 8a 77 8f 85 80 89 6a 8b 70 8e 7b 80 83 6f 84     h.w....j.p.{..o.
    713b:	6f 8d 7c 85 81 75 7b 6c 82 71 86 83 84 88 7d 84     o.|..u{l.q....}.
    714b:	6e 86 72 87 7c 85 85 72 8d 68 8a 70 92 7a 8c 88     n.r.|..r.h.p.z..
    715b:	79 87 69 89 77 8f 80 86 7f 6e 85 74 90 87 86 88     y.i.w....n.t....
    716b:	73 75 61 6f 7a 82 6b 87 7e 98 91 6b 7b 62 9a 8c     suaoz.k.~..k{b..
    717b:	8b 68 76 95 94 b0 54 6e 55 93 91 80 5e 77 88 8f     .hv...TnU...^w..
    718b:	ae 5c 72 7b 8b bd 86 7e 4e 81 73 ac 87 75 5b 6b     .\r{...~N.s..u[k
    719b:	8a 91 b1 65 61 4f 70 a4 b9 ad 62 5d 55 98 9b ae     ...eaOp...b]U...
    71ab:	86 50 4b 7c a1 a4 b0 6a 5c 4e 79 98 a7 a4 6c 64     .PK|...j\Ny...ld
    71bb:	43 71 92 9b a3 8c 86 53 76 57 85 71 9e 91 8a 73     Cq.....SvW.q...s
    71cb:	6d 6d 6d 86 93 96 84 7c 7c 6a 87 6c 87 70 92 7c     mmm....||j.l.p.|
    71db:	8a 88 7a 88 78 84 67 83 7d 96 8a 84 85 7c 87 74     ..z.x.g.}....|.t
    71eb:	79 5b 75 78 8e 95 8c 86 73 84 75 8c 81 80 77 66     y[ux....s.u...wf
    71fb:	74 7c 94 88 9f 78 83 75 7f 80 82 7c 73 71 73 80     t|...x.u...|sqs.
    720b:	7a 8c 8e 96 8e 91 7f 79 70 77 7a 80 7e 75 7e 77     z......ypwz.~u~w
    721b:	7f 78 7d 7d 7d 8a 85 6f 7d 88 6a ad 57 9a 62 6f     .x}}}..o}.j.W.bo
    722b:	8c 56 c6 4c bb 4a 8e 8d 59 c5 68 90 7d 64 a4 61     .V.L.J..Y.h.}d.a
    723b:	8f 6d 6f a2 77 94 76 6c 91 85 8b 7e 6e 8c 84 7d     .mo.w.vl...~n..}
    724b:	77 79 83 88 6e 81 86 70 8e 68 8d 84 6c 8c 79 8b     wy..n..p.h..l.y.
    725b:	74 72 8e 87 82 63 9e 7e 6e 97 5d 9b 71 60 ba 4f     tr...c.~n.].q`.O
    726b:	7d a9 59 a2 77 71 9a 5f 79 94 63 78 a5 5d 7b b4     }.Y.wq._y.cx.]{.
    727b:	54 86 a7 4e 89 a1 5d 8a a1 5a 8b 97 55 90 9c 5b     T..N..]..Z..U..[
    728b:	90 9e 60 8d 9e 58 87 97 55 8b 89 5f 82 81 76 81     ..`..X..U.._..v.
    729b:	82 77 81 80 80 86 77 92 7e 62 99 7c 6f 8b 80 78     .w....w.~b.|o..x
    72ab:	72 99 7c 61 a2 81 68 90 83 78 6c 9b 83 5d 9f 80     r.|a..h..xl..]..
    72bb:	76 70 90 85 60 97 87 6d 67 9f 7d 66 94 90 74 70     vp..`..mg.}f..tp
    72cb:	9e 75 7a 6c 99 75 6e 83 8e 66 7c 8a 8b 7f 76 a2     .uzl.un..f|...v.
    72db:	6d 72 89 84 79 7e 8d 7d 85 76 89 7b 7b 72 97 60     mr..y~.}.v.{{r.`
    72eb:	93 5d ab 59 94 5d ac 66 95 69 94 71 74 86 79 ab     .].Y.].f.i.qt.y.
    72fb:	55 a1 61 9d 65 88 80 73 9b 67 9d 6c 91 80 7d 8a     U.a.e..s.g.l..}.
    730b:	60 9a 75 7d 74 60 96 77 85 6c 7b 87 8b 83 6f 72     `.u}t`.w.l{...or
    731b:	94 89 88 7d 7a 81 8d 91 73 6c 72 95 9b 6e 6f 71     ...}z...slr..noq
    732b:	84 96 8e 68 6e 7b 7b 9e 8b 5c 72 6f 98 9f 80 6a     ...hn{{..\ro...j
    733b:	6e 72 88 8f 93 5c 71 6b 92 96 92 7f 64 66 77 9e     nr...\qk....dfw.
    734b:	99 97 61 5f 6d 8d 99 9f 86 5c 65 6d 90 9b 9c 7a     ..a_m....\em...z
    735b:	68 5d 70 8d a0 97 7c 70 66 71 78 8d 90 8a 7e 7c     h]p...|pfqx...~|
    736b:	7c 73 72 83 92 8e 93 74 72 78 74 7c 8c 82 8c 7e     |sr....trxt|...~
    737b:	7d 7a 82 80 7b 80 77 81 87 8f 86 77 78 7b 83 77     }z..{.w....wx{.w
    738b:	7a 76 7b 84 91 8e 7d 74 71 85 7e 85 72 7b 77 8d     zv{...}tq.~.r{w.
    739b:	8a 86 7e 7e 74 79 89 8a 80 7b 71 6b 75 81 94 8c     ..~~ty...{qku...
    73ab:	89 78 82 7b 82 89 7e 77 73 77 7b 82 84 8d 7f 79     .x.{..~wsw{....y
    73bb:	81 7f 7e 89 82 7e 7f 7d 7f 77 78 7c 8a 73 79 8b     ..~..~.}.wx|.sy.
    73cb:	58 9c 70 a8 75 83 76 65 af 6d b1 5d 6e 87 64 a8     X.p.u.ve.m.]n.d.
    73db:	79 84 7c 72 9b 7b 89 74 70 8e 7e 83 76 70 94 89     y.|r.{.tp.~.vp..
    73eb:	77 78 74 93 89 7a 78 7a 7f 82 78 8b 8d 73 7f 66     wxt..zxz..x..s.f
    73fb:	87 89 74 94 88 7d 5d 72 8d 8b 82 7e a4 7a 5c 97     ..t..}]r...~.z\.
    740b:	6d 84 7c 69 a9 69 81 ab 5e 8d 91 6e 80 7a 6f 75     m.|i.i..^..n.zou
    741b:	6f 6b 89 67 7d 9f 63 88 96 67 8d 9f 62 85 a6 66     ok.g}.c..g..b..f
    742b:	8b 9f 5c 88 9b 61 8c 8d 5c 86 8a 57 82 79 52 86     ..\..a..\..W.yR.
    743b:	6d 6c 81 70 91 83 84 9f 82 8a 98 7a 82 89 6d 7c     ml.p.......z..m|
    744b:	71 7e 83 6f 99 7d 68 97 79 74 85 87 7b 6d 93 7c     q~.o.}h.yt..{m.|
    745b:	6f 91 87 84 7b 8e 7d 62 7f 88 87 7a 93 79 6b 8d     o...{.}b...z.yk.
    746b:	88 81 6b 9d 6a 82 78 88 74 77 8a 91 82 75 a0 77     ..k.j.x.tw...u.w
    747b:	8a 71 91 80 8a 7d 8a 70 8b 76 8d 6e 92 6f 8e 79     .q...}.p.v.n.o.y
    748b:	94 80 7d 8b 83 78 7a 84 6e 9b 63 9a 57 ad 51 95     ..}..xz.n.c.W.Q.
    749b:	67 95 67 87 81 73 98 67 98 67 95 63 94 77 74 98     g.g..s.g.g.c.wt.
    74ab:	69 91 76 7b 87 7a 80 6f 8e 7b 8b 71 79 91 7b 85     i.v{.z.o.{.qy.{.
    74bb:	75 7d 87 81 86 78 7f 84 7b 90 6a 80 72 85 90 78     u}...x..{.j.r..x
    74cb:	75 72 87 8c 7f 72 7d 79 82 95 79 72 85 6f 94 9a     ur...r}y..yr.o..
    74db:	68 7f 7b 79 8c 8b 75 77 7c 73 91 90 7c 6e 7e 6a     h.{y..uw|s..|n~j
    74eb:	91 7d 9f 6e 74 78 83 8c 87 94 67 71 7d 85 88 8f     .}.ntx....gq}...
    74fb:	88 64 63 80 7c 90 8a 8b 6f 6b 81 8c 89 85 8f 78     .dc.|...ok.....x
    750b:	79 79 7c 7f 81 89 8b 81 71 87 6d 84 84 8d 86 80     yy|.....q.m.....
    751b:	7a 7a 84 77 83 7c 7a 84 7b 89 75 81 81 86 74 71     zz.w.|z.{.u...tq
    752b:	84 82 86 84 7d 76 7c 85 89 7c 74 74 7b 8c 8d 84     ....}v|..|tt{...
    753b:	76 77 7e 7f 87 86 8c 6f 74 7c 88 89 8a 82 72 74     vw~....ot|....rt
    754b:	80 86 85 80 7c 7a 74 80 77 7c 7d 8e 8b 88 7f 78     ....|zt.w|}....x
    755b:	78 7b 7a 87 7a 81 7a 7d 81 80 87 85 7f 75 7b 7e     x{z.z.z}.....u{~
    756b:	74 85 7c 81 76 81 5e 8c 71 93 81 76 7d 68 90 7f     t.|.v.^.q..v}h..
    757b:	98 6d 77 81 74 93 80 7f 7a 77 8d 7b 7b 6f 74 8f     .mw.t...zw.{{ot.
    758b:	86 7f 6e 77 89 88 81 73 78 7f 83 85 7e 85 74 77     ..nw...sx...~.tw
    759b:	71 90 93 7d 7f 72 7d 76 7b 92 96 7e 70 76 79 72     q..}.r}v{..~pvyr
    75ab:	7f 89 98 80 77 95 7d 6f 81 6e 85 72 84 90 74 87     ....w.}o.n.r..t.
    75bb:	9e 80 8f 9b 79 80 7c 72 6c 70 6d 76 74 71 79 6e     ....y.|rlpmvtqyn
    75cb:	79 70 63 78 76 68 79 71 5f 72 6d 64 73 6c 68 75     ypcxvhyq_rmdslhu
    75db:	75 78 7a 7e 7f 89 7e 8f 8d 8b 98 83 88 84 73 7b     uxz~..~.......s{
    75eb:	77 77 84 6c 83 83 77 94 7f 7b 84 7d 84 7f 7a 7f     ww.l..w..{.}..z.
    75fb:	77 89 82 76 84 7a 86 82 88 7c 6c 82 7d 8d 83 8d     w..v.z...|l.}...
    760b:	7d 6d 85 86 85 7b 8b 70 81 83 82 83 81 91 90 91     }m...{.p........
    761b:	73 8a 77 81 75 79 73 77 75 7a 66 7f 76 77 70 85     s.w.uyswuzf.vwp.
    762b:	71 7c 69 8e 73 81 6f 98 71 8c 7e 91 7c 8d 92 7f     q|i.s.o.q.~.|...
    763b:	83 7c 80 6d 97 6d 87 72 90 6a 8a 7f 7b 8c 79 94     .|.m.m.r.j..{.y.
    764b:	7b 91 6d 85 6f 74 8b 7c 89 82 7c 81 7c 8d 83 8b     {.m.ot.|..|.|...
    765b:	7c 85 7f 86 87 80 87 84 89 87 80 7f 7e 85 7c 82     |...........~.|.
    766b:	7e 72 75 6c 7c 7f 80 7f 88 7f 7f 8c 76 79 78 7f     ~rul|.......vyx.
    767b:	76 82 6e 7a 75 88 81 7f 73 79 6e 8b 70 8d 72 7e     v.nzu...syn.p.r~
    768b:	80 87 82 8b 81 7c 80 6c 8c 79 8e 71 7c 7b 7f 7f     .....|.l.y.q|{..
    769b:	8e 89 74 7f 77 7d 79 85 80 7d 7d 7a 7c 89 7d 85     ..t.w}y..}}z|.}.
    76ab:	76 81 7d 7f 78 87 7b 83 7c 85 78 82 83 85 7d 7d     v.}.x.{.|.x...}}
    76bb:	7a 74 87 6f 8c 7e 84 7f 82 7d 85 81 83 78 7b 7a     zt.o.~...}...x{z
    76cb:	7f 7a 84 7f 7a 80 7c 85 72 87 78 86 78 88 7a 7f     .z..z.|.r.x.x.z.
    76db:	7e 7c 7e 82 7d 7b 7a 7e 7d 83 7e 7b 7f 7a 82 7d     ~|~.}{z~}.~{.z.}
    76eb:	82 80 84 76 84 76 82 80 84 7d 7a 7f 85 80 81 7c     ...v.v...}z....|
    76fb:	7b 7d 7d 7e 83 82 7d 7c 7e 85 82 86 79 7e 7a 82     {}}~..}|~...y~z.
    770b:	7e 80 80 7f 7d 7f 86 82 81 80 7f 7d 7d 7f 7e 82     ~...}......}}.~.
    771b:	7a 80 7c 7d 84 81 82 7d 7b 7f 7f 80 7c 81 7d 7f     z.|}...}{...|.}.
    772b:	84 81 81 7e 7e 82 84 7f 7c 7b 7d 82 80 7f 7f 7a     ...~~...|{}....z
    773b:	83 7e 81 82 7a 7c 7b 82 84 7e 80 7f 7e 7c 7e 80     .~..z|{..~..~|~.
    774b:	85 7d 7f 7e 7d 7a 7f 80 80 7d 7e 84 7e 7e 81 7e     .}.~}z...}~.~~.~
    775b:	7e 7d 7b 81 79 7f 7f 7c 7f 83 80 80 87 7e 82 82     ~}{.y..|.....~..
    776b:	7e 82 82 7e 81 82 80 81 83 7c 81 82                 ~..~.....|..

00007777 <_ZL18Wave_tank_moving_2>:
    7777:	01 01 88 13 00 00 88 13 00 00 01 08 a9 05 00 00     ................
    7787:	75 75 75 81 7a 7d 7e 80 84 80 80 80 80 80 83 84     uuu.z}~.........
    7797:	7f 88 89 92 8a 8d 80 87 80 7f 82 7e 80 78 80 7b     ...........~.x.{
    77a7:	87 7f 83 80 8e 87 8f 87 8e 84 86 80 83 7b 85 78     .............{.x
    77b7:	7f 78 7d 75 75 76 73 71 75 78 79 72 76 6d 71 6e     .x}uuvsquxyrvmqn
    77c7:	6c 6f 6e 71 74 75 77 7b 82 83 87 82 85 87 89 84     lonqtuw{........
    77d7:	89 88 8a 86 86 87 88 87 86 86 86 87 84 86 87 85     ................
    77e7:	84 87 83 83 81 87 83 84 81 84 82 80 81 7d 7e 7e     .............}~~
    77f7:	80 80 7e 7d 7f 7c 7f 7b 83 7f 84 7f 7e 7c 83 77     ..~}.|.{....~|.w
    7807:	79 77 6e 72 71 71 70 71 76 77 75 75 75 78 7a 7f     ywnrqqpqvwuuuxz.
    7817:	81 7e 7e 80 7c 81 81 80 83 87 84 88 88 89 88 87     .~~.|...........
    7827:	85 86 86 83 82 83 82 81 80 82 81 82 86 87 86 84     ................
    7837:	85 87 85 87 87 88 88 83 86 82 7d 7b 7a 78 7b 7b     ..........}{zx{{
    7847:	78 77 74 74 73 74 74 71 6d 6b 6d 6f 70 72 75 73     xwttsttqmkmoprus
    7857:	77 76 7a 7b 7f 83 83 80 84 85 86 86 8a 88 8a 87     wvz{............
    7867:	8c 87 87 85 83 82 81 85 85 84 84 84 86 85 88 89     ................
    7877:	88 89 86 86 84 86 7f 7f 7e 7c 7d 82 85 81 80 81     ........~|}.....
    7887:	80 76 78 7a 7f 7c 7b 7c 79 73 73 74 74 77 76 72     .vxz.|{|yssttwvr
    7897:	77 7b 75 76 78 76 73 74 79 7c 7b 7b 7d 7d 79 7d     w{uvxvsty|{{}}y}
    78a7:	80 7f 7e 84 84 82 85 87 86 86 88 85 85 8b 89 8a     ..~.............
    78b7:	86 87 8a 84 88 8c 87 8e 8b 89 8e 94 93 8a 91 85     ................
    78c7:	84 89 81 81 82 80 7f 74 7a 6d 7e 6b 79 6c 72 73     .......tzm~kylrs
    78d7:	6e 71 6b 66 6b 6c 6c 69 73 6f 7a 7a 71 7a 79 7d     nqkfkllisozzqzy}
    78e7:	75 7e 80 81 81 84 85 8a 7f 8a 8d 88 85 8a 8f 88     u~..............
    78f7:	85 8a 8c 87 84 87 89 85 83 85 8e 8b 89 88 8c 8a     ................
    7907:	8b 8b 89 87 83 86 86 82 7f 7f 7f 7f 7d 7b 7c 74     ............}{|t
    7917:	74 71 73 6e 6f 6c 6d 6c 6e 70 76 75 7b 7c 75 76     tqsnolmlnpvu{|uv
    7927:	7d 7e 78 7b 7a 7d 7d 76 7a 7e 7e 80 84 80 84 83     }~x{z}}vz~~.....
    7937:	86 8a 8a 87 87 8a 89 83 86 87 82 7e 84 83 82 80     ...........~....
    7947:	87 7f 82 85 8b 89 87 85 92 88 8a 87 87 87 85 83     ................
    7957:	81 7f 7a 7d 7a 78 78 76 6e 72 70 6b 6c 6a 6d 70     ..z}zxxvnrpkljmp
    7967:	6f 73 77 6e 73 74 76 76 77 7f 80 81 7e 82 84 84     oswnstvvw...~...
    7977:	84 86 89 8a 8a 8b 89 8b 89 8c 86 83 84 83 89 80     ................
    7987:	81 7f 82 82 82 81 88 88 85 84 85 87 83 81 83 84     ................
    7997:	84 82 87 85 84 81 86 82 79 7e 79 80 72 74 7c 75     ........y~y.rt|u
    79a7:	72 78 71 78 75 70 75 72 6f 71 79 7e 79 79 74 7b     rxqxupuroqy~yyt{
    79b7:	6e 76 74 76 77 77 7e 7e 7a 84 84 88 86 89 88 85     nvtvww~~z.......
    79c7:	83 86 86 85 86 8b 8a 8b 88 8d 8a 8e 8d 8a 8b 8b     ................
    79d7:	8d 84 80 80 83 80 7d 88 88 86 7f 86 86 81 7d 81     ......}.......}.
    79e7:	7c 7e 71 79 70 6d 6f 74 6e 6a 6c 6d 72 72 6f 72     |~qypmotnjlmrror
    79f7:	6d 6a 6f 6f 70 73 78 7c 80 81 85 86 84 86 88 8d     mjoopsx|........
    7a07:	8c 8f 8f 8b 8c 89 87 88 89 8b 8c 8e 8d 8e 8d 91     ................
    7a17:	8e 88 8a 8c 88 82 83 88 7f 7a 78 7f 7a 7e 7d 7e     .........zx.z~}~
    7a27:	76 74 74 7b 73 76 79 75 7c 71 7b 7a 74 7a 77 75     vtt{svyu|q{ztzwu
    7a37:	74 71 74 78 74 73 72 78 72 74 78 7d 7e 7d 7f 85     tqtxtsrxrtx}~}..
    7a47:	80 7f 82 84 84 83 86 87 87 84 85 87 87 88 8a 8a     ................
    7a57:	8a 89 89 89 8c 8b 89 83 82 89 89 8d 89 89 82 81     ................
    7a67:	84 86 82 80 83 82 7f 7b 79 79 75 74 74 71 73 75     .......{yyuttqsu
    7a77:	6f 71 75 71 74 77 72 72 6f 75 76 78 77 77 7a 7a     oquqtwrrouvxwwzz
    7a87:	78 7a 79 7a 7d 7b 7f 81 84 85 85 86 85 86 88 87     xzyz}{..........
    7a97:	86 85 8a 86 87 86 87 89 81 87 85 8c 87 86 8b 88     ................
    7aa7:	8c 86 8a 8b 88 87 8b 86 85 81 8c 7e 85 7c 82 7d     ...........~.|.}
    7ab7:	76 74 73 73 70 6d 71 6f 69 6b 72 6d 6c 6e 71 72     vtsspmqoikrmlnqr
    7ac7:	73 73 7f 7b 7e 81 8a 7e 82 84 85 85 87 82 86 85     ss.{~..~........
    7ad7:	87 86 8c 87 89 86 85 86 89 85 86 86 89 85 83 84     ................
    7ae7:	87 85 86 83 84 81 83 89 89 8d 8a 89 89 86 84 83     ................
    7af7:	81 7f 7f 7c 77 74 75 6c 6a 6f 6a 69 69 6d 6d 6d     ...|wtuljojiimmm
    7b07:	6b 72 71 70 71 75 7a 77 79 7d 80 85 80 85 86 86     krqpquzwy}......
    7b17:	86 87 8e 8a 89 8c 8a 89 89 8d 8a 88 89 89 89 86     ................
    7b27:	87 84 83 7e 82 83 82 82 7f 7e 7d 7c 7b 7c 7c 7e     ...~.....~}|{||~
    7b37:	7e 7f 83 85 84 82 84 81 79 7d 7b 7d 7d 7e 7d 7d     ~.......y}{}}~}}
    7b47:	79 7d 75 6e 71 75 6d 70 74 7a 7a 72 7b 76 76 75     y}unqumptzzr{vvu
    7b57:	7c 80 7a 7b 85 7a 88 83 86 8d 7a 93 81 83 90 8f     |.z{.z....z.....
    7b67:	78 83 79 99 71 90 92 6d 96 73 69 99 78 86 73 86     x.y.q..m.si.x.s.
    7b77:	86 89 68 93 64 97 66 94 84 81 87 76 85 75 86 77     ..h.d.f....v.u.w
    7b87:	6d 74 6f 83 7a 71 71 83 66 86 69 75 7d 6e 71 75     mto.zqq.f.iu}nqu
    7b97:	7d 76 82 7b 82 7e 87 86 7f 87 82 84 83 94 7d 97     }v.{.~........}.
    7ba7:	7e 88 83 92 81 95 77 96 7e 84 93 7f 8c 89 93 80     ~.....w.~.......
    7bb7:	85 7e 93 76 7e 77 86 74 87 7c 82 78 77 72 7e 79     .~.v~w.t.|.xwr~y
    7bc7:	81 81 7b 74 80 78 7a 77 71 79 70 71 7c 73 7f 80     ..{t.xzwqypq|s..
    7bd7:	7b 7f 6e 7c 76 73 7a 76 80 7e 7a 85 85 7b 82 80     {.n|vszv.~z..{..
    7be7:	7e 7f 82 7f 83 80 86 84 82 83 85 88 8a 88 8c 8c     ~...............
    7bf7:	8d 85 87 8f 8a 8d 87 81 85 88 82 83 7d 82 80 7d     ............}..}
    7c07:	7e 7c 78 73 6d 74 73 77 71 73 75 71 70 72 77 78     ~|xsmtswqsuqprwx
    7c17:	73 7a 76 79 78 76 7e 7b 7e 77 7f 7d 7e 7c 81 84     szvyxv~{~w.}~|..
    7c27:	81 86 84 86 87 89 82 8a 81 8a 84 8d 86 91 7d 8b     ..............}.
    7c37:	7c 85 87 83 89 84 87 82 7a 87 7a 88 7b 89 7d 87     |.......z.z.{.}.
    7c47:	7f 7e 7c 80 7d 7f 84 77 7d 73 79 7b 79 78 76 6d     .~|.}..w}sy{yxvm
    7c57:	73 70 76 78 77 7b 76 79 79 7c 80 7e 82 79 89 7d     spvxw{vyy|.~.y.}
    7c67:	84 81 87 86 85 85 84 83 83 82 82 84 88 80 80 7f     ................
    7c77:	80 82 7d 81 82 81 81 83 88 84 83 85 87 8b 89 8a     ..}.............
    7c87:	89 89 87 86 83 84 81 7e 80 76 80 76 75 72 76 69     .......~.v.vurvi
    7c97:	6e 6a 6c 6b 6c 69 6d 72 75 71 75 75 77 7b 79 7d     njlklimruquuw{y}
    7ca7:	81 83 85 83 85 8f 8e 8e 8e 8b 8a 86 8a 91 88 88     ................
    7cb7:	86 87 82 87 8d 89 87 84 8a 80 86 80 82 7f 80 81     ................
    7cc7:	7b 7b 80 7e 7c 7b 82 7d 84 81 82 7e 7e 79 7c 88     {{.~|{.}...~~y|.
    7cd7:	7a 81 7b 80 7b 83 7c 6c 6e 69 6b 69 73 71 76 73     z.{.{.|lnikisqvs
    7ce7:	73 76 7c 7b 7e 7d 7a 7d 83 82 87 88 87 81 87 89     sv|{~}z}........
    7cf7:	8b 86 83 87 87 84 88 91 8b 84 84 84 86 86 8a 87     ................
    7d07:	85 85 84 84 82 88 84 83 7e 85 85 82 80 82 81 80     ........~.......
    7d17:	7b 78 78 72 75 72 75 6d 6e 70 73 6b 6c 6a 70 71     {xxrurumnpskljpq
    7d27:	71 71 75 76 79 7a 7c 7d 83 83                       qquvyz|}..

00007d31 <_ZL9BMP_Reset>:
    7d31:	42 4d 12 00 01 00 00 00 08 00 08 00 01 00 08 00     BM..............
    7d41:	00 00 3c 3c 3c 18 00 7e c3 00                       ..<<<..~..

00007d4b <_ZL9BMP_cobra>:
    7d4b:	42 4d 12 00 01 00 00 00 08 00 08 00 01 00 08 00     BM..............
    7d5b:	00 00 ff 81 bd a5 a5 b1 81 ff                       ..........

00007d65 <_ZL12BMP_Calendar>:
    7d65:	42 4d 12 00 01 00 00 00 08 00 08 00 01 00 08 00     BM..............
    7d75:	00 00 00 3e 6a 42 6a 42 7e 00                       ...>jBjB~.

00007d7f <_ZL12BMP_clockSet>:
    7d7f:	42 4d 12 00 01 00 00 00 08 00 08 00 01 00 08 00     BM..............
    7d8f:	00 00 b8 54 92 f2 82 44 3a 01                       ...T...D:.

00007d99 <_ZL10BMP_Clock2>:
    7d99:	42 4d 12 00 01 00 00 00 08 00 08 00 01 00 08 00     BM..............
    7da9:	00 00 3c 46 89 99 99 85 42 3c                       ..<F....B<

00007db3 <_ZL9BMP_clock>:
    7db3:	42 4d 12 00 01 00 00 00 08 00 08 00 01 00 08 00     BM..............
    7dc3:	00 00 3c 46 89 99 f9 81 42 3c                       ..<F....B<

00007dcd <_ZL16BMP_SHIP_DOT_2_3>:
    7dcd:	42 4d 12 00 01 00 00 00 02 00 02 00 01 00 02 00     BM..............
    7ddd:	00 00 ff ff                                         ....

00007de1 <_ZL16BMP_SHIP_DOT_2_2>:
    7de1:	42 4d 12 00 01 00 00 00 02 00 02 00 01 00 02 00     BM..............
    7df1:	00 00 40 c0                                         ..@.

00007df5 <_ZL16BMP_SHIP_DOT_2_1>:
    7df5:	42 4d 12 00 01 00 00 00 02 00 02 00 01 00 02 00     BM..............
    7e05:	00 00 80 c0                                         ....

00007e09 <_ZL14BMP_SHIP_DOT_1>:
    7e09:	42 4d 12 00 01 00 00 00 01 00 01 00 01 00 01 00     BM..............
    7e19:	00 00 ff                                            ...

00007e1c <_ZL12BMP_Ship_3_2>:
    7e1c:	42 4d 12 00 01 00 00 00 03 00 02 00 01 00 02 00     BM..............
    7e2c:	00 00 e0 40                                         ...@

00007e30 <_ZL12BMP_Ship_3_1>:
    7e30:	42 4d 12 00 01 00 00 00 03 00 02 00 01 00 02 00     BM..............
    7e40:	00 00 40 e0                                         ..@.

00007e44 <_ZL12BMP_Ship_2_2>:
    7e44:	42 4d 12 00 01 00 00 00 03 00 02 00 01 00 02 00     BM..............
    7e54:	00 00 e0 e0                                         ....

00007e58 <_ZL12BMP_Ship_2_1>:
    7e58:	42 4d 12 00 01 00 00 00 03 00 02 00 01 00 02 00     BM..............
    7e68:	00 00 e0 40                                         ...@

00007e6c <_ZL12BMP_Ship_1_2>:
    7e6c:	42 4d 12 00 01 00 00 00 03 00 02 00 01 00 02 00     BM..............
    7e7c:	00 00 e0 40                                         ...@

00007e80 <_ZL12BMP_Ship_1_1>:
    7e80:	42 4d 12 00 01 00 00 00 03 00 02 00 01 00 02 00     BM..............
    7e90:	00 00 e0 a0                                         ....

00007e94 <_ZL15BMP_Mother_Ship>:
    7e94:	42 4d 12 00 01 00 00 00 06 00 02 00 01 00 02 00     BM..............
    7ea4:	00 00 30 78                                         ..0x

00007ea8 <__ctors_start>:
    7ea8:	db 40       	sbci	r29, 0x0B	; 11
    7eaa:	6a 41       	sbci	r22, 0x1A	; 26
    7eac:	eb 41       	sbci	r30, 0x1B	; 27
    7eae:	f2 48       	sbci	r31, 0x82	; 130
    7eb0:	fa 61       	ori	r31, 0x1A	; 26
    7eb2:	91 65       	ori	r25, 0x51	; 81
    7eb4:	91 66       	ori	r25, 0x61	; 97
    7eb6:	55 69       	ori	r21, 0x95	; 149

00007eb8 <__ctors_end>:
    7eb8:	df 40       	sbci	r29, 0x0F	; 15
    7eba:	ef 41       	sbci	r30, 0x1F	; 31
    7ebc:	f6 48       	sbci	r31, 0x86	; 134
    7ebe:	30 62       	ori	r19, 0x20	; 32
    7ec0:	99 65       	ori	r25, 0x59	; 89
    7ec2:	6f 69       	ori	r22, 0x9F	; 159

00007ec4 <__dtors_end>:
    7ec4:	11 24       	eor	r1, r1
    7ec6:	1f be       	out	0x3f, r1	; 63
    7ec8:	cf ef       	ldi	r28, 0xFF	; 255
    7eca:	d0 e1       	ldi	r29, 0x10	; 16
    7ecc:	de bf       	out	0x3e, r29	; 62
    7ece:	cd bf       	out	0x3d, r28	; 61

00007ed0 <__do_copy_data>:
    7ed0:	12 e0       	ldi	r17, 0x02	; 2
    7ed2:	a0 e0       	ldi	r26, 0x00	; 0
    7ed4:	b1 e0       	ldi	r27, 0x01	; 1
    7ed6:	e0 e0       	ldi	r30, 0x00	; 0
    7ed8:	fb ed       	ldi	r31, 0xDB	; 219
    7eda:	02 c0       	rjmp	.+4      	; 0x7ee0 <__do_copy_data+0x10>
    7edc:	05 90       	lpm	r0, Z+
    7ede:	0d 92       	st	X+, r0
    7ee0:	a2 3e       	cpi	r26, 0xE2	; 226
    7ee2:	b1 07       	cpc	r27, r17
    7ee4:	d9 f7       	brne	.-10     	; 0x7edc <__do_copy_data+0xc>

00007ee6 <__do_clear_bss>:
    7ee6:	29 e0       	ldi	r18, 0x09	; 9
    7ee8:	a2 ee       	ldi	r26, 0xE2	; 226
    7eea:	b2 e0       	ldi	r27, 0x02	; 2
    7eec:	01 c0       	rjmp	.+2      	; 0x7ef0 <.do_clear_bss_start>

00007eee <.do_clear_bss_loop>:
    7eee:	1d 92       	st	X+, r1

00007ef0 <.do_clear_bss_start>:
    7ef0:	a1 36       	cpi	r26, 0x61	; 97
    7ef2:	b2 07       	cpc	r27, r18
    7ef4:	e1 f7       	brne	.-8      	; 0x7eee <.do_clear_bss_loop>

00007ef6 <__do_global_ctors>:
    7ef6:	1f e3       	ldi	r17, 0x3F	; 63
    7ef8:	cc e5       	ldi	r28, 0x5C	; 92
    7efa:	df e3       	ldi	r29, 0x3F	; 63
    7efc:	04 c0       	rjmp	.+8      	; 0x7f06 <__do_global_ctors+0x10>
    7efe:	21 97       	sbiw	r28, 0x01	; 1
    7f00:	fe 01       	movw	r30, r28
    7f02:	0e 94 fb 69 	call	0xd3f6	; 0xd3f6 <__tablejump2__>
    7f06:	c4 35       	cpi	r28, 0x54	; 84
    7f08:	d1 07       	cpc	r29, r17
    7f0a:	c9 f7       	brne	.-14     	; 0x7efe <__do_global_ctors+0x8>
    7f0c:	0e 94 73 69 	call	0xd2e6	; 0xd2e6 <main>
    7f10:	0c 94 73 6d 	jmp	0xdae6	; 0xdae6 <__do_global_dtors>

00007f14 <__bad_interrupt>:
    7f14:	0c 94 00 00 	jmp	0	; 0x0 <__vectors>

00007f18 <_ZN9class_ADC13ADCInitializeEh>:
    7f18:	9f b7       	in	r25, 0x3f	; 63
    7f1a:	f8 94       	cli
    7f1c:	80 91 62 00 	lds	r24, 0x0062	; 0x800062 <__TEXT_REGION_LENGTH__+0x7f0062>
    7f20:	83 60       	ori	r24, 0x03	; 3
    7f22:	80 93 62 00 	sts	0x0062, r24	; 0x800062 <__TEXT_REGION_LENGTH__+0x7f0062>
    7f26:	80 91 61 00 	lds	r24, 0x0061	; 0x800061 <__TEXT_REGION_LENGTH__+0x7f0061>
    7f2a:	8c 7f       	andi	r24, 0xFC	; 252
    7f2c:	80 93 61 00 	sts	0x0061, r24	; 0x800061 <__TEXT_REGION_LENGTH__+0x7f0061>
    7f30:	c4 9a       	sbi	0x18, 4	; 24
    7f32:	bc 98       	cbi	0x17, 4	; 23
    7f34:	87 b1       	in	r24, 0x07	; 7
    7f36:	8f 73       	andi	r24, 0x3F	; 63
    7f38:	87 b9       	out	0x07, r24	; 7
    7f3a:	3e 9a       	sbi	0x07, 6	; 7
    7f3c:	3d 9a       	sbi	0x07, 5	; 7
    7f3e:	87 b1       	in	r24, 0x07	; 7
    7f40:	80 7f       	andi	r24, 0xF0	; 240
    7f42:	87 b9       	out	0x07, r24	; 7
    7f44:	61 11       	cpse	r22, r1
    7f46:	01 c0       	rjmp	.+2      	; 0x7f4a <_ZN9class_ADC13ADCInitializeEh+0x32>
    7f48:	61 e0       	ldi	r22, 0x01	; 1
    7f4a:	87 e0       	ldi	r24, 0x07	; 7
    7f4c:	67 fd       	sbrc	r22, 7
    7f4e:	03 c0       	rjmp	.+6      	; 0x7f56 <_ZN9class_ADC13ADCInitializeEh+0x3e>
    7f50:	66 0f       	add	r22, r22
    7f52:	81 50       	subi	r24, 0x01	; 1
    7f54:	fb cf       	rjmp	.-10     	; 0x7f4c <_ZN9class_ADC13ADCInitializeEh+0x34>
    7f56:	80 fd       	sbrc	r24, 0
    7f58:	02 c0       	rjmp	.+4      	; 0x7f5e <_ZN9class_ADC13ADCInitializeEh+0x46>
    7f5a:	30 98       	cbi	0x06, 0	; 6
    7f5c:	01 c0       	rjmp	.+2      	; 0x7f60 <_ZN9class_ADC13ADCInitializeEh+0x48>
    7f5e:	30 9a       	sbi	0x06, 0	; 6
    7f60:	81 fd       	sbrc	r24, 1
    7f62:	02 c0       	rjmp	.+4      	; 0x7f68 <_ZN9class_ADC13ADCInitializeEh+0x50>
    7f64:	31 98       	cbi	0x06, 1	; 6
    7f66:	01 c0       	rjmp	.+2      	; 0x7f6a <_ZN9class_ADC13ADCInitializeEh+0x52>
    7f68:	31 9a       	sbi	0x06, 1	; 6
    7f6a:	82 fd       	sbrc	r24, 2
    7f6c:	02 c0       	rjmp	.+4      	; 0x7f72 <_ZN9class_ADC13ADCInitializeEh+0x5a>
    7f6e:	32 98       	cbi	0x06, 2	; 6
    7f70:	01 c0       	rjmp	.+2      	; 0x7f74 <_ZN9class_ADC13ADCInitializeEh+0x5c>
    7f72:	32 9a       	sbi	0x06, 2	; 6
    7f74:	86 b1       	in	r24, 0x06	; 6
    7f76:	80 6c       	ori	r24, 0xC0	; 192
    7f78:	86 b9       	out	0x06, r24	; 6
    7f7a:	36 99       	sbic	0x06, 6	; 6
    7f7c:	fe cf       	rjmp	.-4      	; 0x7f7a <_ZN9class_ADC13ADCInitializeEh+0x62>
    7f7e:	9f bf       	out	0x3f, r25	; 63
    7f80:	08 95       	ret

00007f82 <_ZN9class_ADC10InitializeEv>:
    7f82:	cf 93       	push	r28
    7f84:	cf b7       	in	r28, 0x3f	; 63
    7f86:	f8 94       	cli
    7f88:	60 e4       	ldi	r22, 0x40	; 64
    7f8a:	0e 94 8c 3f 	call	0x7f18	; 0x7f18 <_ZN9class_ADC13ADCInitializeEh>
    7f8e:	e3 ee       	ldi	r30, 0xE3	; 227
    7f90:	f2 e0       	ldi	r31, 0x02	; 2
    7f92:	80 e0       	ldi	r24, 0x00	; 0
    7f94:	92 e0       	ldi	r25, 0x02	; 2
    7f96:	91 83       	std	Z+1, r25	; 0x01
    7f98:	80 83       	st	Z, r24
    7f9a:	93 83       	std	Z+3, r25	; 0x03
    7f9c:	82 83       	std	Z+2, r24	; 0x02
    7f9e:	c4 9a       	sbi	0x18, 4	; 24
    7fa0:	bc 98       	cbi	0x17, 4	; 23
    7fa2:	cf bf       	out	0x3f, r28	; 63
    7fa4:	cf 91       	pop	r28
    7fa6:	08 95       	ret

00007fa8 <_ZN9class_ADC12UnInitializeEv>:
    7fa8:	8f b7       	in	r24, 0x3f	; 63
    7faa:	f8 94       	cli
    7fac:	c4 98       	cbi	0x18, 4	; 24
    7fae:	bc 98       	cbi	0x17, 4	; 23
    7fb0:	8f bf       	out	0x3f, r24	; 63
    7fb2:	08 95       	ret

00007fb4 <_ZN9class_ADCC1Ev>:
    7fb4:	20 91 e2 02 	lds	r18, 0x02E2	; 0x8002e2 <__data_end>
    7fb8:	21 11       	cpse	r18, r1
    7fba:	05 c0       	rjmp	.+10     	; 0x7fc6 <_ZN9class_ADCC1Ev+0x12>
    7fbc:	21 e0       	ldi	r18, 0x01	; 1
    7fbe:	20 93 e2 02 	sts	0x02E2, r18	; 0x8002e2 <__data_end>
    7fc2:	0c 94 c1 3f 	jmp	0x7f82	; 0x7f82 <_ZN9class_ADC10InitializeEv>
    7fc6:	08 95       	ret

00007fc8 <_ZN9class_ADCD1Ev>:
    7fc8:	0c 94 d4 3f 	jmp	0x7fa8	; 0x7fa8 <_ZN9class_ADC12UnInitializeEv>

00007fcc <_ZN9class_ADC8getValueE10ADCChannel>:
    7fcc:	87 b1       	in	r24, 0x07	; 7
    7fce:	80 7f       	andi	r24, 0xF0	; 240
    7fd0:	87 b9       	out	0x07, r24	; 7
    7fd2:	3d 98       	cbi	0x07, 5	; 7
    7fd4:	66 23       	and	r22, r22
    7fd6:	21 f0       	breq	.+8      	; 0x7fe0 <_ZN9class_ADC8getValueE10ADCChannel+0x14>
    7fd8:	61 30       	cpi	r22, 0x01	; 1
    7fda:	21 f4       	brne	.+8      	; 0x7fe4 <_ZN9class_ADC8getValueE10ADCChannel+0x18>
    7fdc:	38 9a       	sbi	0x07, 0	; 7
    7fde:	02 c0       	rjmp	.+4      	; 0x7fe4 <_ZN9class_ADC8getValueE10ADCChannel+0x18>
    7fe0:	87 b1       	in	r24, 0x07	; 7
    7fe2:	87 b9       	out	0x07, r24	; 7
    7fe4:	36 9a       	sbi	0x06, 6	; 6
    7fe6:	36 99       	sbic	0x06, 6	; 6
    7fe8:	fe cf       	rjmp	.-4      	; 0x7fe6 <_ZN9class_ADC8getValueE10ADCChannel+0x1a>
    7fea:	24 b1       	in	r18, 0x04	; 4
    7fec:	35 b1       	in	r19, 0x05	; 5
    7fee:	8f ef       	ldi	r24, 0xFF	; 255
    7ff0:	93 e0       	ldi	r25, 0x03	; 3
    7ff2:	82 1b       	sub	r24, r18
    7ff4:	93 0b       	sbc	r25, r19
    7ff6:	08 95       	ret

00007ff8 <_ZN9class_ADC9calibrateEv>:
    7ff8:	8f 92       	push	r8
    7ffa:	9f 92       	push	r9
    7ffc:	af 92       	push	r10
    7ffe:	bf 92       	push	r11
    8000:	cf 92       	push	r12
    8002:	df 92       	push	r13
    8004:	ef 92       	push	r14
    8006:	ff 92       	push	r15
    8008:	0f 93       	push	r16
    800a:	1f 93       	push	r17
    800c:	cf 93       	push	r28
    800e:	8c 01       	movw	r16, r24
    8010:	c0 e1       	ldi	r28, 0x10	; 16
    8012:	c1 2c       	mov	r12, r1
    8014:	d1 2c       	mov	r13, r1
    8016:	76 01       	movw	r14, r12
    8018:	61 e0       	ldi	r22, 0x01	; 1
    801a:	c8 01       	movw	r24, r16
    801c:	0e 94 e6 3f 	call	0x7fcc	; 0x7fcc <_ZN9class_ADC8getValueE10ADCChannel>
    8020:	09 2e       	mov	r0, r25
    8022:	00 0c       	add	r0, r0
    8024:	aa 0b       	sbc	r26, r26
    8026:	bb 0b       	sbc	r27, r27
    8028:	c8 0e       	add	r12, r24
    802a:	d9 1e       	adc	r13, r25
    802c:	ea 1e       	adc	r14, r26
    802e:	fb 1e       	adc	r15, r27
    8030:	2f ef       	ldi	r18, 0xFF	; 255
    8032:	86 e7       	ldi	r24, 0x76	; 118
    8034:	91 e0       	ldi	r25, 0x01	; 1
    8036:	21 50       	subi	r18, 0x01	; 1
    8038:	80 40       	sbci	r24, 0x00	; 0
    803a:	90 40       	sbci	r25, 0x00	; 0
    803c:	e1 f7       	brne	.-8      	; 0x8036 <_ZN9class_ADC9calibrateEv+0x3e>
    803e:	00 c0       	rjmp	.+0      	; 0x8040 <_ZN9class_ADC9calibrateEv+0x48>
    8040:	00 00       	nop
    8042:	c1 50       	subi	r28, 0x01	; 1
    8044:	49 f7       	brne	.-46     	; 0x8018 <_ZN9class_ADC9calibrateEv+0x20>
    8046:	c7 01       	movw	r24, r14
    8048:	b6 01       	movw	r22, r12
    804a:	20 e1       	ldi	r18, 0x10	; 16
    804c:	30 e0       	ldi	r19, 0x00	; 0
    804e:	40 e0       	ldi	r20, 0x00	; 0
    8050:	50 e0       	ldi	r21, 0x00	; 0
    8052:	0e 94 ae 69 	call	0xd35c	; 0xd35c <__divmodsi4>
    8056:	49 01       	movw	r8, r18
    8058:	5a 01       	movw	r10, r20
    805a:	c0 e1       	ldi	r28, 0x10	; 16
    805c:	c1 2c       	mov	r12, r1
    805e:	d1 2c       	mov	r13, r1
    8060:	76 01       	movw	r14, r12
    8062:	60 e0       	ldi	r22, 0x00	; 0
    8064:	c8 01       	movw	r24, r16
    8066:	0e 94 e6 3f 	call	0x7fcc	; 0x7fcc <_ZN9class_ADC8getValueE10ADCChannel>
    806a:	09 2e       	mov	r0, r25
    806c:	00 0c       	add	r0, r0
    806e:	aa 0b       	sbc	r26, r26
    8070:	bb 0b       	sbc	r27, r27
    8072:	c8 0e       	add	r12, r24
    8074:	d9 1e       	adc	r13, r25
    8076:	ea 1e       	adc	r14, r26
    8078:	fb 1e       	adc	r15, r27
    807a:	2f ef       	ldi	r18, 0xFF	; 255
    807c:	86 e7       	ldi	r24, 0x76	; 118
    807e:	91 e0       	ldi	r25, 0x01	; 1
    8080:	21 50       	subi	r18, 0x01	; 1
    8082:	80 40       	sbci	r24, 0x00	; 0
    8084:	90 40       	sbci	r25, 0x00	; 0
    8086:	e1 f7       	brne	.-8      	; 0x8080 <_ZN9class_ADC9calibrateEv+0x88>
    8088:	00 c0       	rjmp	.+0      	; 0x808a <_ZN9class_ADC9calibrateEv+0x92>
    808a:	00 00       	nop
    808c:	c1 50       	subi	r28, 0x01	; 1
    808e:	49 f7       	brne	.-46     	; 0x8062 <_ZN9class_ADC9calibrateEv+0x6a>
    8090:	90 92 e4 02 	sts	0x02E4, r9	; 0x8002e4 <_adc+0x1>
    8094:	80 92 e3 02 	sts	0x02E3, r8	; 0x8002e3 <_adc>
    8098:	c7 01       	movw	r24, r14
    809a:	b6 01       	movw	r22, r12
    809c:	20 e1       	ldi	r18, 0x10	; 16
    809e:	30 e0       	ldi	r19, 0x00	; 0
    80a0:	40 e0       	ldi	r20, 0x00	; 0
    80a2:	50 e0       	ldi	r21, 0x00	; 0
    80a4:	0e 94 ae 69 	call	0xd35c	; 0xd35c <__divmodsi4>
    80a8:	30 93 e6 02 	sts	0x02E6, r19	; 0x8002e6 <_adc+0x3>
    80ac:	20 93 e5 02 	sts	0x02E5, r18	; 0x8002e5 <_adc+0x2>
    80b0:	cf 91       	pop	r28
    80b2:	1f 91       	pop	r17
    80b4:	0f 91       	pop	r16
    80b6:	ff 90       	pop	r15
    80b8:	ef 90       	pop	r14
    80ba:	df 90       	pop	r13
    80bc:	cf 90       	pop	r12
    80be:	bf 90       	pop	r11
    80c0:	af 90       	pop	r10
    80c2:	9f 90       	pop	r9
    80c4:	8f 90       	pop	r8
    80c6:	08 95       	ret

000080c8 <_ZN9class_ADC5getXYERiS0_>:
    80c8:	cf 92       	push	r12
    80ca:	df 92       	push	r13
    80cc:	ef 92       	push	r14
    80ce:	ff 92       	push	r15
    80d0:	0f 93       	push	r16
    80d2:	1f 93       	push	r17
    80d4:	cf 93       	push	r28
    80d6:	df 93       	push	r29
    80d8:	8c 01       	movw	r16, r24
    80da:	6b 01       	movw	r12, r22
    80dc:	7a 01       	movw	r14, r20
    80de:	61 e0       	ldi	r22, 0x01	; 1
    80e0:	0e 94 e6 3f 	call	0x7fcc	; 0x7fcc <_ZN9class_ADC8getValueE10ADCChannel>
    80e4:	c3 ee       	ldi	r28, 0xE3	; 227
    80e6:	d2 e0       	ldi	r29, 0x02	; 2
    80e8:	28 81       	ld	r18, Y
    80ea:	39 81       	ldd	r19, Y+1	; 0x01
    80ec:	82 1b       	sub	r24, r18
    80ee:	93 0b       	sbc	r25, r19
    80f0:	f6 01       	movw	r30, r12
    80f2:	91 83       	std	Z+1, r25	; 0x01
    80f4:	80 83       	st	Z, r24
    80f6:	60 e0       	ldi	r22, 0x00	; 0
    80f8:	c8 01       	movw	r24, r16
    80fa:	0e 94 e6 3f 	call	0x7fcc	; 0x7fcc <_ZN9class_ADC8getValueE10ADCChannel>
    80fe:	2a 81       	ldd	r18, Y+2	; 0x02
    8100:	3b 81       	ldd	r19, Y+3	; 0x03
    8102:	82 1b       	sub	r24, r18
    8104:	93 0b       	sbc	r25, r19
    8106:	f7 01       	movw	r30, r14
    8108:	91 83       	std	Z+1, r25	; 0x01
    810a:	80 83       	st	Z, r24
    810c:	df 91       	pop	r29
    810e:	cf 91       	pop	r28
    8110:	1f 91       	pop	r17
    8112:	0f 91       	pop	r16
    8114:	ff 90       	pop	r15
    8116:	ef 90       	pop	r14
    8118:	df 90       	pop	r13
    811a:	cf 90       	pop	r12
    811c:	08 95       	ret

0000811e <_ZN9class_ADC7getKeysER7ADCKeyXR7ADCKeyYR8ADCKeySW>:
    811e:	cf 92       	push	r12
    8120:	df 92       	push	r13
    8122:	ef 92       	push	r14
    8124:	ff 92       	push	r15
    8126:	0f 93       	push	r16
    8128:	1f 93       	push	r17
    812a:	cf 93       	push	r28
    812c:	df 93       	push	r29
    812e:	00 d0       	rcall	.+0      	; 0x8130 <_ZN9class_ADC7getKeysER7ADCKeyXR7ADCKeyYR8ADCKeySW+0x12>
    8130:	00 d0       	rcall	.+0      	; 0x8132 <_ZN9class_ADC7getKeysER7ADCKeyXR7ADCKeyYR8ADCKeySW+0x14>
    8132:	cd b7       	in	r28, 0x3d	; 61
    8134:	de b7       	in	r29, 0x3e	; 62
    8136:	7b 01       	movw	r14, r22
    8138:	8a 01       	movw	r16, r20
    813a:	69 01       	movw	r12, r18
    813c:	ae 01       	movw	r20, r28
    813e:	4f 5f       	subi	r20, 0xFF	; 255
    8140:	5f 4f       	sbci	r21, 0xFF	; 255
    8142:	be 01       	movw	r22, r28
    8144:	6d 5f       	subi	r22, 0xFD	; 253
    8146:	7f 4f       	sbci	r23, 0xFF	; 255
    8148:	0e 94 64 40 	call	0x80c8	; 0x80c8 <_ZN9class_ADC5getXYERiS0_>
    814c:	8b 81       	ldd	r24, Y+3	; 0x03
    814e:	9c 81       	ldd	r25, Y+4	; 0x04
    8150:	8b 3f       	cpi	r24, 0xFB	; 251
    8152:	91 05       	cpc	r25, r1
    8154:	14 f0       	brlt	.+4      	; 0x815a <_ZN9class_ADC7getKeysER7ADCKeyXR7ADCKeyYR8ADCKeySW+0x3c>
    8156:	81 e0       	ldi	r24, 0x01	; 1
    8158:	04 c0       	rjmp	.+8      	; 0x8162 <_ZN9class_ADC7getKeysER7ADCKeyXR7ADCKeyYR8ADCKeySW+0x44>
    815a:	86 30       	cpi	r24, 0x06	; 6
    815c:	9f 4f       	sbci	r25, 0xFF	; 255
    815e:	24 f4       	brge	.+8      	; 0x8168 <_ZN9class_ADC7getKeysER7ADCKeyXR7ADCKeyYR8ADCKeySW+0x4a>
    8160:	82 e0       	ldi	r24, 0x02	; 2
    8162:	f7 01       	movw	r30, r14
    8164:	80 83       	st	Z, r24
    8166:	02 c0       	rjmp	.+4      	; 0x816c <_ZN9class_ADC7getKeysER7ADCKeyXR7ADCKeyYR8ADCKeySW+0x4e>
    8168:	f7 01       	movw	r30, r14
    816a:	10 82       	st	Z, r1
    816c:	89 81       	ldd	r24, Y+1	; 0x01
    816e:	9a 81       	ldd	r25, Y+2	; 0x02
    8170:	89 3c       	cpi	r24, 0xC9	; 201
    8172:	91 05       	cpc	r25, r1
    8174:	14 f0       	brlt	.+4      	; 0x817a <_ZN9class_ADC7getKeysER7ADCKeyXR7ADCKeyYR8ADCKeySW+0x5c>
    8176:	81 e0       	ldi	r24, 0x01	; 1
    8178:	04 c0       	rjmp	.+8      	; 0x8182 <_ZN9class_ADC7getKeysER7ADCKeyXR7ADCKeyYR8ADCKeySW+0x64>
    817a:	88 33       	cpi	r24, 0x38	; 56
    817c:	9f 4f       	sbci	r25, 0xFF	; 255
    817e:	24 f4       	brge	.+8      	; 0x8188 <_ZN9class_ADC7getKeysER7ADCKeyXR7ADCKeyYR8ADCKeySW+0x6a>
    8180:	82 e0       	ldi	r24, 0x02	; 2
    8182:	f8 01       	movw	r30, r16
    8184:	80 83       	st	Z, r24
    8186:	02 c0       	rjmp	.+4      	; 0x818c <_ZN9class_ADC7getKeysER7ADCKeyXR7ADCKeyYR8ADCKeySW+0x6e>
    8188:	f8 01       	movw	r30, r16
    818a:	10 82       	st	Z, r1
    818c:	b4 9b       	sbis	0x16, 4	; 22
    818e:	04 c0       	rjmp	.+8      	; 0x8198 <_ZN9class_ADC7getKeysER7ADCKeyXR7ADCKeyYR8ADCKeySW+0x7a>
    8190:	81 e0       	ldi	r24, 0x01	; 1
    8192:	f6 01       	movw	r30, r12
    8194:	80 83       	st	Z, r24
    8196:	02 c0       	rjmp	.+4      	; 0x819c <_ZN9class_ADC7getKeysER7ADCKeyXR7ADCKeyYR8ADCKeySW+0x7e>
    8198:	f6 01       	movw	r30, r12
    819a:	10 82       	st	Z, r1
    819c:	0f 90       	pop	r0
    819e:	0f 90       	pop	r0
    81a0:	0f 90       	pop	r0
    81a2:	0f 90       	pop	r0
    81a4:	df 91       	pop	r29
    81a6:	cf 91       	pop	r28
    81a8:	1f 91       	pop	r17
    81aa:	0f 91       	pop	r16
    81ac:	ff 90       	pop	r15
    81ae:	ef 90       	pop	r14
    81b0:	df 90       	pop	r13
    81b2:	cf 90       	pop	r12
    81b4:	08 95       	ret

000081b6 <_GLOBAL__sub_I__ZN9class_ADC13ADCInitializeEh>:
    81b6:	87 ee       	ldi	r24, 0xE7	; 231
    81b8:	92 e0       	ldi	r25, 0x02	; 2
    81ba:	0c 94 c7 65 	jmp	0xcb8e	; 0xcb8e <_ZN11class_TimerC1Ev>

000081be <_GLOBAL__sub_D__ZN9class_ADC13ADCInitializeEh>:
    81be:	87 ee       	ldi	r24, 0xE7	; 231
    81c0:	92 e0       	ldi	r25, 0x02	; 2
    81c2:	0c 94 d0 65 	jmp	0xcba0	; 0xcba0 <_ZN11class_TimerD1Ev>

000081c6 <_ZN9class_I2C12UnInitializeEv>:
    81c6:	9f b7       	in	r25, 0x3f	; 63
    81c8:	f8 94       	cli
    81ca:	83 b1       	in	r24, 0x03	; 3
    81cc:	83 7f       	andi	r24, 0xF3	; 243
    81ce:	83 b9       	out	0x03, r24	; 3
    81d0:	83 b1       	in	r24, 0x03	; 3
    81d2:	83 7f       	andi	r24, 0xF3	; 243
    81d4:	83 b9       	out	0x03, r24	; 3
    81d6:	9f bf       	out	0x3f, r25	; 63
    81d8:	08 95       	ret

000081da <_ZN9class_I2CC1Ev>:
    81da:	1a 98       	cbi	0x03, 2	; 3
    81dc:	1b 98       	cbi	0x03, 3	; 3
    81de:	12 98       	cbi	0x02, 2	; 2
    81e0:	13 98       	cbi	0x02, 3	; 2
    81e2:	08 95       	ret

000081e4 <_ZN9class_I2CD1Ev>:
    81e4:	0c 94 e3 40 	jmp	0x81c6	; 0x81c6 <_ZN9class_I2C12UnInitializeEv>

000081e8 <_ZN9class_I2C8setSpeedE8I2CSpeed>:
    81e8:	e8 ee       	ldi	r30, 0xE8	; 232
    81ea:	f2 e0       	ldi	r31, 0x02	; 2
    81ec:	81 83       	std	Z+1, r24	; 0x01
    81ee:	10 82       	st	Z, r1
    81f0:	08 95       	ret

000081f2 <_ZN9class_I2C9I2C_DelayEv>:
    81f2:	80 91 e9 02 	lds	r24, 0x02E9	; 0x8002e9 <_i2c+0x1>
    81f6:	81 30       	cpi	r24, 0x01	; 1
    81f8:	51 f0       	breq	.+20     	; 0x820e <_ZN9class_I2C9I2C_DelayEv+0x1c>
    81fa:	20 f0       	brcs	.+8      	; 0x8204 <_ZN9class_I2C9I2C_DelayEv+0x12>
    81fc:	82 30       	cpi	r24, 0x02	; 2
    81fe:	b1 f4       	brne	.+44     	; 0x822c <_ZN9class_I2C9I2C_DelayEv+0x3a>
    8200:	80 e0       	ldi	r24, 0x00	; 0
    8202:	0a c0       	rjmp	.+20     	; 0x8218 <_ZN9class_I2C9I2C_DelayEv+0x26>
	#else
		//round up by default
		__ticks_dc = (uint32_t)(ceil(fabs(__tmp)));
	#endif

	__builtin_avr_delay_cycles(__ticks_dc);
    8204:	85 e1       	ldi	r24, 0x15	; 21
    8206:	8a 95       	dec	r24
    8208:	f1 f7       	brne	.-4      	; 0x8206 <_ZN9class_I2C9I2C_DelayEv+0x14>
    820a:	00 00       	nop
    820c:	08 95       	ret
    820e:	9a e0       	ldi	r25, 0x0A	; 10
    8210:	9a 95       	dec	r25
    8212:	f1 f7       	brne	.-4      	; 0x8210 <_ZN9class_I2C9I2C_DelayEv+0x1e>
    8214:	00 c0       	rjmp	.+0      	; 0x8216 <_ZN9class_I2C9I2C_DelayEv+0x24>
    8216:	08 95       	ret
    8218:	90 91 e8 02 	lds	r25, 0x02E8	; 0x8002e8 <_i2c>
    821c:	89 17       	cp	r24, r25
    821e:	30 f4       	brcc	.+12     	; 0x822c <_ZN9class_I2C9I2C_DelayEv+0x3a>
    8220:	95 e0       	ldi	r25, 0x05	; 5
    8222:	9a 95       	dec	r25
    8224:	f1 f7       	brne	.-4      	; 0x8222 <_ZN9class_I2C9I2C_DelayEv+0x30>
    8226:	00 00       	nop
    8228:	8f 5f       	subi	r24, 0xFF	; 255
    822a:	f6 cf       	rjmp	.-20     	; 0x8218 <_ZN9class_I2C9I2C_DelayEv+0x26>
    822c:	08 95       	ret

0000822e <_ZN9class_I2C5StartEv>:
    822e:	0e 94 f9 40 	call	0x81f2	; 0x81f2 <_ZN9class_I2C9I2C_DelayEv>
    8232:	13 9a       	sbi	0x02, 3	; 2
    8234:	0e 94 f9 40 	call	0x81f2	; 0x81f2 <_ZN9class_I2C9I2C_DelayEv>
    8238:	12 9a       	sbi	0x02, 2	; 2
    823a:	0c 94 f9 40 	jmp	0x81f2	; 0x81f2 <_ZN9class_I2C9I2C_DelayEv>

0000823e <_ZN9class_I2C4StopEv>:
    823e:	0e 94 f9 40 	call	0x81f2	; 0x81f2 <_ZN9class_I2C9I2C_DelayEv>
    8242:	12 98       	cbi	0x02, 2	; 2
    8244:	0e 94 f9 40 	call	0x81f2	; 0x81f2 <_ZN9class_I2C9I2C_DelayEv>
    8248:	13 98       	cbi	0x02, 3	; 2
    824a:	0c 94 f9 40 	jmp	0x81f2	; 0x81f2 <_ZN9class_I2C9I2C_DelayEv>

0000824e <_ZN9class_I2C6BitOutEh>:
    824e:	80 ff       	sbrs	r24, 0
    8250:	02 c0       	rjmp	.+4      	; 0x8256 <_ZN9class_I2C6BitOutEh+0x8>
    8252:	13 98       	cbi	0x02, 3	; 2
    8254:	01 c0       	rjmp	.+2      	; 0x8258 <_ZN9class_I2C6BitOutEh+0xa>
    8256:	13 9a       	sbi	0x02, 3	; 2
    8258:	0e 94 f9 40 	call	0x81f2	; 0x81f2 <_ZN9class_I2C9I2C_DelayEv>
    825c:	12 98       	cbi	0x02, 2	; 2
    825e:	0e 94 f9 40 	call	0x81f2	; 0x81f2 <_ZN9class_I2C9I2C_DelayEv>
    8262:	12 9a       	sbi	0x02, 2	; 2
    8264:	0c 94 f9 40 	jmp	0x81f2	; 0x81f2 <_ZN9class_I2C9I2C_DelayEv>

00008268 <_ZN9class_I2C7ByteOutEh>:
    8268:	cf 93       	push	r28
    826a:	df 93       	push	r29
    826c:	d8 2f       	mov	r29, r24
    826e:	c8 e0       	ldi	r28, 0x08	; 8
    8270:	d7 fd       	sbrc	r29, 7
    8272:	02 c0       	rjmp	.+4      	; 0x8278 <_ZN9class_I2C7ByteOutEh+0x10>
    8274:	80 e0       	ldi	r24, 0x00	; 0
    8276:	01 c0       	rjmp	.+2      	; 0x827a <_ZN9class_I2C7ByteOutEh+0x12>
    8278:	81 e0       	ldi	r24, 0x01	; 1
    827a:	0e 94 27 41 	call	0x824e	; 0x824e <_ZN9class_I2C6BitOutEh>
    827e:	dd 0f       	add	r29, r29
    8280:	c1 50       	subi	r28, 0x01	; 1
    8282:	b1 f7       	brne	.-20     	; 0x8270 <_ZN9class_I2C7ByteOutEh+0x8>
    8284:	df 91       	pop	r29
    8286:	cf 91       	pop	r28
    8288:	08 95       	ret

0000828a <_ZN9class_I2C5AckInEv>:
    828a:	cf 93       	push	r28
    828c:	12 9a       	sbi	0x02, 2	; 2
    828e:	0e 94 f9 40 	call	0x81f2	; 0x81f2 <_ZN9class_I2C9I2C_DelayEv>
    8292:	12 98       	cbi	0x02, 2	; 2
    8294:	c1 b1       	in	r28, 0x01	; 1
    8296:	0e 94 f9 40 	call	0x81f2	; 0x81f2 <_ZN9class_I2C9I2C_DelayEv>
    829a:	12 9a       	sbi	0x02, 2	; 2
    829c:	0e 94 f9 40 	call	0x81f2	; 0x81f2 <_ZN9class_I2C9I2C_DelayEv>
    82a0:	c3 fb       	bst	r28, 3
    82a2:	88 27       	eor	r24, r24
    82a4:	80 f9       	bld	r24, 0
    82a6:	cf 91       	pop	r28
    82a8:	08 95       	ret

000082aa <_ZN9class_I2C6ByteInEv>:
    82aa:	1f 93       	push	r17
    82ac:	cf 93       	push	r28
    82ae:	df 93       	push	r29
    82b0:	d8 e0       	ldi	r29, 0x08	; 8
    82b2:	10 e8       	ldi	r17, 0x80	; 128
    82b4:	c0 e0       	ldi	r28, 0x00	; 0
    82b6:	0e 94 45 41 	call	0x828a	; 0x828a <_ZN9class_I2C5AckInEv>
    82ba:	81 30       	cpi	r24, 0x01	; 1
    82bc:	09 f4       	brne	.+2      	; 0x82c0 <_ZN9class_I2C6ByteInEv+0x16>
    82be:	c1 2b       	or	r28, r17
    82c0:	16 95       	lsr	r17
    82c2:	d1 50       	subi	r29, 0x01	; 1
    82c4:	c1 f7       	brne	.-16     	; 0x82b6 <_ZN9class_I2C6ByteInEv+0xc>
    82c6:	8c 2f       	mov	r24, r28
    82c8:	df 91       	pop	r29
    82ca:	cf 91       	pop	r28
    82cc:	1f 91       	pop	r17
    82ce:	08 95       	ret

000082d0 <_ZN9class_I2C6AckOutEh>:
    82d0:	0c 94 27 41 	jmp	0x824e	; 0x824e <_ZN9class_I2C6BitOutEh>

000082d4 <_GLOBAL__sub_I__ZN9class_I2C10InitializeEv>:
    82d4:	81 e0       	ldi	r24, 0x01	; 1
    82d6:	80 93 e8 02 	sts	0x02E8, r24	; 0x8002e8 <_i2c>
    82da:	08 95       	ret

000082dc <_ZN9class_KBD10InitializeEv>:
    82dc:	9f b7       	in	r25, 0x3f	; 63
    82de:	88 b3       	in	r24, 0x18	; 24
    82e0:	80 66       	ori	r24, 0x60	; 96
    82e2:	88 bb       	out	0x18, r24	; 24
    82e4:	87 b3       	in	r24, 0x17	; 23
    82e6:	8f 79       	andi	r24, 0x9F	; 159
    82e8:	87 bb       	out	0x17, r24	; 23
    82ea:	9f bf       	out	0x3f, r25	; 63
    82ec:	08 95       	ret

000082ee <_ZN9class_KBD12UnInitializeEv>:
    82ee:	9f b7       	in	r25, 0x3f	; 63
    82f0:	f8 94       	cli
    82f2:	88 b3       	in	r24, 0x18	; 24
    82f4:	8f 79       	andi	r24, 0x9F	; 159
    82f6:	88 bb       	out	0x18, r24	; 24
    82f8:	87 b3       	in	r24, 0x17	; 23
    82fa:	8f 79       	andi	r24, 0x9F	; 159
    82fc:	87 bb       	out	0x17, r24	; 23
    82fe:	9f bf       	out	0x3f, r25	; 63
    8300:	08 95       	ret

00008302 <_ZN9class_KBDC1Ev>:
    8302:	0c 94 6e 41 	jmp	0x82dc	; 0x82dc <_ZN9class_KBD10InitializeEv>

00008306 <_ZN9class_KBDD1Ev>:
    8306:	0c 94 77 41 	jmp	0x82ee	; 0x82ee <_ZN9class_KBD12UnInitializeEv>

0000830a <_ZN9class_KBD11getKbdStateEv>:
    830a:	1f 93       	push	r17
    830c:	cf 93       	push	r28
    830e:	df 93       	push	r29
    8310:	00 d0       	rcall	.+0      	; 0x8312 <_ZN9class_KBD11getKbdStateEv+0x8>
    8312:	1f 92       	push	r1
    8314:	cd b7       	in	r28, 0x3d	; 61
    8316:	de b7       	in	r29, 0x3e	; 62
    8318:	16 b3       	in	r17, 0x16	; 22
    831a:	9e 01       	movw	r18, r28
    831c:	2f 5f       	subi	r18, 0xFF	; 255
    831e:	3f 4f       	sbci	r19, 0xFF	; 255
    8320:	ae 01       	movw	r20, r28
    8322:	4e 5f       	subi	r20, 0xFE	; 254
    8324:	5f 4f       	sbci	r21, 0xFF	; 255
    8326:	be 01       	movw	r22, r28
    8328:	6d 5f       	subi	r22, 0xFD	; 253
    832a:	7f 4f       	sbci	r23, 0xFF	; 255
    832c:	8a ee       	ldi	r24, 0xEA	; 234
    832e:	92 e0       	ldi	r25, 0x02	; 2
    8330:	0e 94 8f 40 	call	0x811e	; 0x811e <_ZN9class_ADC7getKeysER7ADCKeyXR7ADCKeyYR8ADCKeySW>
    8334:	16 fd       	sbrc	r17, 6
    8336:	02 c0       	rjmp	.+4      	; 0x833c <_ZN9class_KBD11getKbdStateEv+0x32>
    8338:	82 e0       	ldi	r24, 0x02	; 2
    833a:	01 c0       	rjmp	.+2      	; 0x833e <_ZN9class_KBD11getKbdStateEv+0x34>
    833c:	80 e0       	ldi	r24, 0x00	; 0
    833e:	15 ff       	sbrs	r17, 5
    8340:	80 64       	ori	r24, 0x40	; 64
    8342:	9b 81       	ldd	r25, Y+3	; 0x03
    8344:	92 30       	cpi	r25, 0x02	; 2
    8346:	11 f4       	brne	.+4      	; 0x834c <_ZN9class_KBD11getKbdStateEv+0x42>
    8348:	81 60       	ori	r24, 0x01	; 1
    834a:	03 c0       	rjmp	.+6      	; 0x8352 <_ZN9class_KBD11getKbdStateEv+0x48>
    834c:	91 30       	cpi	r25, 0x01	; 1
    834e:	09 f4       	brne	.+2      	; 0x8352 <_ZN9class_KBD11getKbdStateEv+0x48>
    8350:	84 60       	ori	r24, 0x04	; 4
    8352:	9a 81       	ldd	r25, Y+2	; 0x02
    8354:	92 30       	cpi	r25, 0x02	; 2
    8356:	11 f4       	brne	.+4      	; 0x835c <_ZN9class_KBD11getKbdStateEv+0x52>
    8358:	88 60       	ori	r24, 0x08	; 8
    835a:	03 c0       	rjmp	.+6      	; 0x8362 <_ZN9class_KBD11getKbdStateEv+0x58>
    835c:	91 30       	cpi	r25, 0x01	; 1
    835e:	09 f4       	brne	.+2      	; 0x8362 <_ZN9class_KBD11getKbdStateEv+0x58>
    8360:	80 61       	ori	r24, 0x10	; 16
    8362:	99 81       	ldd	r25, Y+1	; 0x01
    8364:	91 11       	cpse	r25, r1
    8366:	01 c0       	rjmp	.+2      	; 0x836a <_ZN9class_KBD11getKbdStateEv+0x60>
    8368:	80 62       	ori	r24, 0x20	; 32
    836a:	0f 90       	pop	r0
    836c:	0f 90       	pop	r0
    836e:	0f 90       	pop	r0
    8370:	df 91       	pop	r29
    8372:	cf 91       	pop	r28
    8374:	1f 91       	pop	r17
    8376:	08 95       	ret

00008378 <_ZN9class_KBD14waitKbdReleaseEv>:
    8378:	cf 93       	push	r28
    837a:	df 93       	push	r29
    837c:	ec 01       	movw	r28, r24
	#else
		//round up by default
		__ticks_dc = (uint32_t)(ceil(fabs(__tmp)));
	#endif

	__builtin_avr_delay_cycles(__ticks_dc);
    837e:	2f ef       	ldi	r18, 0xFF	; 255
    8380:	80 e7       	ldi	r24, 0x70	; 112
    8382:	92 e0       	ldi	r25, 0x02	; 2
    8384:	21 50       	subi	r18, 0x01	; 1
    8386:	80 40       	sbci	r24, 0x00	; 0
    8388:	90 40       	sbci	r25, 0x00	; 0
    838a:	e1 f7       	brne	.-8      	; 0x8384 <_ZN9class_KBD14waitKbdReleaseEv+0xc>
    838c:	00 c0       	rjmp	.+0      	; 0x838e <_ZN9class_KBD14waitKbdReleaseEv+0x16>
    838e:	00 00       	nop
    8390:	ce 01       	movw	r24, r28
    8392:	0e 94 85 41 	call	0x830a	; 0x830a <_ZN9class_KBD11getKbdStateEv>
    8396:	81 11       	cpse	r24, r1
    8398:	f2 cf       	rjmp	.-28     	; 0x837e <_ZN9class_KBD14waitKbdReleaseEv+0x6>
    839a:	df 91       	pop	r29
    839c:	cf 91       	pop	r28
    839e:	08 95       	ret

000083a0 <_ZN9class_KBD11getKbdASCIIEb>:
    83a0:	cf 93       	push	r28
    83a2:	c6 2f       	mov	r28, r22
    83a4:	0e 94 85 41 	call	0x830a	; 0x830a <_ZN9class_KBD11getKbdStateEv>
    83a8:	cc 23       	and	r28, r28
    83aa:	39 f0       	breq	.+14     	; 0x83ba <_ZN9class_KBD11getKbdASCIIEb+0x1a>
    83ac:	81 34       	cpi	r24, 0x41	; 65
    83ae:	70 f4       	brcc	.+28     	; 0x83cc <_ZN9class_KBD11getKbdASCIIEb+0x2c>
    83b0:	e8 2f       	mov	r30, r24
    83b2:	f0 e0       	ldi	r31, 0x00	; 0
    83b4:	e2 5a       	subi	r30, 0xA2	; 162
    83b6:	fe 4f       	sbci	r31, 0xFE	; 254
    83b8:	07 c0       	rjmp	.+14     	; 0x83c8 <_ZN9class_KBD11getKbdASCIIEb+0x28>
    83ba:	ef ef       	ldi	r30, 0xFF	; 255
    83bc:	e8 0f       	add	r30, r24
    83be:	e0 34       	cpi	r30, 0x40	; 64
    83c0:	38 f4       	brcc	.+14     	; 0x83d0 <_ZN9class_KBD11getKbdASCIIEb+0x30>
    83c2:	f0 e0       	ldi	r31, 0x00	; 0
    83c4:	e2 5e       	subi	r30, 0xE2	; 226
    83c6:	fe 4f       	sbci	r31, 0xFE	; 254
    83c8:	80 81       	ld	r24, Z
    83ca:	03 c0       	rjmp	.+6      	; 0x83d2 <_ZN9class_KBD11getKbdASCIIEb+0x32>
    83cc:	80 e3       	ldi	r24, 0x30	; 48
    83ce:	01 c0       	rjmp	.+2      	; 0x83d2 <_ZN9class_KBD11getKbdASCIIEb+0x32>
    83d0:	80 e2       	ldi	r24, 0x20	; 32
    83d2:	cf 91       	pop	r28
    83d4:	08 95       	ret

000083d6 <_GLOBAL__sub_I__Kbd>:
    83d6:	8a ee       	ldi	r24, 0xEA	; 234
    83d8:	92 e0       	ldi	r25, 0x02	; 2
    83da:	0c 94 da 3f 	jmp	0x7fb4	; 0x7fb4 <_ZN9class_ADCC1Ev>

000083de <_GLOBAL__sub_D__Kbd>:
    83de:	8a ee       	ldi	r24, 0xEA	; 234
    83e0:	92 e0       	ldi	r25, 0x02	; 2
    83e2:	0c 94 e4 3f 	jmp	0x7fc8	; 0x7fc8 <_ZN9class_ADCD1Ev>

000083e6 <_ZN9class_LED12UnInitializeEv>:
    83e6:	8f b7       	in	r24, 0x3f	; 63
    83e8:	f8 94       	cli
    83ea:	91 98       	cbi	0x12, 1	; 18
    83ec:	89 98       	cbi	0x11, 1	; 17
    83ee:	8f bf       	out	0x3f, r24	; 63
    83f0:	08 95       	ret

000083f2 <_ZN9class_LED9clearRowsEv>:
    83f2:	8b b3       	in	r24, 0x1b	; 27
    83f4:	1b ba       	out	0x1b, r1	; 27
    83f6:	85 b3       	in	r24, 0x15	; 21
    83f8:	15 ba       	out	0x15, r1	; 21
    83fa:	08 95       	ret

000083fc <_ZN9class_LEDD1Ev>:
    83fc:	0c 94 f3 41 	jmp	0x83e6	; 0x83e6 <_ZN9class_LED12UnInitializeEv>

00008400 <_ZN9class_LED9setColumnEh>:
    8400:	81 50       	subi	r24, 0x01	; 1
    8402:	88 31       	cpi	r24, 0x18	; 24
    8404:	80 f4       	brcc	.+32     	; 0x8426 <_ZN9class_LED9setColumnEh+0x26>
    8406:	97 e1       	ldi	r25, 0x17	; 23
    8408:	98 1b       	sub	r25, r24
    840a:	80 e0       	ldi	r24, 0x00	; 0
    840c:	98 13       	cpse	r25, r24
    840e:	02 c0       	rjmp	.+4      	; 0x8414 <_ZN9class_LED9setColumnEh+0x14>
    8410:	94 9a       	sbi	0x12, 4	; 18
    8412:	01 c0       	rjmp	.+2      	; 0x8416 <_ZN9class_LED9setColumnEh+0x16>
    8414:	94 98       	cbi	0x12, 4	; 18
    8416:	95 9a       	sbi	0x12, 5	; 18
    8418:	95 98       	cbi	0x12, 5	; 18
    841a:	8f 5f       	subi	r24, 0xFF	; 255
    841c:	88 31       	cpi	r24, 0x18	; 24
    841e:	b1 f7       	brne	.-20     	; 0x840c <_ZN9class_LED9setColumnEh+0xc>
    8420:	96 9a       	sbi	0x12, 6	; 18
    8422:	96 98       	cbi	0x12, 6	; 18
    8424:	08 95       	ret
    8426:	94 98       	cbi	0x12, 4	; 18
    8428:	88 e1       	ldi	r24, 0x18	; 24
    842a:	95 9a       	sbi	0x12, 5	; 18
    842c:	95 98       	cbi	0x12, 5	; 18
    842e:	81 50       	subi	r24, 0x01	; 1
    8430:	e1 f7       	brne	.-8      	; 0x842a <_ZN9class_LED9setColumnEh+0x2a>
    8432:	f6 cf       	rjmp	.-20     	; 0x8420 <_ZN9class_LED9setColumnEh+0x20>

00008434 <_ZN9class_LED7processEv>:
    8434:	0e 94 f9 41 	call	0x83f2	; 0x83f2 <_ZN9class_LED9clearRowsEv>
    8438:	80 e0       	ldi	r24, 0x00	; 0
    843a:	0e 94 00 42 	call	0x8400	; 0x8400 <_ZN9class_LED9setColumnEh>
    843e:	80 91 eb 02 	lds	r24, 0x02EB	; 0x8002eb <_ZZN9class_LED7processEvE6column>
    8442:	8f 5f       	subi	r24, 0xFF	; 255
    8444:	88 31       	cpi	r24, 0x18	; 24
    8446:	18 f4       	brcc	.+6      	; 0x844e <_ZN9class_LED7processEv+0x1a>
    8448:	80 93 eb 02 	sts	0x02EB, r24	; 0x8002eb <_ZZN9class_LED7processEvE6column>
    844c:	02 c0       	rjmp	.+4      	; 0x8452 <_ZN9class_LED7processEv+0x1e>
    844e:	10 92 eb 02 	sts	0x02EB, r1	; 0x8002eb <_ZZN9class_LED7processEvE6column>
    8452:	90 91 70 03 	lds	r25, 0x0370	; 0x800370 <_led+0x83>
    8456:	80 91 eb 02 	lds	r24, 0x02EB	; 0x8002eb <_ZZN9class_LED7processEvE6column>
    845a:	91 11       	cpse	r25, r1
    845c:	07 c0       	rjmp	.+14     	; 0x846c <_ZN9class_LED7processEv+0x38>
    845e:	e8 2f       	mov	r30, r24
    8460:	f0 e0       	ldi	r31, 0x00	; 0
    8462:	e3 51       	subi	r30, 0x13	; 19
    8464:	fd 4f       	sbci	r31, 0xFD	; 253
    8466:	21 a5       	ldd	r18, Z+41	; 0x29
    8468:	81 89       	ldd	r24, Z+17	; 0x11
    846a:	09 c0       	rjmp	.+18     	; 0x847e <_ZN9class_LED7processEv+0x4a>
    846c:	90 e0       	ldi	r25, 0x00	; 0
    846e:	83 51       	subi	r24, 0x13	; 19
    8470:	9d 4f       	sbci	r25, 0xFD	; 253
    8472:	fc 01       	movw	r30, r24
    8474:	e7 5a       	subi	r30, 0xA7	; 167
    8476:	ff 4f       	sbci	r31, 0xFF	; 255
    8478:	20 81       	ld	r18, Z
    847a:	78 97       	sbiw	r30, 0x18	; 24
    847c:	80 81       	ld	r24, Z
    847e:	8b bb       	out	0x1b, r24	; 27
    8480:	25 bb       	out	0x15, r18	; 21
    8482:	80 91 eb 02 	lds	r24, 0x02EB	; 0x8002eb <_ZZN9class_LED7processEvE6column>
    8486:	8f 5f       	subi	r24, 0xFF	; 255
    8488:	0c 94 00 42 	jmp	0x8400	; 0x8400 <_ZN9class_LED9setColumnEh>

0000848c <_ZN9class_LED3clsEb>:
    848c:	10 92 f3 02 	sts	0x02F3, r1	; 0x8002f3 <_led+0x6>
    8490:	10 92 f2 02 	sts	0x02F2, r1	; 0x8002f2 <_led+0x5>
    8494:	10 92 f5 02 	sts	0x02F5, r1	; 0x8002f5 <_led+0x8>
    8498:	10 92 f4 02 	sts	0x02F4, r1	; 0x8002f4 <_led+0x7>
    849c:	88 23       	and	r24, r24
    849e:	81 f0       	breq	.+32     	; 0x84c0 <_ZN9class_LED3clsEb+0x34>
    84a0:	48 e1       	ldi	r20, 0x18	; 24
    84a2:	50 e0       	ldi	r21, 0x00	; 0
    84a4:	6f ef       	ldi	r22, 0xFF	; 255
    84a6:	70 e0       	ldi	r23, 0x00	; 0
    84a8:	86 e1       	ldi	r24, 0x16	; 22
    84aa:	93 e0       	ldi	r25, 0x03	; 3
    84ac:	0e 94 5d 6a 	call	0xd4ba	; 0xd4ba <memset>
    84b0:	48 e1       	ldi	r20, 0x18	; 24
    84b2:	50 e0       	ldi	r21, 0x00	; 0
    84b4:	6f ef       	ldi	r22, 0xFF	; 255
    84b6:	70 e0       	ldi	r23, 0x00	; 0
    84b8:	8e ef       	ldi	r24, 0xFE	; 254
    84ba:	92 e0       	ldi	r25, 0x02	; 2
    84bc:	0c 94 5d 6a 	jmp	0xd4ba	; 0xd4ba <memset>
    84c0:	88 e1       	ldi	r24, 0x18	; 24
    84c2:	e6 e1       	ldi	r30, 0x16	; 22
    84c4:	f3 e0       	ldi	r31, 0x03	; 3
    84c6:	df 01       	movw	r26, r30
    84c8:	98 2f       	mov	r25, r24
    84ca:	1d 92       	st	X+, r1
    84cc:	9a 95       	dec	r25
    84ce:	e9 f7       	brne	.-6      	; 0x84ca <_ZN9class_LED3clsEb+0x3e>
    84d0:	ee ef       	ldi	r30, 0xFE	; 254
    84d2:	f2 e0       	ldi	r31, 0x02	; 2
    84d4:	df 01       	movw	r26, r30
    84d6:	1d 92       	st	X+, r1
    84d8:	8a 95       	dec	r24
    84da:	e9 f7       	brne	.-6      	; 0x84d6 <_ZN9class_LED3clsEb+0x4a>
    84dc:	08 95       	ret

000084de <_ZN9class_LED10InitializeEv>:
    84de:	cf 93       	push	r28
    84e0:	cf b7       	in	r28, 0x3f	; 63
    84e2:	f8 94       	cli
    84e4:	91 9a       	sbi	0x12, 1	; 18
    84e6:	89 9a       	sbi	0x11, 1	; 17
    84e8:	8b b3       	in	r24, 0x1b	; 27
    84ea:	1b ba       	out	0x1b, r1	; 27
    84ec:	8a b3       	in	r24, 0x1a	; 26
    84ee:	8f ef       	ldi	r24, 0xFF	; 255
    84f0:	8a bb       	out	0x1a, r24	; 26
    84f2:	95 b3       	in	r25, 0x15	; 21
    84f4:	15 ba       	out	0x15, r1	; 21
    84f6:	94 b3       	in	r25, 0x14	; 20
    84f8:	84 bb       	out	0x14, r24	; 20
    84fa:	95 98       	cbi	0x12, 5	; 18
    84fc:	8d 9a       	sbi	0x11, 5	; 17
    84fe:	96 98       	cbi	0x12, 6	; 18
    8500:	8e 9a       	sbi	0x11, 6	; 17
    8502:	94 98       	cbi	0x12, 4	; 18
    8504:	8c 9a       	sbi	0x11, 4	; 17
    8506:	88 e0       	ldi	r24, 0x08	; 8
    8508:	e6 e1       	ldi	r30, 0x16	; 22
    850a:	f1 e0       	ldi	r31, 0x01	; 1
    850c:	a6 ef       	ldi	r26, 0xF6	; 246
    850e:	b2 e0       	ldi	r27, 0x02	; 2
    8510:	01 90       	ld	r0, Z+
    8512:	0d 92       	st	X+, r0
    8514:	8a 95       	dec	r24
    8516:	e1 f7       	brne	.-8      	; 0x8510 <_ZN9class_LED10InitializeEv+0x32>
    8518:	10 92 70 03 	sts	0x0370, r1	; 0x800370 <_led+0x83>
    851c:	82 e0       	ldi	r24, 0x02	; 2
    851e:	80 93 f1 02 	sts	0x02F1, r24	; 0x8002f1 <_led+0x4>
    8522:	10 92 ed 02 	sts	0x02ED, r1	; 0x8002ed <_led>
    8526:	8f ef       	ldi	r24, 0xFF	; 255
    8528:	90 e0       	ldi	r25, 0x00	; 0
    852a:	90 93 f0 02 	sts	0x02F0, r25	; 0x8002f0 <_led+0x3>
    852e:	80 93 ef 02 	sts	0x02EF, r24	; 0x8002ef <_led+0x2>
    8532:	81 e0       	ldi	r24, 0x01	; 1
    8534:	80 93 ee 02 	sts	0x02EE, r24	; 0x8002ee <_led+0x1>
    8538:	ee e5       	ldi	r30, 0x5E	; 94
    853a:	f3 e0       	ldi	r31, 0x03	; 3
    853c:	80 e0       	ldi	r24, 0x00	; 0
    853e:	90 e0       	ldi	r25, 0x00	; 0
    8540:	40 e8       	ldi	r20, 0x80	; 128
    8542:	50 e0       	ldi	r21, 0x00	; 0
    8544:	9a 01       	movw	r18, r20
    8546:	08 2e       	mov	r0, r24
    8548:	02 c0       	rjmp	.+4      	; 0x854e <_ZN9class_LED10InitializeEv+0x70>
    854a:	35 95       	asr	r19
    854c:	27 95       	ror	r18
    854e:	0a 94       	dec	r0
    8550:	e2 f7       	brpl	.-8      	; 0x854a <_ZN9class_LED10InitializeEv+0x6c>
    8552:	21 93       	st	Z+, r18
    8554:	27 83       	std	Z+7, r18	; 0x07
    8556:	01 96       	adiw	r24, 0x01	; 1
    8558:	88 30       	cpi	r24, 0x08	; 8
    855a:	91 05       	cpc	r25, r1
    855c:	99 f7       	brne	.-26     	; 0x8544 <_ZN9class_LED10InitializeEv+0x66>
    855e:	84 e0       	ldi	r24, 0x04	; 4
    8560:	80 93 62 03 	sts	0x0362, r24	; 0x800362 <_led+0x75>
    8564:	88 e0       	ldi	r24, 0x08	; 8
    8566:	80 93 63 03 	sts	0x0363, r24	; 0x800363 <_led+0x76>
    856a:	80 e0       	ldi	r24, 0x00	; 0
    856c:	0e 94 46 42 	call	0x848c	; 0x848c <_ZN9class_LED3clsEb>
    8570:	60 e0       	ldi	r22, 0x00	; 0
    8572:	81 e7       	ldi	r24, 0x71	; 113
    8574:	93 e0       	ldi	r25, 0x03	; 3
    8576:	0e 94 8c 66 	call	0xcd18	; 0xcd18 <_ZN11class_Timer17getHandleCallBackEa>
    857a:	90 93 6f 03 	sts	0x036F, r25	; 0x80036f <_led+0x82>
    857e:	80 93 6e 03 	sts	0x036E, r24	; 0x80036e <_led+0x81>
    8582:	6a e1       	ldi	r22, 0x1A	; 26
    8584:	72 e4       	ldi	r23, 0x42	; 66
    8586:	81 e7       	ldi	r24, 0x71	; 113
    8588:	93 e0       	ldi	r25, 0x03	; 3
    858a:	0e 94 87 66 	call	0xcd0e	; 0xcd0e <_ZN11class_Timer17setHandleCallBackEPFvvE>
    858e:	cf bf       	out	0x3f, r28	; 63
    8590:	cf 91       	pop	r28
    8592:	08 95       	ret

00008594 <_ZN9class_LEDC1E11RefreshMode>:
    8594:	cf 93       	push	r28
    8596:	20 91 ec 02 	lds	r18, 0x02EC	; 0x8002ec <_ZZN9class_LEDC4E11RefreshModeE10initialize>
    859a:	21 11       	cpse	r18, r1
    859c:	08 c0       	rjmp	.+16     	; 0x85ae <_ZN9class_LEDC1E11RefreshMode+0x1a>
    859e:	c6 2f       	mov	r28, r22
    85a0:	21 e0       	ldi	r18, 0x01	; 1
    85a2:	20 93 ec 02 	sts	0x02EC, r18	; 0x8002ec <_ZZN9class_LEDC4E11RefreshModeE10initialize>
    85a6:	0e 94 6f 42 	call	0x84de	; 0x84de <_ZN9class_LED10InitializeEv>
    85aa:	c0 93 70 03 	sts	0x0370, r28	; 0x800370 <_led+0x83>
    85ae:	cf 91       	pop	r28
    85b0:	08 95       	ret

000085b2 <_ZN9class_LED12getCharWidthEv>:
    85b2:	e0 91 f1 02 	lds	r30, 0x02F1	; 0x8002f1 <_led+0x4>
    85b6:	e1 50       	subi	r30, 0x01	; 1
    85b8:	e4 30       	cpi	r30, 0x04	; 4
    85ba:	40 f4       	brcc	.+16     	; 0x85cc <_ZN9class_LED12getCharWidthEv+0x1a>
    85bc:	f0 e0       	ldi	r31, 0x00	; 0
    85be:	ed 55       	subi	r30, 0x5D	; 93
    85c0:	fe 4f       	sbci	r31, 0xFE	; 254
    85c2:	80 81       	ld	r24, Z
    85c4:	08 2e       	mov	r0, r24
    85c6:	00 0c       	add	r0, r0
    85c8:	99 0b       	sbc	r25, r25
    85ca:	08 95       	ret
    85cc:	80 e0       	ldi	r24, 0x00	; 0
    85ce:	90 e0       	ldi	r25, 0x00	; 0
    85d0:	08 95       	ret

000085d2 <_ZN9class_LED13getCharHeightEv>:
    85d2:	e0 91 f1 02 	lds	r30, 0x02F1	; 0x8002f1 <_led+0x4>
    85d6:	e1 50       	subi	r30, 0x01	; 1
    85d8:	e4 30       	cpi	r30, 0x04	; 4
    85da:	40 f4       	brcc	.+16     	; 0x85ec <_ZN9class_LED13getCharHeightEv+0x1a>
    85dc:	f0 e0       	ldi	r31, 0x00	; 0
    85de:	e1 56       	subi	r30, 0x61	; 97
    85e0:	fe 4f       	sbci	r31, 0xFE	; 254
    85e2:	80 81       	ld	r24, Z
    85e4:	08 2e       	mov	r0, r24
    85e6:	00 0c       	add	r0, r0
    85e8:	99 0b       	sbc	r25, r25
    85ea:	08 95       	ret
    85ec:	80 e0       	ldi	r24, 0x00	; 0
    85ee:	90 e0       	ldi	r25, 0x00	; 0
    85f0:	08 95       	ret

000085f2 <_ZN9class_LED8setPixelEii5Color>:
    85f2:	fc 01       	movw	r30, r24
    85f4:	80 91 f6 02 	lds	r24, 0x02F6	; 0x8002f6 <_led+0x9>
    85f8:	90 91 f7 02 	lds	r25, 0x02F7	; 0x8002f7 <_led+0xa>
    85fc:	e8 17       	cp	r30, r24
    85fe:	f9 07       	cpc	r31, r25
    8600:	cc f1       	brlt	.+114    	; 0x8674 <_ZN9class_LED8setPixelEii5Color+0x82>
    8602:	80 91 f8 02 	lds	r24, 0x02F8	; 0x8002f8 <_led+0xb>
    8606:	90 91 f9 02 	lds	r25, 0x02F9	; 0x8002f9 <_led+0xc>
    860a:	68 17       	cp	r22, r24
    860c:	79 07       	cpc	r23, r25
    860e:	94 f1       	brlt	.+100    	; 0x8674 <_ZN9class_LED8setPixelEii5Color+0x82>
    8610:	80 91 fa 02 	lds	r24, 0x02FA	; 0x8002fa <_led+0xd>
    8614:	90 91 fb 02 	lds	r25, 0x02FB	; 0x8002fb <_led+0xe>
    8618:	8e 17       	cp	r24, r30
    861a:	9f 07       	cpc	r25, r31
    861c:	5c f1       	brlt	.+86     	; 0x8674 <_ZN9class_LED8setPixelEii5Color+0x82>
    861e:	80 91 fc 02 	lds	r24, 0x02FC	; 0x8002fc <_led+0xf>
    8622:	90 91 fd 02 	lds	r25, 0x02FD	; 0x8002fd <_led+0x10>
    8626:	86 17       	cp	r24, r22
    8628:	97 07       	cpc	r25, r23
    862a:	24 f1       	brlt	.+72     	; 0x8674 <_ZN9class_LED8setPixelEii5Color+0x82>
    862c:	26 2f       	mov	r18, r22
    862e:	20 95       	com	r18
    8630:	27 70       	andi	r18, 0x07	; 7
    8632:	9e 2f       	mov	r25, r30
    8634:	98 7f       	andi	r25, 0xF8	; 248
    8636:	29 2b       	or	r18, r25
    8638:	30 e0       	ldi	r19, 0x00	; 0
    863a:	cf 01       	movw	r24, r30
    863c:	87 70       	andi	r24, 0x07	; 7
    863e:	99 27       	eor	r25, r25
    8640:	f9 01       	movw	r30, r18
    8642:	68 30       	cpi	r22, 0x08	; 8
    8644:	71 05       	cpc	r23, r1
    8646:	34 f4       	brge	.+12     	; 0x8654 <_ZN9class_LED8setPixelEii5Color+0x62>
    8648:	e2 50       	subi	r30, 0x02	; 2
    864a:	fd 4f       	sbci	r31, 0xFD	; 253
    864c:	dc 01       	movw	r26, r24
    864e:	aa 59       	subi	r26, 0x9A	; 154
    8650:	bc 4f       	sbci	r27, 0xFC	; 252
    8652:	05 c0       	rjmp	.+10     	; 0x865e <_ZN9class_LED8setPixelEii5Color+0x6c>
    8654:	ea 5e       	subi	r30, 0xEA	; 234
    8656:	fc 4f       	sbci	r31, 0xFC	; 252
    8658:	dc 01       	movw	r26, r24
    865a:	a2 5a       	subi	r26, 0xA2	; 162
    865c:	bc 4f       	sbci	r27, 0xFC	; 252
    865e:	41 11       	cpse	r20, r1
    8660:	05 c0       	rjmp	.+10     	; 0x866c <_ZN9class_LED8setPixelEii5Color+0x7a>
    8662:	8c 91       	ld	r24, X
    8664:	80 95       	com	r24
    8666:	90 81       	ld	r25, Z
    8668:	89 23       	and	r24, r25
    866a:	03 c0       	rjmp	.+6      	; 0x8672 <_ZN9class_LED8setPixelEii5Color+0x80>
    866c:	20 81       	ld	r18, Z
    866e:	8c 91       	ld	r24, X
    8670:	82 2b       	or	r24, r18
    8672:	80 83       	st	Z, r24
    8674:	08 95       	ret

00008676 <_ZN9class_LED8getPixelEii>:
    8676:	20 91 f6 02 	lds	r18, 0x02F6	; 0x8002f6 <_led+0x9>
    867a:	30 91 f7 02 	lds	r19, 0x02F7	; 0x8002f7 <_led+0xa>
    867e:	82 17       	cp	r24, r18
    8680:	93 07       	cpc	r25, r19
    8682:	9c f1       	brlt	.+102    	; 0x86ea <_ZN9class_LED8getPixelEii+0x74>
    8684:	20 91 f8 02 	lds	r18, 0x02F8	; 0x8002f8 <_led+0xb>
    8688:	30 91 f9 02 	lds	r19, 0x02F9	; 0x8002f9 <_led+0xc>
    868c:	62 17       	cp	r22, r18
    868e:	73 07       	cpc	r23, r19
    8690:	64 f1       	brlt	.+88     	; 0x86ea <_ZN9class_LED8getPixelEii+0x74>
    8692:	20 91 fa 02 	lds	r18, 0x02FA	; 0x8002fa <_led+0xd>
    8696:	30 91 fb 02 	lds	r19, 0x02FB	; 0x8002fb <_led+0xe>
    869a:	28 17       	cp	r18, r24
    869c:	39 07       	cpc	r19, r25
    869e:	2c f1       	brlt	.+74     	; 0x86ea <_ZN9class_LED8getPixelEii+0x74>
    86a0:	20 91 fc 02 	lds	r18, 0x02FC	; 0x8002fc <_led+0xf>
    86a4:	30 91 fd 02 	lds	r19, 0x02FD	; 0x8002fd <_led+0x10>
    86a8:	26 17       	cp	r18, r22
    86aa:	37 07       	cpc	r19, r23
    86ac:	f4 f0       	brlt	.+60     	; 0x86ea <_ZN9class_LED8getPixelEii+0x74>
    86ae:	26 2f       	mov	r18, r22
    86b0:	20 95       	com	r18
    86b2:	27 70       	andi	r18, 0x07	; 7
    86b4:	38 2f       	mov	r19, r24
    86b6:	38 7f       	andi	r19, 0xF8	; 248
    86b8:	23 2b       	or	r18, r19
    86ba:	30 e0       	ldi	r19, 0x00	; 0
    86bc:	87 70       	andi	r24, 0x07	; 7
    86be:	99 27       	eor	r25, r25
    86c0:	d9 01       	movw	r26, r18
    86c2:	68 30       	cpi	r22, 0x08	; 8
    86c4:	71 05       	cpc	r23, r1
    86c6:	34 f4       	brge	.+12     	; 0x86d4 <_ZN9class_LED8getPixelEii+0x5e>
    86c8:	a2 50       	subi	r26, 0x02	; 2
    86ca:	bd 4f       	sbci	r27, 0xFD	; 253
    86cc:	fc 01       	movw	r30, r24
    86ce:	ea 59       	subi	r30, 0x9A	; 154
    86d0:	fc 4f       	sbci	r31, 0xFC	; 252
    86d2:	05 c0       	rjmp	.+10     	; 0x86de <_ZN9class_LED8getPixelEii+0x68>
    86d4:	aa 5e       	subi	r26, 0xEA	; 234
    86d6:	bc 4f       	sbci	r27, 0xFC	; 252
    86d8:	fc 01       	movw	r30, r24
    86da:	e2 5a       	subi	r30, 0xA2	; 162
    86dc:	fc 4f       	sbci	r31, 0xFC	; 252
    86de:	2c 91       	ld	r18, X
    86e0:	80 81       	ld	r24, Z
    86e2:	92 2f       	mov	r25, r18
    86e4:	98 23       	and	r25, r24
    86e6:	81 e0       	ldi	r24, 0x01	; 1
    86e8:	09 f4       	brne	.+2      	; 0x86ec <_ZN9class_LED8getPixelEii+0x76>
    86ea:	80 e0       	ldi	r24, 0x00	; 0
    86ec:	08 95       	ret

000086ee <_ZN9class_LED7refreshEv>:
    86ee:	88 e1       	ldi	r24, 0x18	; 24
    86f0:	e6 e1       	ldi	r30, 0x16	; 22
    86f2:	f3 e0       	ldi	r31, 0x03	; 3
    86f4:	a6 e4       	ldi	r26, 0x46	; 70
    86f6:	b3 e0       	ldi	r27, 0x03	; 3
    86f8:	01 90       	ld	r0, Z+
    86fa:	0d 92       	st	X+, r0
    86fc:	8a 95       	dec	r24
    86fe:	e1 f7       	brne	.-8      	; 0x86f8 <_ZN9class_LED7refreshEv+0xa>
    8700:	88 e1       	ldi	r24, 0x18	; 24
    8702:	ee ef       	ldi	r30, 0xFE	; 254
    8704:	f2 e0       	ldi	r31, 0x02	; 2
    8706:	ae e2       	ldi	r26, 0x2E	; 46
    8708:	b3 e0       	ldi	r27, 0x03	; 3
    870a:	01 90       	ld	r0, Z+
    870c:	0d 92       	st	X+, r0
    870e:	8a 95       	dec	r24
    8710:	e1 f7       	brne	.-8      	; 0x870a <_ZN9class_LED7refreshEv+0x1c>
    8712:	08 95       	ret

00008714 <_ZN9class_LED11setFillModeEb>:
    8714:	80 93 ed 02 	sts	0x02ED, r24	; 0x8002ed <_led>
    8718:	08 95       	ret

0000871a <_ZN9class_LED11getFillModeEv>:
    871a:	80 91 ed 02 	lds	r24, 0x02ED	; 0x8002ed <_led>
    871e:	08 95       	ret

00008720 <_ZN9class_LED15setCharFillModeEb>:
    8720:	80 93 ee 02 	sts	0x02EE, r24	; 0x8002ee <_led+0x1>
    8724:	08 95       	ret

00008726 <_ZN9class_LED6setPenE8enum_Pen>:
    8726:	90 93 f0 02 	sts	0x02F0, r25	; 0x8002f0 <_led+0x3>
    872a:	80 93 ef 02 	sts	0x02EF, r24	; 0x8002ef <_led+0x2>
    872e:	08 95       	ret

00008730 <_ZN9class_LED4lineEiiii5Color>:
    8730:	2f 92       	push	r2
    8732:	3f 92       	push	r3
    8734:	4f 92       	push	r4
    8736:	5f 92       	push	r5
    8738:	6f 92       	push	r6
    873a:	7f 92       	push	r7
    873c:	8f 92       	push	r8
    873e:	9f 92       	push	r9
    8740:	af 92       	push	r10
    8742:	bf 92       	push	r11
    8744:	cf 92       	push	r12
    8746:	df 92       	push	r13
    8748:	ef 92       	push	r14
    874a:	ff 92       	push	r15
    874c:	0f 93       	push	r16
    874e:	1f 93       	push	r17
    8750:	cf 93       	push	r28
    8752:	df 93       	push	r29
    8754:	cd b7       	in	r28, 0x3d	; 61
    8756:	de b7       	in	r29, 0x3e	; 62
    8758:	27 97       	sbiw	r28, 0x07	; 7
    875a:	0f b6       	in	r0, 0x3f	; 63
    875c:	f8 94       	cli
    875e:	de bf       	out	0x3e, r29	; 62
    8760:	0f be       	out	0x3f, r0	; 63
    8762:	cd bf       	out	0x3d, r28	; 61
    8764:	7c 01       	movw	r14, r24
    8766:	7f 83       	std	Y+7, r23	; 0x07
    8768:	6e 83       	std	Y+6, r22	; 0x06
    876a:	0d 83       	std	Y+5, r16	; 0x05
    876c:	50 93 f3 02 	sts	0x02F3, r21	; 0x8002f3 <_led+0x6>
    8770:	40 93 f2 02 	sts	0x02F2, r20	; 0x8002f2 <_led+0x5>
    8774:	30 93 f5 02 	sts	0x02F5, r19	; 0x8002f5 <_led+0x8>
    8778:	20 93 f4 02 	sts	0x02F4, r18	; 0x8002f4 <_led+0x7>
    877c:	da 01       	movw	r26, r20
    877e:	a8 1b       	sub	r26, r24
    8780:	b9 0b       	sbc	r27, r25
    8782:	bd 01       	movw	r22, r26
    8784:	b7 ff       	sbrs	r27, 7
    8786:	04 c0       	rjmp	.+8      	; 0x8790 <_ZN9class_LED4lineEiiii5Color+0x60>
    8788:	66 27       	eor	r22, r22
    878a:	77 27       	eor	r23, r23
    878c:	6a 1b       	sub	r22, r26
    878e:	7b 0b       	sbc	r23, r27
    8790:	3b 01       	movw	r6, r22
    8792:	f9 01       	movw	r30, r18
    8794:	8e 81       	ldd	r24, Y+6	; 0x06
    8796:	9f 81       	ldd	r25, Y+7	; 0x07
    8798:	e8 1b       	sub	r30, r24
    879a:	f9 0b       	sbc	r31, r25
    879c:	cf 01       	movw	r24, r30
    879e:	f7 ff       	sbrs	r31, 7
    87a0:	04 c0       	rjmp	.+8      	; 0x87aa <_ZN9class_LED4lineEiiii5Color+0x7a>
    87a2:	88 27       	eor	r24, r24
    87a4:	99 27       	eor	r25, r25
    87a6:	8e 1b       	sub	r24, r30
    87a8:	9f 0b       	sbc	r25, r31
    87aa:	68 17       	cp	r22, r24
    87ac:	79 07       	cpc	r23, r25
    87ae:	4c f0       	brlt	.+18     	; 0x87c2 <_ZN9class_LED4lineEiiii5Color+0x92>
    87b0:	c1 2c       	mov	r12, r1
    87b2:	d1 2c       	mov	r13, r1
    87b4:	10 97       	sbiw	r26, 0x00	; 0
    87b6:	c1 f0       	breq	.+48     	; 0x87e8 <_ZN9class_LED4lineEiiii5Color+0xb8>
    87b8:	6c f4       	brge	.+26     	; 0x87d4 <_ZN9class_LED4lineEiiii5Color+0xa4>
    87ba:	aa 24       	eor	r10, r10
    87bc:	aa 94       	dec	r10
    87be:	ba 2c       	mov	r11, r10
    87c0:	15 c0       	rjmp	.+42     	; 0x87ec <_ZN9class_LED4lineEiiii5Color+0xbc>
    87c2:	3c 01       	movw	r6, r24
    87c4:	cb 01       	movw	r24, r22
    87c6:	30 97       	sbiw	r30, 0x00	; 0
    87c8:	49 f0       	breq	.+18     	; 0x87dc <_ZN9class_LED4lineEiiii5Color+0xac>
    87ca:	5c f4       	brge	.+22     	; 0x87e2 <_ZN9class_LED4lineEiiii5Color+0xb2>
    87cc:	cc 24       	eor	r12, r12
    87ce:	ca 94       	dec	r12
    87d0:	dc 2c       	mov	r13, r12
    87d2:	0a c0       	rjmp	.+20     	; 0x87e8 <_ZN9class_LED4lineEiiii5Color+0xb8>
    87d4:	aa 24       	eor	r10, r10
    87d6:	a3 94       	inc	r10
    87d8:	b1 2c       	mov	r11, r1
    87da:	08 c0       	rjmp	.+16     	; 0x87ec <_ZN9class_LED4lineEiiii5Color+0xbc>
    87dc:	c1 2c       	mov	r12, r1
    87de:	d1 2c       	mov	r13, r1
    87e0:	03 c0       	rjmp	.+6      	; 0x87e8 <_ZN9class_LED4lineEiiii5Color+0xb8>
    87e2:	cc 24       	eor	r12, r12
    87e4:	c3 94       	inc	r12
    87e6:	d1 2c       	mov	r13, r1
    87e8:	a1 2c       	mov	r10, r1
    87ea:	b1 2c       	mov	r11, r1
    87ec:	4e 15       	cp	r20, r14
    87ee:	5f 05       	cpc	r21, r15
    87f0:	24 f0       	brlt	.+8      	; 0x87fa <_ZN9class_LED4lineEiiii5Color+0xca>
    87f2:	22 24       	eor	r2, r2
    87f4:	23 94       	inc	r2
    87f6:	31 2c       	mov	r3, r1
    87f8:	03 c0       	rjmp	.+6      	; 0x8800 <_ZN9class_LED4lineEiiii5Color+0xd0>
    87fa:	22 24       	eor	r2, r2
    87fc:	2a 94       	dec	r2
    87fe:	32 2c       	mov	r3, r2
    8800:	4e 81       	ldd	r20, Y+6	; 0x06
    8802:	5f 81       	ldd	r21, Y+7	; 0x07
    8804:	24 17       	cp	r18, r20
    8806:	35 07       	cpc	r19, r21
    8808:	2c f0       	brlt	.+10     	; 0x8814 <_ZN9class_LED4lineEiiii5Color+0xe4>
    880a:	21 e0       	ldi	r18, 0x01	; 1
    880c:	30 e0       	ldi	r19, 0x00	; 0
    880e:	3a 83       	std	Y+2, r19	; 0x02
    8810:	29 83       	std	Y+1, r18	; 0x01
    8812:	04 c0       	rjmp	.+8      	; 0x881c <_ZN9class_LED4lineEiiii5Color+0xec>
    8814:	4f ef       	ldi	r20, 0xFF	; 255
    8816:	5f ef       	ldi	r21, 0xFF	; 255
    8818:	5a 83       	std	Y+2, r21	; 0x02
    881a:	49 83       	std	Y+1, r20	; 0x01
    881c:	2c 01       	movw	r4, r24
    881e:	44 0c       	add	r4, r4
    8820:	55 1c       	adc	r5, r5
    8822:	42 01       	movw	r8, r4
    8824:	86 18       	sub	r8, r6
    8826:	97 08       	sbc	r9, r7
    8828:	86 19       	sub	r24, r6
    882a:	97 09       	sbc	r25, r7
    882c:	9c 01       	movw	r18, r24
    882e:	22 0f       	add	r18, r18
    8830:	33 1f       	adc	r19, r19
    8832:	3c 83       	std	Y+4, r19	; 0x04
    8834:	2b 83       	std	Y+3, r18	; 0x03
    8836:	00 91 ef 02 	lds	r16, 0x02EF	; 0x8002ef <_led+0x2>
    883a:	10 91 f0 02 	lds	r17, 0x02F0	; 0x8002f0 <_led+0x3>
    883e:	00 0f       	add	r16, r16
    8840:	11 1f       	adc	r17, r17
    8842:	81 2f       	mov	r24, r17
    8844:	99 27       	eor	r25, r25
    8846:	08 2b       	or	r16, r24
    8848:	19 2b       	or	r17, r25
    884a:	5d 81       	ldd	r21, Y+5	; 0x05
    884c:	51 11       	cpse	r21, r1
    884e:	06 c0       	rjmp	.+12     	; 0x885c <_ZN9class_LED4lineEiiii5Color+0x12c>
    8850:	a8 01       	movw	r20, r16
    8852:	41 70       	andi	r20, 0x01	; 1
    8854:	55 27       	eor	r21, r21
    8856:	81 e0       	ldi	r24, 0x01	; 1
    8858:	48 27       	eor	r20, r24
    885a:	02 c0       	rjmp	.+4      	; 0x8860 <_ZN9class_LED4lineEiiii5Color+0x130>
    885c:	40 2f       	mov	r20, r16
    885e:	41 70       	andi	r20, 0x01	; 1
    8860:	6e 81       	ldd	r22, Y+6	; 0x06
    8862:	7f 81       	ldd	r23, Y+7	; 0x07
    8864:	c7 01       	movw	r24, r14
    8866:	0e 94 f9 42 	call	0x85f2	; 0x85f2 <_ZN9class_LED8setPixelEii5Color>
    886a:	18 14       	cp	r1, r8
    886c:	19 04       	cpc	r1, r9
    886e:	5c f5       	brge	.+86     	; 0x88c6 <_ZN9class_LED4lineEiiii5Color+0x196>
    8870:	e2 0c       	add	r14, r2
    8872:	f3 1c       	adc	r15, r3
    8874:	2e 81       	ldd	r18, Y+6	; 0x06
    8876:	3f 81       	ldd	r19, Y+7	; 0x07
    8878:	49 81       	ldd	r20, Y+1	; 0x01
    887a:	5a 81       	ldd	r21, Y+2	; 0x02
    887c:	24 0f       	add	r18, r20
    887e:	35 1f       	adc	r19, r21
    8880:	3f 83       	std	Y+7, r19	; 0x07
    8882:	2e 83       	std	Y+6, r18	; 0x06
    8884:	8b 81       	ldd	r24, Y+3	; 0x03
    8886:	9c 81       	ldd	r25, Y+4	; 0x04
    8888:	88 0e       	add	r8, r24
    888a:	99 1e       	adc	r9, r25
    888c:	31 e0       	ldi	r19, 0x01	; 1
    888e:	63 1a       	sub	r6, r19
    8890:	71 08       	sbc	r7, r1
    8892:	a8 f6       	brcc	.-86     	; 0x883e <_ZN9class_LED4lineEiiii5Color+0x10e>
    8894:	27 96       	adiw	r28, 0x07	; 7
    8896:	0f b6       	in	r0, 0x3f	; 63
    8898:	f8 94       	cli
    889a:	de bf       	out	0x3e, r29	; 62
    889c:	0f be       	out	0x3f, r0	; 63
    889e:	cd bf       	out	0x3d, r28	; 61
    88a0:	df 91       	pop	r29
    88a2:	cf 91       	pop	r28
    88a4:	1f 91       	pop	r17
    88a6:	0f 91       	pop	r16
    88a8:	ff 90       	pop	r15
    88aa:	ef 90       	pop	r14
    88ac:	df 90       	pop	r13
    88ae:	cf 90       	pop	r12
    88b0:	bf 90       	pop	r11
    88b2:	af 90       	pop	r10
    88b4:	9f 90       	pop	r9
    88b6:	8f 90       	pop	r8
    88b8:	7f 90       	pop	r7
    88ba:	6f 90       	pop	r6
    88bc:	5f 90       	pop	r5
    88be:	4f 90       	pop	r4
    88c0:	3f 90       	pop	r3
    88c2:	2f 90       	pop	r2
    88c4:	08 95       	ret
    88c6:	ea 0c       	add	r14, r10
    88c8:	fb 1c       	adc	r15, r11
    88ca:	2e 81       	ldd	r18, Y+6	; 0x06
    88cc:	3f 81       	ldd	r19, Y+7	; 0x07
    88ce:	2c 0d       	add	r18, r12
    88d0:	3d 1d       	adc	r19, r13
    88d2:	3f 83       	std	Y+7, r19	; 0x07
    88d4:	2e 83       	std	Y+6, r18	; 0x06
    88d6:	84 0c       	add	r8, r4
    88d8:	95 1c       	adc	r9, r5
    88da:	d8 cf       	rjmp	.-80     	; 0x888c <_ZN9class_LED4lineEiiii5Color+0x15c>

000088dc <_ZN9class_LED6plotP8Eiiii5Color>:
    88dc:	2f 92       	push	r2
    88de:	3f 92       	push	r3
    88e0:	4f 92       	push	r4
    88e2:	5f 92       	push	r5
    88e4:	6f 92       	push	r6
    88e6:	7f 92       	push	r7
    88e8:	8f 92       	push	r8
    88ea:	9f 92       	push	r9
    88ec:	af 92       	push	r10
    88ee:	bf 92       	push	r11
    88f0:	cf 92       	push	r12
    88f2:	df 92       	push	r13
    88f4:	ef 92       	push	r14
    88f6:	ff 92       	push	r15
    88f8:	0f 93       	push	r16
    88fa:	1f 93       	push	r17
    88fc:	cf 93       	push	r28
    88fe:	df 93       	push	r29
    8900:	00 d0       	rcall	.+0      	; 0x8902 <_ZN9class_LED6plotP8Eiiii5Color+0x26>
    8902:	00 d0       	rcall	.+0      	; 0x8904 <_ZN9class_LED6plotP8Eiiii5Color+0x28>
    8904:	00 d0       	rcall	.+0      	; 0x8906 <_ZN9class_LED6plotP8Eiiii5Color+0x2a>
    8906:	cd b7       	in	r28, 0x3d	; 61
    8908:	de b7       	in	r29, 0x3e	; 62
    890a:	7c 01       	movw	r14, r24
    890c:	6b 01       	movw	r12, r22
    890e:	5e 83       	std	Y+6, r21	; 0x06
    8910:	4d 83       	std	Y+5, r20	; 0x05
    8912:	39 01       	movw	r6, r18
    8914:	80 91 ed 02 	lds	r24, 0x02ED	; 0x8002ed <_led>
    8918:	1a 01       	movw	r2, r20
    891a:	2e 0c       	add	r2, r14
    891c:	3f 1c       	adc	r3, r15
    891e:	4b 01       	movw	r8, r22
    8920:	82 1a       	sub	r8, r18
    8922:	93 0a       	sbc	r9, r19
    8924:	57 01       	movw	r10, r14
    8926:	a4 1a       	sub	r10, r20
    8928:	b5 0a       	sbc	r11, r21
    892a:	2b 01       	movw	r4, r22
    892c:	46 0c       	add	r4, r6
    892e:	57 1c       	adc	r5, r7
    8930:	88 23       	and	r24, r24
    8932:	e9 f1       	breq	.+122    	; 0x89ae <_ZN9class_LED6plotP8Eiiii5Color+0xd2>
    8934:	94 01       	movw	r18, r8
    8936:	a1 01       	movw	r20, r2
    8938:	b4 01       	movw	r22, r8
    893a:	c5 01       	movw	r24, r10
    893c:	0e 94 98 43 	call	0x8730	; 0x8730 <_ZN9class_LED4lineEiiii5Color>
    8940:	92 01       	movw	r18, r4
    8942:	a1 01       	movw	r20, r2
    8944:	b2 01       	movw	r22, r4
    8946:	c5 01       	movw	r24, r10
    8948:	0e 94 98 43 	call	0x8730	; 0x8730 <_ZN9class_LED4lineEiiii5Color>
    894c:	53 01       	movw	r10, r6
    894e:	ae 0c       	add	r10, r14
    8950:	bf 1c       	adc	r11, r15
    8952:	b6 01       	movw	r22, r12
    8954:	8d 81       	ldd	r24, Y+5	; 0x05
    8956:	9e 81       	ldd	r25, Y+6	; 0x06
    8958:	68 1b       	sub	r22, r24
    895a:	79 0b       	sbc	r23, r25
    895c:	e6 18       	sub	r14, r6
    895e:	f7 08       	sbc	r15, r7
    8960:	9b 01       	movw	r18, r22
    8962:	a5 01       	movw	r20, r10
    8964:	c7 01       	movw	r24, r14
    8966:	0e 94 98 43 	call	0x8730	; 0x8730 <_ZN9class_LED4lineEiiii5Color>
    896a:	6d 81       	ldd	r22, Y+5	; 0x05
    896c:	7e 81       	ldd	r23, Y+6	; 0x06
    896e:	6c 0d       	add	r22, r12
    8970:	7d 1d       	adc	r23, r13
    8972:	9b 01       	movw	r18, r22
    8974:	a5 01       	movw	r20, r10
    8976:	c7 01       	movw	r24, r14
    8978:	0e 94 98 43 	call	0x8730	; 0x8730 <_ZN9class_LED4lineEiiii5Color>
    897c:	26 96       	adiw	r28, 0x06	; 6
    897e:	0f b6       	in	r0, 0x3f	; 63
    8980:	f8 94       	cli
    8982:	de bf       	out	0x3e, r29	; 62
    8984:	0f be       	out	0x3f, r0	; 63
    8986:	cd bf       	out	0x3d, r28	; 61
    8988:	df 91       	pop	r29
    898a:	cf 91       	pop	r28
    898c:	1f 91       	pop	r17
    898e:	0f 91       	pop	r16
    8990:	ff 90       	pop	r15
    8992:	ef 90       	pop	r14
    8994:	df 90       	pop	r13
    8996:	cf 90       	pop	r12
    8998:	bf 90       	pop	r11
    899a:	af 90       	pop	r10
    899c:	9f 90       	pop	r9
    899e:	8f 90       	pop	r8
    89a0:	7f 90       	pop	r7
    89a2:	6f 90       	pop	r6
    89a4:	5f 90       	pop	r5
    89a6:	4f 90       	pop	r4
    89a8:	3f 90       	pop	r3
    89aa:	2f 90       	pop	r2
    89ac:	08 95       	ret
    89ae:	9b 01       	movw	r18, r22
    89b0:	8d 81       	ldd	r24, Y+5	; 0x05
    89b2:	9e 81       	ldd	r25, Y+6	; 0x06
    89b4:	28 1b       	sub	r18, r24
    89b6:	39 0b       	sbc	r19, r25
    89b8:	3a 83       	std	Y+2, r19	; 0x02
    89ba:	29 83       	std	Y+1, r18	; 0x01
    89bc:	93 01       	movw	r18, r6
    89be:	2e 0d       	add	r18, r14
    89c0:	3f 1d       	adc	r19, r15
    89c2:	3c 83       	std	Y+4, r19	; 0x04
    89c4:	2b 83       	std	Y+3, r18	; 0x03
    89c6:	40 2f       	mov	r20, r16
    89c8:	69 81       	ldd	r22, Y+1	; 0x01
    89ca:	7a 81       	ldd	r23, Y+2	; 0x02
    89cc:	c9 01       	movw	r24, r18
    89ce:	0e 94 f9 42 	call	0x85f2	; 0x85f2 <_ZN9class_LED8setPixelEii5Color>
    89d2:	40 2f       	mov	r20, r16
    89d4:	b4 01       	movw	r22, r8
    89d6:	c1 01       	movw	r24, r2
    89d8:	0e 94 f9 42 	call	0x85f2	; 0x85f2 <_ZN9class_LED8setPixelEii5Color>
    89dc:	40 2f       	mov	r20, r16
    89de:	b4 01       	movw	r22, r8
    89e0:	c5 01       	movw	r24, r10
    89e2:	0e 94 f9 42 	call	0x85f2	; 0x85f2 <_ZN9class_LED8setPixelEii5Color>
    89e6:	e6 18       	sub	r14, r6
    89e8:	f7 08       	sbc	r15, r7
    89ea:	40 2f       	mov	r20, r16
    89ec:	69 81       	ldd	r22, Y+1	; 0x01
    89ee:	7a 81       	ldd	r23, Y+2	; 0x02
    89f0:	c7 01       	movw	r24, r14
    89f2:	0e 94 f9 42 	call	0x85f2	; 0x85f2 <_ZN9class_LED8setPixelEii5Color>
    89f6:	8d 81       	ldd	r24, Y+5	; 0x05
    89f8:	9e 81       	ldd	r25, Y+6	; 0x06
    89fa:	8c 0d       	add	r24, r12
    89fc:	9d 1d       	adc	r25, r13
    89fe:	9a 83       	std	Y+2, r25	; 0x02
    8a00:	89 83       	std	Y+1, r24	; 0x01
    8a02:	40 2f       	mov	r20, r16
    8a04:	bc 01       	movw	r22, r24
    8a06:	c7 01       	movw	r24, r14
    8a08:	0e 94 f9 42 	call	0x85f2	; 0x85f2 <_ZN9class_LED8setPixelEii5Color>
    8a0c:	40 2f       	mov	r20, r16
    8a0e:	b2 01       	movw	r22, r4
    8a10:	c5 01       	movw	r24, r10
    8a12:	0e 94 f9 42 	call	0x85f2	; 0x85f2 <_ZN9class_LED8setPixelEii5Color>
    8a16:	40 2f       	mov	r20, r16
    8a18:	b2 01       	movw	r22, r4
    8a1a:	c1 01       	movw	r24, r2
    8a1c:	0e 94 f9 42 	call	0x85f2	; 0x85f2 <_ZN9class_LED8setPixelEii5Color>
    8a20:	40 2f       	mov	r20, r16
    8a22:	69 81       	ldd	r22, Y+1	; 0x01
    8a24:	7a 81       	ldd	r23, Y+2	; 0x02
    8a26:	8b 81       	ldd	r24, Y+3	; 0x03
    8a28:	9c 81       	ldd	r25, Y+4	; 0x04
    8a2a:	26 96       	adiw	r28, 0x06	; 6
    8a2c:	0f b6       	in	r0, 0x3f	; 63
    8a2e:	f8 94       	cli
    8a30:	de bf       	out	0x3e, r29	; 62
    8a32:	0f be       	out	0x3f, r0	; 63
    8a34:	cd bf       	out	0x3d, r28	; 61
    8a36:	df 91       	pop	r29
    8a38:	cf 91       	pop	r28
    8a3a:	1f 91       	pop	r17
    8a3c:	0f 91       	pop	r16
    8a3e:	ff 90       	pop	r15
    8a40:	ef 90       	pop	r14
    8a42:	df 90       	pop	r13
    8a44:	cf 90       	pop	r12
    8a46:	bf 90       	pop	r11
    8a48:	af 90       	pop	r10
    8a4a:	9f 90       	pop	r9
    8a4c:	8f 90       	pop	r8
    8a4e:	7f 90       	pop	r7
    8a50:	6f 90       	pop	r6
    8a52:	5f 90       	pop	r5
    8a54:	4f 90       	pop	r4
    8a56:	3f 90       	pop	r3
    8a58:	2f 90       	pop	r2
    8a5a:	0c 94 f9 42 	jmp	0x85f2	; 0x85f2 <_ZN9class_LED8setPixelEii5Color>

00008a5e <_ZN9class_LED6moveToEii>:
    8a5e:	ed ee       	ldi	r30, 0xED	; 237
    8a60:	f2 e0       	ldi	r31, 0x02	; 2
    8a62:	96 83       	std	Z+6, r25	; 0x06
    8a64:	85 83       	std	Z+5, r24	; 0x05
    8a66:	70 87       	std	Z+8, r23	; 0x08
    8a68:	67 83       	std	Z+7, r22	; 0x07
    8a6a:	08 95       	ret

00008a6c <_ZN9class_LED6circleEiii5Color>:
    8a6c:	6f 92       	push	r6
    8a6e:	7f 92       	push	r7
    8a70:	8f 92       	push	r8
    8a72:	9f 92       	push	r9
    8a74:	af 92       	push	r10
    8a76:	bf 92       	push	r11
    8a78:	cf 92       	push	r12
    8a7a:	df 92       	push	r13
    8a7c:	ef 92       	push	r14
    8a7e:	ff 92       	push	r15
    8a80:	0f 93       	push	r16
    8a82:	1f 93       	push	r17
    8a84:	cf 93       	push	r28
    8a86:	df 93       	push	r29
    8a88:	4c 01       	movw	r8, r24
    8a8a:	3b 01       	movw	r6, r22
    8a8c:	7a 01       	movw	r14, r20
    8a8e:	12 2f       	mov	r17, r18
    8a90:	57 fd       	sbrc	r21, 7
    8a92:	38 c0       	rjmp	.+112    	; 0x8b04 <_ZN9class_LED6circleEiii5Color+0x98>
    8a94:	ca 01       	movw	r24, r20
    8a96:	88 0f       	add	r24, r24
    8a98:	99 1f       	adc	r25, r25
    8a9a:	23 e0       	ldi	r18, 0x03	; 3
    8a9c:	30 e0       	ldi	r19, 0x00	; 0
    8a9e:	69 01       	movw	r12, r18
    8aa0:	c8 1a       	sub	r12, r24
    8aa2:	d9 0a       	sbc	r13, r25
    8aa4:	46 e0       	ldi	r20, 0x06	; 6
    8aa6:	a4 2e       	mov	r10, r20
    8aa8:	b1 2c       	mov	r11, r1
    8aaa:	c0 e0       	ldi	r28, 0x00	; 0
    8aac:	d0 e0       	ldi	r29, 0x00	; 0
    8aae:	ce 15       	cp	r28, r14
    8ab0:	df 05       	cpc	r29, r15
    8ab2:	f4 f4       	brge	.+60     	; 0x8af0 <_ZN9class_LED6circleEiii5Color+0x84>
    8ab4:	01 2f       	mov	r16, r17
    8ab6:	97 01       	movw	r18, r14
    8ab8:	ae 01       	movw	r20, r28
    8aba:	b3 01       	movw	r22, r6
    8abc:	c4 01       	movw	r24, r8
    8abe:	0e 94 6e 44 	call	0x88dc	; 0x88dc <_ZN9class_LED6plotP8Eiiii5Color>
    8ac2:	d7 fe       	sbrs	r13, 7
    8ac4:	03 c0       	rjmp	.+6      	; 0x8acc <_ZN9class_LED6circleEiii5Color+0x60>
    8ac6:	ca 0c       	add	r12, r10
    8ac8:	db 1c       	adc	r13, r11
    8aca:	0d c0       	rjmp	.+26     	; 0x8ae6 <_ZN9class_LED6circleEiii5Color+0x7a>
    8acc:	ce 01       	movw	r24, r28
    8ace:	8e 19       	sub	r24, r14
    8ad0:	9f 09       	sbc	r25, r15
    8ad2:	88 0f       	add	r24, r24
    8ad4:	99 1f       	adc	r25, r25
    8ad6:	88 0f       	add	r24, r24
    8ad8:	99 1f       	adc	r25, r25
    8ada:	0a 96       	adiw	r24, 0x0a	; 10
    8adc:	c8 0e       	add	r12, r24
    8ade:	d9 1e       	adc	r13, r25
    8ae0:	81 e0       	ldi	r24, 0x01	; 1
    8ae2:	e8 1a       	sub	r14, r24
    8ae4:	f1 08       	sbc	r15, r1
    8ae6:	21 96       	adiw	r28, 0x01	; 1
    8ae8:	84 e0       	ldi	r24, 0x04	; 4
    8aea:	a8 0e       	add	r10, r24
    8aec:	b1 1c       	adc	r11, r1
    8aee:	df cf       	rjmp	.-66     	; 0x8aae <_ZN9class_LED6circleEiii5Color+0x42>
    8af0:	ce 15       	cp	r28, r14
    8af2:	df 05       	cpc	r29, r15
    8af4:	39 f4       	brne	.+14     	; 0x8b04 <_ZN9class_LED6circleEiii5Color+0x98>
    8af6:	01 2f       	mov	r16, r17
    8af8:	9e 01       	movw	r18, r28
    8afa:	ae 01       	movw	r20, r28
    8afc:	b3 01       	movw	r22, r6
    8afe:	c4 01       	movw	r24, r8
    8b00:	0e 94 6e 44 	call	0x88dc	; 0x88dc <_ZN9class_LED6plotP8Eiiii5Color>
    8b04:	df 91       	pop	r29
    8b06:	cf 91       	pop	r28
    8b08:	1f 91       	pop	r17
    8b0a:	0f 91       	pop	r16
    8b0c:	ff 90       	pop	r15
    8b0e:	ef 90       	pop	r14
    8b10:	df 90       	pop	r13
    8b12:	cf 90       	pop	r12
    8b14:	bf 90       	pop	r11
    8b16:	af 90       	pop	r10
    8b18:	9f 90       	pop	r9
    8b1a:	8f 90       	pop	r8
    8b1c:	7f 90       	pop	r7
    8b1e:	6f 90       	pop	r6
    8b20:	08 95       	ret

00008b22 <_ZN9class_LED9rectangleEiiii5Color>:
    8b22:	af 92       	push	r10
    8b24:	bf 92       	push	r11
    8b26:	cf 92       	push	r12
    8b28:	df 92       	push	r13
    8b2a:	ef 92       	push	r14
    8b2c:	ff 92       	push	r15
    8b2e:	0f 93       	push	r16
    8b30:	1f 93       	push	r17
    8b32:	cf 93       	push	r28
    8b34:	df 93       	push	r29
    8b36:	6c 01       	movw	r12, r24
    8b38:	7b 01       	movw	r14, r22
    8b3a:	10 2f       	mov	r17, r16
    8b3c:	41 15       	cp	r20, r1
    8b3e:	51 05       	cpc	r21, r1
    8b40:	09 f4       	brne	.+2      	; 0x8b44 <_ZN9class_LED9rectangleEiiii5Color+0x22>
    8b42:	49 c0       	rjmp	.+146    	; 0x8bd6 <_ZN9class_LED9rectangleEiiii5Color+0xb4>
    8b44:	21 15       	cp	r18, r1
    8b46:	31 05       	cpc	r19, r1
    8b48:	09 f4       	brne	.+2      	; 0x8b4c <_ZN9class_LED9rectangleEiiii5Color+0x2a>
    8b4a:	45 c0       	rjmp	.+138    	; 0x8bd6 <_ZN9class_LED9rectangleEiiii5Color+0xb4>
    8b4c:	5a 01       	movw	r10, r20
    8b4e:	a8 0e       	add	r10, r24
    8b50:	b9 1e       	adc	r11, r25
    8b52:	e9 01       	movw	r28, r18
    8b54:	c6 0f       	add	r28, r22
    8b56:	d7 1f       	adc	r29, r23
    8b58:	14 16       	cp	r1, r20
    8b5a:	15 06       	cpc	r1, r21
    8b5c:	2c f4       	brge	.+10     	; 0x8b68 <_ZN9class_LED9rectangleEiiii5Color+0x46>
    8b5e:	81 e0       	ldi	r24, 0x01	; 1
    8b60:	a8 1a       	sub	r10, r24
    8b62:	b1 08       	sbc	r11, r1
    8b64:	21 97       	sbiw	r28, 0x01	; 1
    8b66:	04 c0       	rjmp	.+8      	; 0x8b70 <_ZN9class_LED9rectangleEiiii5Color+0x4e>
    8b68:	8f ef       	ldi	r24, 0xFF	; 255
    8b6a:	a8 1a       	sub	r10, r24
    8b6c:	b8 0a       	sbc	r11, r24
    8b6e:	21 96       	adiw	r28, 0x01	; 1
    8b70:	80 91 ed 02 	lds	r24, 0x02ED	; 0x8002ed <_led>
    8b74:	88 23       	and	r24, r24
    8b76:	b1 f0       	breq	.+44     	; 0x8ba4 <_ZN9class_LED9rectangleEiiii5Color+0x82>
    8b78:	ce 15       	cp	r28, r14
    8b7a:	df 05       	cpc	r29, r15
    8b7c:	2c f4       	brge	.+10     	; 0x8b88 <_ZN9class_LED9rectangleEiiii5Color+0x66>
    8b7e:	9e 2d       	mov	r25, r14
    8b80:	8f 2d       	mov	r24, r15
    8b82:	7e 01       	movw	r14, r28
    8b84:	c9 2f       	mov	r28, r25
    8b86:	d8 2f       	mov	r29, r24
    8b88:	ce 15       	cp	r28, r14
    8b8a:	df 05       	cpc	r29, r15
    8b8c:	24 f1       	brlt	.+72     	; 0x8bd6 <_ZN9class_LED9rectangleEiiii5Color+0xb4>
    8b8e:	01 2f       	mov	r16, r17
    8b90:	97 01       	movw	r18, r14
    8b92:	a5 01       	movw	r20, r10
    8b94:	b7 01       	movw	r22, r14
    8b96:	c6 01       	movw	r24, r12
    8b98:	0e 94 98 43 	call	0x8730	; 0x8730 <_ZN9class_LED4lineEiiii5Color>
    8b9c:	8f ef       	ldi	r24, 0xFF	; 255
    8b9e:	e8 1a       	sub	r14, r24
    8ba0:	f8 0a       	sbc	r15, r24
    8ba2:	f2 cf       	rjmp	.-28     	; 0x8b88 <_ZN9class_LED9rectangleEiiii5Color+0x66>
    8ba4:	01 2f       	mov	r16, r17
    8ba6:	97 01       	movw	r18, r14
    8ba8:	a5 01       	movw	r20, r10
    8baa:	b7 01       	movw	r22, r14
    8bac:	c6 01       	movw	r24, r12
    8bae:	0e 94 98 43 	call	0x8730	; 0x8730 <_ZN9class_LED4lineEiiii5Color>
    8bb2:	9e 01       	movw	r18, r28
    8bb4:	a5 01       	movw	r20, r10
    8bb6:	be 01       	movw	r22, r28
    8bb8:	c6 01       	movw	r24, r12
    8bba:	0e 94 98 43 	call	0x8730	; 0x8730 <_ZN9class_LED4lineEiiii5Color>
    8bbe:	9e 01       	movw	r18, r28
    8bc0:	a6 01       	movw	r20, r12
    8bc2:	b7 01       	movw	r22, r14
    8bc4:	c6 01       	movw	r24, r12
    8bc6:	0e 94 98 43 	call	0x8730	; 0x8730 <_ZN9class_LED4lineEiiii5Color>
    8bca:	9e 01       	movw	r18, r28
    8bcc:	a5 01       	movw	r20, r10
    8bce:	b7 01       	movw	r22, r14
    8bd0:	c5 01       	movw	r24, r10
    8bd2:	0e 94 98 43 	call	0x8730	; 0x8730 <_ZN9class_LED4lineEiiii5Color>
    8bd6:	df 91       	pop	r29
    8bd8:	cf 91       	pop	r28
    8bda:	1f 91       	pop	r17
    8bdc:	0f 91       	pop	r16
    8bde:	ff 90       	pop	r15
    8be0:	ef 90       	pop	r14
    8be2:	df 90       	pop	r13
    8be4:	cf 90       	pop	r12
    8be6:	bf 90       	pop	r11
    8be8:	af 90       	pop	r10
    8bea:	08 95       	ret

00008bec <_ZN9class_LED7setFontE8CharFont>:
    8bec:	80 93 f1 02 	sts	0x02F1, r24	; 0x8002f1 <_led+0x4>
    8bf0:	08 95       	ret

00008bf2 <_ZN9class_LED7getFontEv>:
    8bf2:	80 91 f1 02 	lds	r24, 0x02F1	; 0x8002f1 <_led+0x4>
    8bf6:	08 95       	ret

00008bf8 <_ZN9class_LED4putCEc5Color>:
    8bf8:	7f 92       	push	r7
    8bfa:	8f 92       	push	r8
    8bfc:	9f 92       	push	r9
    8bfe:	af 92       	push	r10
    8c00:	bf 92       	push	r11
    8c02:	cf 92       	push	r12
    8c04:	df 92       	push	r13
    8c06:	ef 92       	push	r14
    8c08:	ff 92       	push	r15
    8c0a:	0f 93       	push	r16
    8c0c:	1f 93       	push	r17
    8c0e:	cf 93       	push	r28
    8c10:	df 93       	push	r29
    8c12:	96 2e       	mov	r9, r22
    8c14:	90 91 f1 02 	lds	r25, 0x02F1	; 0x8002f1 <_led+0x4>
    8c18:	91 30       	cpi	r25, 0x01	; 1
    8c1a:	09 f4       	brne	.+2      	; 0x8c1e <_ZN9class_LED4putCEc5Color+0x26>
    8c1c:	1a c1       	rjmp	.+564    	; 0x8e52 <_ZN9class_LED4putCEc5Color+0x25a>
    8c1e:	08 f4       	brcc	.+2      	; 0x8c22 <_ZN9class_LED4putCEc5Color+0x2a>
    8c20:	71 c1       	rjmp	.+738    	; 0x8f04 <_ZN9class_LED4putCEc5Color+0x30c>
    8c22:	95 30       	cpi	r25, 0x05	; 5
    8c24:	08 f0       	brcs	.+2      	; 0x8c28 <_ZN9class_LED4putCEc5Color+0x30>
    8c26:	6e c1       	rjmp	.+732    	; 0x8f04 <_ZN9class_LED4putCEc5Color+0x30c>
    8c28:	80 52       	subi	r24, 0x20	; 32
    8c2a:	8f 35       	cpi	r24, 0x5F	; 95
    8c2c:	08 f0       	brcs	.+2      	; 0x8c30 <_ZN9class_LED4putCEc5Color+0x38>
    8c2e:	14 c1       	rjmp	.+552    	; 0x8e58 <_ZN9class_LED4putCEc5Color+0x260>
    8c30:	98 e0       	ldi	r25, 0x08	; 8
    8c32:	89 9f       	mul	r24, r25
    8c34:	80 01       	movw	r16, r0
    8c36:	11 24       	eor	r1, r1
    8c38:	c0 e0       	ldi	r28, 0x00	; 0
    8c3a:	d0 e0       	ldi	r29, 0x00	; 0
    8c3c:	a1 2c       	mov	r10, r1
    8c3e:	b1 2c       	mov	r11, r1
    8c40:	f8 01       	movw	r30, r16
    8c42:	ea 0d       	add	r30, r10
    8c44:	fb 1d       	adc	r31, r11
    8c46:	e4 57       	subi	r30, 0x74	; 116
    8c48:	ff 4f       	sbci	r31, 0xFF	; 255
    8c4a:	84 90       	lpm	r8, Z
    8c4c:	e1 2c       	mov	r14, r1
    8c4e:	f1 2c       	mov	r15, r1
    8c50:	c1 2c       	mov	r12, r1
    8c52:	d1 2c       	mov	r13, r1
    8c54:	50 e8       	ldi	r21, 0x80	; 128
    8c56:	75 2e       	mov	r7, r21
    8c58:	88 2d       	mov	r24, r8
    8c5a:	87 21       	and	r24, r7
    8c5c:	09 f4       	brne	.+2      	; 0x8c60 <_ZN9class_LED4putCEc5Color+0x68>
    8c5e:	6d c0       	rjmp	.+218    	; 0x8d3a <_ZN9class_LED4putCEc5Color+0x142>
    8c60:	80 91 f1 02 	lds	r24, 0x02F1	; 0x8002f1 <_led+0x4>
    8c64:	83 30       	cpi	r24, 0x03	; 3
    8c66:	61 f0       	breq	.+24     	; 0x8c80 <_ZN9class_LED4putCEc5Color+0x88>
    8c68:	84 30       	cpi	r24, 0x04	; 4
    8c6a:	39 f1       	breq	.+78     	; 0x8cba <_ZN9class_LED4putCEc5Color+0xc2>
    8c6c:	82 30       	cpi	r24, 0x02	; 2
    8c6e:	09 f0       	breq	.+2      	; 0x8c72 <_ZN9class_LED4putCEc5Color+0x7a>
    8c70:	da c0       	rjmp	.+436    	; 0x8e26 <_ZN9class_LED4putCEc5Color+0x22e>
    8c72:	60 91 f4 02 	lds	r22, 0x02F4	; 0x8002f4 <_led+0x7>
    8c76:	70 91 f5 02 	lds	r23, 0x02F5	; 0x8002f5 <_led+0x8>
    8c7a:	6a 0d       	add	r22, r10
    8c7c:	7b 1d       	adc	r23, r11
    8c7e:	17 c0       	rjmp	.+46     	; 0x8cae <_ZN9class_LED4putCEc5Color+0xb6>
    8c80:	60 91 f4 02 	lds	r22, 0x02F4	; 0x8002f4 <_led+0x7>
    8c84:	70 91 f5 02 	lds	r23, 0x02F5	; 0x8002f5 <_led+0x8>
    8c88:	6c 0f       	add	r22, r28
    8c8a:	7d 1f       	adc	r23, r29
    8c8c:	80 91 f2 02 	lds	r24, 0x02F2	; 0x8002f2 <_led+0x5>
    8c90:	90 91 f3 02 	lds	r25, 0x02F3	; 0x8002f3 <_led+0x6>
    8c94:	49 2d       	mov	r20, r9
    8c96:	8c 0d       	add	r24, r12
    8c98:	9d 1d       	adc	r25, r13
    8c9a:	0e 94 f9 42 	call	0x85f2	; 0x85f2 <_ZN9class_LED8setPixelEii5Color>
    8c9e:	60 91 f4 02 	lds	r22, 0x02F4	; 0x8002f4 <_led+0x7>
    8ca2:	70 91 f5 02 	lds	r23, 0x02F5	; 0x8002f5 <_led+0x8>
    8ca6:	6c 0f       	add	r22, r28
    8ca8:	7d 1f       	adc	r23, r29
    8caa:	6f 5f       	subi	r22, 0xFF	; 255
    8cac:	7f 4f       	sbci	r23, 0xFF	; 255
    8cae:	80 91 f2 02 	lds	r24, 0x02F2	; 0x8002f2 <_led+0x5>
    8cb2:	90 91 f3 02 	lds	r25, 0x02F3	; 0x8002f3 <_led+0x6>
    8cb6:	49 2d       	mov	r20, r9
    8cb8:	71 c0       	rjmp	.+226    	; 0x8d9c <_ZN9class_LED4putCEc5Color+0x1a4>
    8cba:	60 91 f4 02 	lds	r22, 0x02F4	; 0x8002f4 <_led+0x7>
    8cbe:	70 91 f5 02 	lds	r23, 0x02F5	; 0x8002f5 <_led+0x8>
    8cc2:	6c 0f       	add	r22, r28
    8cc4:	7d 1f       	adc	r23, r29
    8cc6:	80 91 f2 02 	lds	r24, 0x02F2	; 0x8002f2 <_led+0x5>
    8cca:	90 91 f3 02 	lds	r25, 0x02F3	; 0x8002f3 <_led+0x6>
    8cce:	41 e0       	ldi	r20, 0x01	; 1
    8cd0:	8e 0d       	add	r24, r14
    8cd2:	9f 1d       	adc	r25, r15
    8cd4:	0e 94 f9 42 	call	0x85f2	; 0x85f2 <_ZN9class_LED8setPixelEii5Color>
    8cd8:	60 91 f4 02 	lds	r22, 0x02F4	; 0x8002f4 <_led+0x7>
    8cdc:	70 91 f5 02 	lds	r23, 0x02F5	; 0x8002f5 <_led+0x8>
    8ce0:	6c 0f       	add	r22, r28
    8ce2:	7d 1f       	adc	r23, r29
    8ce4:	6f 5f       	subi	r22, 0xFF	; 255
    8ce6:	7f 4f       	sbci	r23, 0xFF	; 255
    8ce8:	80 91 f2 02 	lds	r24, 0x02F2	; 0x8002f2 <_led+0x5>
    8cec:	90 91 f3 02 	lds	r25, 0x02F3	; 0x8002f3 <_led+0x6>
    8cf0:	41 e0       	ldi	r20, 0x01	; 1
    8cf2:	8e 0d       	add	r24, r14
    8cf4:	9f 1d       	adc	r25, r15
    8cf6:	0e 94 f9 42 	call	0x85f2	; 0x85f2 <_ZN9class_LED8setPixelEii5Color>
    8cfa:	60 91 f4 02 	lds	r22, 0x02F4	; 0x8002f4 <_led+0x7>
    8cfe:	70 91 f5 02 	lds	r23, 0x02F5	; 0x8002f5 <_led+0x8>
    8d02:	6c 0f       	add	r22, r28
    8d04:	7d 1f       	adc	r23, r29
    8d06:	80 91 f2 02 	lds	r24, 0x02F2	; 0x8002f2 <_led+0x5>
    8d0a:	90 91 f3 02 	lds	r25, 0x02F3	; 0x8002f3 <_led+0x6>
    8d0e:	8e 0d       	add	r24, r14
    8d10:	9f 1d       	adc	r25, r15
    8d12:	41 e0       	ldi	r20, 0x01	; 1
    8d14:	01 96       	adiw	r24, 0x01	; 1
    8d16:	0e 94 f9 42 	call	0x85f2	; 0x85f2 <_ZN9class_LED8setPixelEii5Color>
    8d1a:	60 91 f4 02 	lds	r22, 0x02F4	; 0x8002f4 <_led+0x7>
    8d1e:	70 91 f5 02 	lds	r23, 0x02F5	; 0x8002f5 <_led+0x8>
    8d22:	6c 0f       	add	r22, r28
    8d24:	7d 1f       	adc	r23, r29
    8d26:	6f 5f       	subi	r22, 0xFF	; 255
    8d28:	7f 4f       	sbci	r23, 0xFF	; 255
    8d2a:	80 91 f2 02 	lds	r24, 0x02F2	; 0x8002f2 <_led+0x5>
    8d2e:	90 91 f3 02 	lds	r25, 0x02F3	; 0x8002f3 <_led+0x6>
    8d32:	8e 0d       	add	r24, r14
    8d34:	9f 1d       	adc	r25, r15
    8d36:	41 e0       	ldi	r20, 0x01	; 1
    8d38:	73 c0       	rjmp	.+230    	; 0x8e20 <_ZN9class_LED4putCEc5Color+0x228>
    8d3a:	80 91 ee 02 	lds	r24, 0x02EE	; 0x8002ee <_led+0x1>
    8d3e:	88 23       	and	r24, r24
    8d40:	09 f4       	brne	.+2      	; 0x8d44 <_ZN9class_LED4putCEc5Color+0x14c>
    8d42:	71 c0       	rjmp	.+226    	; 0x8e26 <_ZN9class_LED4putCEc5Color+0x22e>
    8d44:	80 91 f1 02 	lds	r24, 0x02F1	; 0x8002f1 <_led+0x4>
    8d48:	83 30       	cpi	r24, 0x03	; 3
    8d4a:	61 f0       	breq	.+24     	; 0x8d64 <_ZN9class_LED4putCEc5Color+0x16c>
    8d4c:	84 30       	cpi	r24, 0x04	; 4
    8d4e:	49 f1       	breq	.+82     	; 0x8da2 <_ZN9class_LED4putCEc5Color+0x1aa>
    8d50:	82 30       	cpi	r24, 0x02	; 2
    8d52:	09 f0       	breq	.+2      	; 0x8d56 <_ZN9class_LED4putCEc5Color+0x15e>
    8d54:	68 c0       	rjmp	.+208    	; 0x8e26 <_ZN9class_LED4putCEc5Color+0x22e>
    8d56:	60 91 f4 02 	lds	r22, 0x02F4	; 0x8002f4 <_led+0x7>
    8d5a:	70 91 f5 02 	lds	r23, 0x02F5	; 0x8002f5 <_led+0x8>
    8d5e:	6a 0d       	add	r22, r10
    8d60:	7b 1d       	adc	r23, r11
    8d62:	17 c0       	rjmp	.+46     	; 0x8d92 <_ZN9class_LED4putCEc5Color+0x19a>
    8d64:	60 91 f4 02 	lds	r22, 0x02F4	; 0x8002f4 <_led+0x7>
    8d68:	70 91 f5 02 	lds	r23, 0x02F5	; 0x8002f5 <_led+0x8>
    8d6c:	6c 0f       	add	r22, r28
    8d6e:	7d 1f       	adc	r23, r29
    8d70:	80 91 f2 02 	lds	r24, 0x02F2	; 0x8002f2 <_led+0x5>
    8d74:	90 91 f3 02 	lds	r25, 0x02F3	; 0x8002f3 <_led+0x6>
    8d78:	40 e0       	ldi	r20, 0x00	; 0
    8d7a:	8c 0d       	add	r24, r12
    8d7c:	9d 1d       	adc	r25, r13
    8d7e:	0e 94 f9 42 	call	0x85f2	; 0x85f2 <_ZN9class_LED8setPixelEii5Color>
    8d82:	60 91 f4 02 	lds	r22, 0x02F4	; 0x8002f4 <_led+0x7>
    8d86:	70 91 f5 02 	lds	r23, 0x02F5	; 0x8002f5 <_led+0x8>
    8d8a:	6c 0f       	add	r22, r28
    8d8c:	7d 1f       	adc	r23, r29
    8d8e:	6f 5f       	subi	r22, 0xFF	; 255
    8d90:	7f 4f       	sbci	r23, 0xFF	; 255
    8d92:	80 91 f2 02 	lds	r24, 0x02F2	; 0x8002f2 <_led+0x5>
    8d96:	90 91 f3 02 	lds	r25, 0x02F3	; 0x8002f3 <_led+0x6>
    8d9a:	40 e0       	ldi	r20, 0x00	; 0
    8d9c:	8c 0d       	add	r24, r12
    8d9e:	9d 1d       	adc	r25, r13
    8da0:	40 c0       	rjmp	.+128    	; 0x8e22 <_ZN9class_LED4putCEc5Color+0x22a>
    8da2:	60 91 f4 02 	lds	r22, 0x02F4	; 0x8002f4 <_led+0x7>
    8da6:	70 91 f5 02 	lds	r23, 0x02F5	; 0x8002f5 <_led+0x8>
    8daa:	6c 0f       	add	r22, r28
    8dac:	7d 1f       	adc	r23, r29
    8dae:	80 91 f2 02 	lds	r24, 0x02F2	; 0x8002f2 <_led+0x5>
    8db2:	90 91 f3 02 	lds	r25, 0x02F3	; 0x8002f3 <_led+0x6>
    8db6:	40 e0       	ldi	r20, 0x00	; 0
    8db8:	8e 0d       	add	r24, r14
    8dba:	9f 1d       	adc	r25, r15
    8dbc:	0e 94 f9 42 	call	0x85f2	; 0x85f2 <_ZN9class_LED8setPixelEii5Color>
    8dc0:	60 91 f4 02 	lds	r22, 0x02F4	; 0x8002f4 <_led+0x7>
    8dc4:	70 91 f5 02 	lds	r23, 0x02F5	; 0x8002f5 <_led+0x8>
    8dc8:	6c 0f       	add	r22, r28
    8dca:	7d 1f       	adc	r23, r29
    8dcc:	6f 5f       	subi	r22, 0xFF	; 255
    8dce:	7f 4f       	sbci	r23, 0xFF	; 255
    8dd0:	80 91 f2 02 	lds	r24, 0x02F2	; 0x8002f2 <_led+0x5>
    8dd4:	90 91 f3 02 	lds	r25, 0x02F3	; 0x8002f3 <_led+0x6>
    8dd8:	40 e0       	ldi	r20, 0x00	; 0
    8dda:	8e 0d       	add	r24, r14
    8ddc:	9f 1d       	adc	r25, r15
    8dde:	0e 94 f9 42 	call	0x85f2	; 0x85f2 <_ZN9class_LED8setPixelEii5Color>
    8de2:	60 91 f4 02 	lds	r22, 0x02F4	; 0x8002f4 <_led+0x7>
    8de6:	70 91 f5 02 	lds	r23, 0x02F5	; 0x8002f5 <_led+0x8>
    8dea:	6c 0f       	add	r22, r28
    8dec:	7d 1f       	adc	r23, r29
    8dee:	80 91 f2 02 	lds	r24, 0x02F2	; 0x8002f2 <_led+0x5>
    8df2:	90 91 f3 02 	lds	r25, 0x02F3	; 0x8002f3 <_led+0x6>
    8df6:	8e 0d       	add	r24, r14
    8df8:	9f 1d       	adc	r25, r15
    8dfa:	40 e0       	ldi	r20, 0x00	; 0
    8dfc:	01 96       	adiw	r24, 0x01	; 1
    8dfe:	0e 94 f9 42 	call	0x85f2	; 0x85f2 <_ZN9class_LED8setPixelEii5Color>
    8e02:	60 91 f4 02 	lds	r22, 0x02F4	; 0x8002f4 <_led+0x7>
    8e06:	70 91 f5 02 	lds	r23, 0x02F5	; 0x8002f5 <_led+0x8>
    8e0a:	6c 0f       	add	r22, r28
    8e0c:	7d 1f       	adc	r23, r29
    8e0e:	6f 5f       	subi	r22, 0xFF	; 255
    8e10:	7f 4f       	sbci	r23, 0xFF	; 255
    8e12:	80 91 f2 02 	lds	r24, 0x02F2	; 0x8002f2 <_led+0x5>
    8e16:	90 91 f3 02 	lds	r25, 0x02F3	; 0x8002f3 <_led+0x6>
    8e1a:	8e 0d       	add	r24, r14
    8e1c:	9f 1d       	adc	r25, r15
    8e1e:	40 e0       	ldi	r20, 0x00	; 0
    8e20:	01 96       	adiw	r24, 0x01	; 1
    8e22:	0e 94 f9 42 	call	0x85f2	; 0x85f2 <_ZN9class_LED8setPixelEii5Color>
    8e26:	76 94       	lsr	r7
    8e28:	8f ef       	ldi	r24, 0xFF	; 255
    8e2a:	c8 1a       	sub	r12, r24
    8e2c:	d8 0a       	sbc	r13, r24
    8e2e:	92 e0       	ldi	r25, 0x02	; 2
    8e30:	e9 0e       	add	r14, r25
    8e32:	f1 1c       	adc	r15, r1
    8e34:	86 e0       	ldi	r24, 0x06	; 6
    8e36:	c8 16       	cp	r12, r24
    8e38:	d1 04       	cpc	r13, r1
    8e3a:	09 f0       	breq	.+2      	; 0x8e3e <_ZN9class_LED4putCEc5Color+0x246>
    8e3c:	0d cf       	rjmp	.-486    	; 0x8c58 <_ZN9class_LED4putCEc5Color+0x60>
    8e3e:	9f ef       	ldi	r25, 0xFF	; 255
    8e40:	a9 1a       	sub	r10, r25
    8e42:	b9 0a       	sbc	r11, r25
    8e44:	22 96       	adiw	r28, 0x02	; 2
    8e46:	88 e0       	ldi	r24, 0x08	; 8
    8e48:	a8 16       	cp	r10, r24
    8e4a:	b1 04       	cpc	r11, r1
    8e4c:	09 f0       	breq	.+2      	; 0x8e50 <_ZN9class_LED4putCEc5Color+0x258>
    8e4e:	f8 ce       	rjmp	.-528    	; 0x8c40 <_ZN9class_LED4putCEc5Color+0x48>
    8e50:	03 c0       	rjmp	.+6      	; 0x8e58 <_ZN9class_LED4putCEc5Color+0x260>
    8e52:	80 52       	subi	r24, 0x20	; 32
    8e54:	8f 35       	cpi	r24, 0x5F	; 95
    8e56:	68 f0       	brcs	.+26     	; 0x8e72 <_ZN9class_LED4putCEc5Color+0x27a>
    8e58:	0e 94 d9 42 	call	0x85b2	; 0x85b2 <_ZN9class_LED12getCharWidthEv>
    8e5c:	20 91 f2 02 	lds	r18, 0x02F2	; 0x8002f2 <_led+0x5>
    8e60:	30 91 f3 02 	lds	r19, 0x02F3	; 0x8002f3 <_led+0x6>
    8e64:	82 0f       	add	r24, r18
    8e66:	93 1f       	adc	r25, r19
    8e68:	90 93 f3 02 	sts	0x02F3, r25	; 0x8002f3 <_led+0x6>
    8e6c:	80 93 f2 02 	sts	0x02F2, r24	; 0x8002f2 <_led+0x5>
    8e70:	49 c0       	rjmp	.+146    	; 0x8f04 <_ZN9class_LED4putCEc5Color+0x30c>
    8e72:	28 2f       	mov	r18, r24
    8e74:	30 e0       	ldi	r19, 0x00	; 0
    8e76:	35 95       	asr	r19
    8e78:	27 95       	ror	r18
    8e7a:	95 e0       	ldi	r25, 0x05	; 5
    8e7c:	92 9f       	mul	r25, r18
    8e7e:	60 01       	movw	r12, r0
    8e80:	93 9f       	mul	r25, r19
    8e82:	d0 0c       	add	r13, r0
    8e84:	11 24       	eor	r1, r1
    8e86:	80 fd       	sbrc	r24, 0
    8e88:	03 c0       	rjmp	.+6      	; 0x8e90 <_ZN9class_LED4putCEc5Color+0x298>
    8e8a:	90 e8       	ldi	r25, 0x80	; 128
    8e8c:	e9 2e       	mov	r14, r25
    8e8e:	02 c0       	rjmp	.+4      	; 0x8e94 <_ZN9class_LED4putCEc5Color+0x29c>
    8e90:	84 e0       	ldi	r24, 0x04	; 4
    8e92:	e8 2e       	mov	r14, r24
    8e94:	c0 e0       	ldi	r28, 0x00	; 0
    8e96:	d0 e0       	ldi	r29, 0x00	; 0
    8e98:	f6 01       	movw	r30, r12
    8e9a:	ec 0f       	add	r30, r28
    8e9c:	fd 1f       	adc	r31, r29
    8e9e:	ec 57       	subi	r30, 0x7C	; 124
    8ea0:	fc 4f       	sbci	r31, 0xFC	; 252
    8ea2:	b4 90       	lpm	r11, Z
    8ea4:	fe 2c       	mov	r15, r14
    8ea6:	00 e0       	ldi	r16, 0x00	; 0
    8ea8:	10 e0       	ldi	r17, 0x00	; 0
    8eaa:	8b 2d       	mov	r24, r11
    8eac:	8f 21       	and	r24, r15
    8eae:	61 f0       	breq	.+24     	; 0x8ec8 <_ZN9class_LED4putCEc5Color+0x2d0>
    8eb0:	60 91 f4 02 	lds	r22, 0x02F4	; 0x8002f4 <_led+0x7>
    8eb4:	70 91 f5 02 	lds	r23, 0x02F5	; 0x8002f5 <_led+0x8>
    8eb8:	6c 0f       	add	r22, r28
    8eba:	7d 1f       	adc	r23, r29
    8ebc:	80 91 f2 02 	lds	r24, 0x02F2	; 0x8002f2 <_led+0x5>
    8ec0:	90 91 f3 02 	lds	r25, 0x02F3	; 0x8002f3 <_led+0x6>
    8ec4:	49 2d       	mov	r20, r9
    8ec6:	0f c0       	rjmp	.+30     	; 0x8ee6 <_ZN9class_LED4putCEc5Color+0x2ee>
    8ec8:	80 91 ee 02 	lds	r24, 0x02EE	; 0x8002ee <_led+0x1>
    8ecc:	88 23       	and	r24, r24
    8ece:	79 f0       	breq	.+30     	; 0x8eee <_ZN9class_LED4putCEc5Color+0x2f6>
    8ed0:	60 91 f4 02 	lds	r22, 0x02F4	; 0x8002f4 <_led+0x7>
    8ed4:	70 91 f5 02 	lds	r23, 0x02F5	; 0x8002f5 <_led+0x8>
    8ed8:	6c 0f       	add	r22, r28
    8eda:	7d 1f       	adc	r23, r29
    8edc:	80 91 f2 02 	lds	r24, 0x02F2	; 0x8002f2 <_led+0x5>
    8ee0:	90 91 f3 02 	lds	r25, 0x02F3	; 0x8002f3 <_led+0x6>
    8ee4:	40 e0       	ldi	r20, 0x00	; 0
    8ee6:	80 0f       	add	r24, r16
    8ee8:	91 1f       	adc	r25, r17
    8eea:	0e 94 f9 42 	call	0x85f2	; 0x85f2 <_ZN9class_LED8setPixelEii5Color>
    8eee:	f6 94       	lsr	r15
    8ef0:	0f 5f       	subi	r16, 0xFF	; 255
    8ef2:	1f 4f       	sbci	r17, 0xFF	; 255
    8ef4:	03 30       	cpi	r16, 0x03	; 3
    8ef6:	11 05       	cpc	r17, r1
    8ef8:	c1 f6       	brne	.-80     	; 0x8eaa <_ZN9class_LED4putCEc5Color+0x2b2>
    8efa:	21 96       	adiw	r28, 0x01	; 1
    8efc:	c5 30       	cpi	r28, 0x05	; 5
    8efe:	d1 05       	cpc	r29, r1
    8f00:	59 f6       	brne	.-106    	; 0x8e98 <_ZN9class_LED4putCEc5Color+0x2a0>
    8f02:	aa cf       	rjmp	.-172    	; 0x8e58 <_ZN9class_LED4putCEc5Color+0x260>
    8f04:	df 91       	pop	r29
    8f06:	cf 91       	pop	r28
    8f08:	1f 91       	pop	r17
    8f0a:	0f 91       	pop	r16
    8f0c:	ff 90       	pop	r15
    8f0e:	ef 90       	pop	r14
    8f10:	df 90       	pop	r13
    8f12:	cf 90       	pop	r12
    8f14:	bf 90       	pop	r11
    8f16:	af 90       	pop	r10
    8f18:	9f 90       	pop	r9
    8f1a:	8f 90       	pop	r8
    8f1c:	7f 90       	pop	r7
    8f1e:	08 95       	ret

00008f20 <_ZN9class_LED4putSEPKc5Color>:
    8f20:	ef 92       	push	r14
    8f22:	ff 92       	push	r15
    8f24:	1f 93       	push	r17
    8f26:	cf 93       	push	r28
    8f28:	df 93       	push	r29
    8f2a:	16 2f       	mov	r17, r22
    8f2c:	e0 90 f2 02 	lds	r14, 0x02F2	; 0x8002f2 <_led+0x5>
    8f30:	f0 90 f3 02 	lds	r15, 0x02F3	; 0x8002f3 <_led+0x6>
    8f34:	ec 01       	movw	r28, r24
    8f36:	89 91       	ld	r24, Y+
    8f38:	88 23       	and	r24, r24
    8f3a:	d1 f0       	breq	.+52     	; 0x8f70 <_ZN9class_LED4putSEPKc5Color+0x50>
    8f3c:	8a 30       	cpi	r24, 0x0A	; 10
    8f3e:	39 f0       	breq	.+14     	; 0x8f4e <_ZN9class_LED4putSEPKc5Color+0x2e>
    8f40:	8d 30       	cpi	r24, 0x0D	; 13
    8f42:	91 f4       	brne	.+36     	; 0x8f68 <_ZN9class_LED4putSEPKc5Color+0x48>
    8f44:	f0 92 f3 02 	sts	0x02F3, r15	; 0x8002f3 <_led+0x6>
    8f48:	e0 92 f2 02 	sts	0x02F2, r14	; 0x8002f2 <_led+0x5>
    8f4c:	f4 cf       	rjmp	.-24     	; 0x8f36 <_ZN9class_LED4putSEPKc5Color+0x16>
    8f4e:	0e 94 e9 42 	call	0x85d2	; 0x85d2 <_ZN9class_LED13getCharHeightEv>
    8f52:	20 91 f4 02 	lds	r18, 0x02F4	; 0x8002f4 <_led+0x7>
    8f56:	30 91 f5 02 	lds	r19, 0x02F5	; 0x8002f5 <_led+0x8>
    8f5a:	82 0f       	add	r24, r18
    8f5c:	93 1f       	adc	r25, r19
    8f5e:	90 93 f5 02 	sts	0x02F5, r25	; 0x8002f5 <_led+0x8>
    8f62:	80 93 f4 02 	sts	0x02F4, r24	; 0x8002f4 <_led+0x7>
    8f66:	e7 cf       	rjmp	.-50     	; 0x8f36 <_ZN9class_LED4putSEPKc5Color+0x16>
    8f68:	61 2f       	mov	r22, r17
    8f6a:	0e 94 fc 45 	call	0x8bf8	; 0x8bf8 <_ZN9class_LED4putCEc5Color>
    8f6e:	e3 cf       	rjmp	.-58     	; 0x8f36 <_ZN9class_LED4putSEPKc5Color+0x16>
    8f70:	df 91       	pop	r29
    8f72:	cf 91       	pop	r28
    8f74:	1f 91       	pop	r17
    8f76:	ff 90       	pop	r15
    8f78:	ef 90       	pop	r14
    8f7a:	08 95       	ret

00008f7c <_ZN9class_LED5putSFEPKc>:
    8f7c:	0f 93       	push	r16
    8f7e:	1f 93       	push	r17
    8f80:	cf 93       	push	r28
    8f82:	df 93       	push	r29
    8f84:	00 91 f2 02 	lds	r16, 0x02F2	; 0x8002f2 <_led+0x5>
    8f88:	10 91 f3 02 	lds	r17, 0x02F3	; 0x8002f3 <_led+0x6>
    8f8c:	ec 01       	movw	r28, r24
    8f8e:	fe 01       	movw	r30, r28
    8f90:	84 91       	lpm	r24, Z
    8f92:	8a 30       	cpi	r24, 0x0A	; 10
    8f94:	71 f0       	breq	.+28     	; 0x8fb2 <_ZN9class_LED5putSFEPKc+0x36>
    8f96:	8d 30       	cpi	r24, 0x0D	; 13
    8f98:	39 f0       	breq	.+14     	; 0x8fa8 <_ZN9class_LED5putSFEPKc+0x2c>
    8f9a:	88 23       	and	r24, r24
    8f9c:	b9 f0       	breq	.+46     	; 0x8fcc <_ZN9class_LED5putSFEPKc+0x50>
    8f9e:	61 e0       	ldi	r22, 0x01	; 1
    8fa0:	0e 94 fc 45 	call	0x8bf8	; 0x8bf8 <_ZN9class_LED4putCEc5Color>
    8fa4:	21 96       	adiw	r28, 0x01	; 1
    8fa6:	f3 cf       	rjmp	.-26     	; 0x8f8e <_ZN9class_LED5putSFEPKc+0x12>
    8fa8:	10 93 f3 02 	sts	0x02F3, r17	; 0x8002f3 <_led+0x6>
    8fac:	00 93 f2 02 	sts	0x02F2, r16	; 0x8002f2 <_led+0x5>
    8fb0:	f9 cf       	rjmp	.-14     	; 0x8fa4 <_ZN9class_LED5putSFEPKc+0x28>
    8fb2:	0e 94 e9 42 	call	0x85d2	; 0x85d2 <_ZN9class_LED13getCharHeightEv>
    8fb6:	20 91 f4 02 	lds	r18, 0x02F4	; 0x8002f4 <_led+0x7>
    8fba:	30 91 f5 02 	lds	r19, 0x02F5	; 0x8002f5 <_led+0x8>
    8fbe:	82 0f       	add	r24, r18
    8fc0:	93 1f       	adc	r25, r19
    8fc2:	90 93 f5 02 	sts	0x02F5, r25	; 0x8002f5 <_led+0x8>
    8fc6:	80 93 f4 02 	sts	0x02F4, r24	; 0x8002f4 <_led+0x7>
    8fca:	ec cf       	rjmp	.-40     	; 0x8fa4 <_ZN9class_LED5putSFEPKc+0x28>
    8fcc:	df 91       	pop	r29
    8fce:	cf 91       	pop	r28
    8fd0:	1f 91       	pop	r17
    8fd2:	0f 91       	pop	r16
    8fd4:	08 95       	ret

00008fd6 <_ZN9class_LED12getBMPHeightEPKh>:
    8fd6:	08 96       	adiw	r24, 0x08	; 8
    8fd8:	fc 01       	movw	r30, r24
    8fda:	85 91       	lpm	r24, Z+
    8fdc:	94 91       	lpm	r25, Z
    8fde:	08 95       	ret

00008fe0 <_ZN9class_LED11getBMPWidthEPKh>:
    8fe0:	0c 94 eb 47 	jmp	0x8fd6	; 0x8fd6 <_ZN9class_LED12getBMPHeightEPKh>

00008fe4 <_ZN9class_LED3bmpEiiPKhb>:
    8fe4:	2f 92       	push	r2
    8fe6:	3f 92       	push	r3
    8fe8:	4f 92       	push	r4
    8fea:	5f 92       	push	r5
    8fec:	6f 92       	push	r6
    8fee:	7f 92       	push	r7
    8ff0:	8f 92       	push	r8
    8ff2:	9f 92       	push	r9
    8ff4:	af 92       	push	r10
    8ff6:	bf 92       	push	r11
    8ff8:	cf 92       	push	r12
    8ffa:	df 92       	push	r13
    8ffc:	ef 92       	push	r14
    8ffe:	ff 92       	push	r15
    9000:	0f 93       	push	r16
    9002:	1f 93       	push	r17
    9004:	cf 93       	push	r28
    9006:	df 93       	push	r29
    9008:	00 d0       	rcall	.+0      	; 0x900a <_ZN9class_LED3bmpEiiPKhb+0x26>
    900a:	00 d0       	rcall	.+0      	; 0x900c <_ZN9class_LED3bmpEiiPKhb+0x28>
    900c:	1f 92       	push	r1
    900e:	cd b7       	in	r28, 0x3d	; 61
    9010:	de b7       	in	r29, 0x3e	; 62
    9012:	fa 01       	movw	r30, r20
    9014:	34 91       	lpm	r19, Z
    9016:	32 34       	cpi	r19, 0x42	; 66
    9018:	09 f0       	breq	.+2      	; 0x901c <_ZN9class_LED3bmpEiiPKhb+0x38>
    901a:	a3 c0       	rjmp	.+326    	; 0x9162 <_ZN9class_LED3bmpEiiPKhb+0x17e>
    901c:	31 96       	adiw	r30, 0x01	; 1
    901e:	e4 91       	lpm	r30, Z
    9020:	ed 34       	cpi	r30, 0x4D	; 77
    9022:	09 f0       	breq	.+2      	; 0x9026 <_ZN9class_LED3bmpEiiPKhb+0x42>
    9024:	9e c0       	rjmp	.+316    	; 0x9162 <_ZN9class_LED3bmpEiiPKhb+0x17e>
    9026:	fa 01       	movw	r30, r20
    9028:	32 96       	adiw	r30, 0x02	; 2
    902a:	e4 91       	lpm	r30, Z
    902c:	ae 2f       	mov	r26, r30
    902e:	b0 e0       	ldi	r27, 0x00	; 0
    9030:	fa 01       	movw	r30, r20
    9032:	33 96       	adiw	r30, 0x03	; 3
    9034:	e4 91       	lpm	r30, Z
    9036:	f0 e0       	ldi	r31, 0x00	; 0
    9038:	fe 2f       	mov	r31, r30
    903a:	ee 27       	eor	r30, r30
    903c:	ae 0f       	add	r26, r30
    903e:	bf 1f       	adc	r27, r31
    9040:	52 97       	sbiw	r26, 0x12	; 18
    9042:	09 f0       	breq	.+2      	; 0x9046 <_ZN9class_LED3bmpEiiPKhb+0x62>
    9044:	8e c0       	rjmp	.+284    	; 0x9162 <_ZN9class_LED3bmpEiiPKhb+0x17e>
    9046:	fa 01       	movw	r30, r20
    9048:	34 96       	adiw	r30, 0x04	; 4
    904a:	e4 91       	lpm	r30, Z
    904c:	ae 2f       	mov	r26, r30
    904e:	b0 e0       	ldi	r27, 0x00	; 0
    9050:	fa 01       	movw	r30, r20
    9052:	35 96       	adiw	r30, 0x05	; 5
    9054:	e4 91       	lpm	r30, Z
    9056:	f0 e0       	ldi	r31, 0x00	; 0
    9058:	fe 2f       	mov	r31, r30
    905a:	ee 27       	eor	r30, r30
    905c:	ae 0f       	add	r26, r30
    905e:	bf 1f       	adc	r27, r31
    9060:	11 97       	sbiw	r26, 0x01	; 1
    9062:	09 f0       	breq	.+2      	; 0x9066 <_ZN9class_LED3bmpEiiPKhb+0x82>
    9064:	7e c0       	rjmp	.+252    	; 0x9162 <_ZN9class_LED3bmpEiiPKhb+0x17e>
    9066:	fa 01       	movw	r30, r20
    9068:	36 96       	adiw	r30, 0x06	; 6
    906a:	e4 91       	lpm	r30, Z
    906c:	ae 2f       	mov	r26, r30
    906e:	b0 e0       	ldi	r27, 0x00	; 0
    9070:	fa 01       	movw	r30, r20
    9072:	37 96       	adiw	r30, 0x07	; 7
    9074:	e4 91       	lpm	r30, Z
    9076:	f0 e0       	ldi	r31, 0x00	; 0
    9078:	fe 2f       	mov	r31, r30
    907a:	ee 27       	eor	r30, r30
    907c:	ae 0f       	add	r26, r30
    907e:	bf 1f       	adc	r27, r31
    9080:	ab 2b       	or	r26, r27
    9082:	09 f0       	breq	.+2      	; 0x9086 <_ZN9class_LED3bmpEiiPKhb+0xa2>
    9084:	6e c0       	rjmp	.+220    	; 0x9162 <_ZN9class_LED3bmpEiiPKhb+0x17e>
    9086:	2b 83       	std	Y+3, r18	; 0x03
    9088:	4b 01       	movw	r8, r22
    908a:	5c 01       	movw	r10, r24
    908c:	fa 01       	movw	r30, r20
    908e:	38 96       	adiw	r30, 0x08	; 8
    9090:	44 90       	lpm	r4, Z
    9092:	51 2c       	mov	r5, r1
    9094:	31 96       	adiw	r30, 0x01	; 1
    9096:	e4 91       	lpm	r30, Z
    9098:	f0 e0       	ldi	r31, 0x00	; 0
    909a:	fe 2f       	mov	r31, r30
    909c:	ee 27       	eor	r30, r30
    909e:	4e 0e       	add	r4, r30
    90a0:	5f 1e       	adc	r5, r31
    90a2:	fa 01       	movw	r30, r20
    90a4:	3a 96       	adiw	r30, 0x0a	; 10
    90a6:	64 90       	lpm	r6, Z
    90a8:	71 2c       	mov	r7, r1
    90aa:	31 96       	adiw	r30, 0x01	; 1
    90ac:	e4 91       	lpm	r30, Z
    90ae:	f0 e0       	ldi	r31, 0x00	; 0
    90b0:	fe 2f       	mov	r31, r30
    90b2:	ee 27       	eor	r30, r30
    90b4:	6e 0e       	add	r6, r30
    90b6:	7f 1e       	adc	r7, r31
    90b8:	fa 01       	movw	r30, r20
    90ba:	3c 96       	adiw	r30, 0x0c	; 12
    90bc:	04 91       	lpm	r16, Z
    90be:	10 e0       	ldi	r17, 0x00	; 0
    90c0:	31 96       	adiw	r30, 0x01	; 1
    90c2:	e4 91       	lpm	r30, Z
    90c4:	f0 e0       	ldi	r31, 0x00	; 0
    90c6:	fe 2f       	mov	r31, r30
    90c8:	ee 27       	eor	r30, r30
    90ca:	0e 0f       	add	r16, r30
    90cc:	1f 1f       	adc	r17, r31
    90ce:	ca 01       	movw	r24, r20
    90d0:	42 96       	adiw	r24, 0x12	; 18
    90d2:	9d 83       	std	Y+5, r25	; 0x05
    90d4:	8c 83       	std	Y+4, r24	; 0x04
    90d6:	19 82       	std	Y+1, r1	; 0x01
    90d8:	99 81       	ldd	r25, Y+1	; 0x01
    90da:	e9 2e       	mov	r14, r25
    90dc:	99 0f       	add	r25, r25
    90de:	ff 08       	sbc	r15, r15
    90e0:	e6 14       	cp	r14, r6
    90e2:	f7 04       	cpc	r15, r7
    90e4:	0c f0       	brlt	.+2      	; 0x90e8 <_ZN9class_LED3bmpEiiPKhb+0x104>
    90e6:	3d c0       	rjmp	.+122    	; 0x9162 <_ZN9class_LED3bmpEiiPKhb+0x17e>
    90e8:	0e 9d       	mul	r16, r14
    90ea:	60 01       	movw	r12, r0
    90ec:	0f 9d       	mul	r16, r15
    90ee:	d0 0c       	add	r13, r0
    90f0:	1e 9d       	mul	r17, r14
    90f2:	d0 0c       	add	r13, r0
    90f4:	11 24       	eor	r1, r1
    90f6:	ec 81       	ldd	r30, Y+4	; 0x04
    90f8:	fd 81       	ldd	r31, Y+5	; 0x05
    90fa:	ec 0d       	add	r30, r12
    90fc:	fd 1d       	adc	r31, r13
    90fe:	34 91       	lpm	r19, Z
    9100:	3a 83       	std	Y+2, r19	; 0x02
    9102:	21 2c       	mov	r2, r1
    9104:	90 e8       	ldi	r25, 0x80	; 128
    9106:	39 2e       	mov	r3, r25
    9108:	e8 0c       	add	r14, r8
    910a:	f9 1c       	adc	r15, r9
    910c:	82 2d       	mov	r24, r2
    910e:	02 2c       	mov	r0, r2
    9110:	00 0c       	add	r0, r0
    9112:	99 0b       	sbc	r25, r25
    9114:	84 15       	cp	r24, r4
    9116:	95 05       	cpc	r25, r5
    9118:	04 f5       	brge	.+64     	; 0x915a <_ZN9class_LED3bmpEiiPKhb+0x176>
    911a:	2a 81       	ldd	r18, Y+2	; 0x02
    911c:	23 21       	and	r18, r3
    911e:	8a 0d       	add	r24, r10
    9120:	9b 1d       	adc	r25, r11
    9122:	eb 81       	ldd	r30, Y+3	; 0x03
    9124:	41 e0       	ldi	r20, 0x01	; 1
    9126:	ee 23       	and	r30, r30
    9128:	19 f0       	breq	.+6      	; 0x9130 <_ZN9class_LED3bmpEiiPKhb+0x14c>
    912a:	22 23       	and	r18, r18
    912c:	21 f0       	breq	.+8      	; 0x9136 <_ZN9class_LED3bmpEiiPKhb+0x152>
    912e:	02 c0       	rjmp	.+4      	; 0x9134 <_ZN9class_LED3bmpEiiPKhb+0x150>
    9130:	21 11       	cpse	r18, r1
    9132:	01 c0       	rjmp	.+2      	; 0x9136 <_ZN9class_LED3bmpEiiPKhb+0x152>
    9134:	40 e0       	ldi	r20, 0x00	; 0
    9136:	b7 01       	movw	r22, r14
    9138:	0e 94 f9 42 	call	0x85f2	; 0x85f2 <_ZN9class_LED8setPixelEii5Color>
    913c:	36 94       	lsr	r3
    913e:	59 f4       	brne	.+22     	; 0x9156 <_ZN9class_LED3bmpEiiPKhb+0x172>
    9140:	ff ef       	ldi	r31, 0xFF	; 255
    9142:	cf 1a       	sub	r12, r31
    9144:	df 0a       	sbc	r13, r31
    9146:	ec 81       	ldd	r30, Y+4	; 0x04
    9148:	fd 81       	ldd	r31, Y+5	; 0x05
    914a:	ec 0d       	add	r30, r12
    914c:	fd 1d       	adc	r31, r13
    914e:	34 91       	lpm	r19, Z
    9150:	3a 83       	std	Y+2, r19	; 0x02
    9152:	80 e8       	ldi	r24, 0x80	; 128
    9154:	38 2e       	mov	r3, r24
    9156:	23 94       	inc	r2
    9158:	d9 cf       	rjmp	.-78     	; 0x910c <_ZN9class_LED3bmpEiiPKhb+0x128>
    915a:	89 81       	ldd	r24, Y+1	; 0x01
    915c:	8f 5f       	subi	r24, 0xFF	; 255
    915e:	89 83       	std	Y+1, r24	; 0x01
    9160:	bb cf       	rjmp	.-138    	; 0x90d8 <_ZN9class_LED3bmpEiiPKhb+0xf4>
    9162:	0f 90       	pop	r0
    9164:	0f 90       	pop	r0
    9166:	0f 90       	pop	r0
    9168:	0f 90       	pop	r0
    916a:	0f 90       	pop	r0
    916c:	df 91       	pop	r29
    916e:	cf 91       	pop	r28
    9170:	1f 91       	pop	r17
    9172:	0f 91       	pop	r16
    9174:	ff 90       	pop	r15
    9176:	ef 90       	pop	r14
    9178:	df 90       	pop	r13
    917a:	cf 90       	pop	r12
    917c:	bf 90       	pop	r11
    917e:	af 90       	pop	r10
    9180:	9f 90       	pop	r9
    9182:	8f 90       	pop	r8
    9184:	7f 90       	pop	r7
    9186:	6f 90       	pop	r6
    9188:	5f 90       	pop	r5
    918a:	4f 90       	pop	r4
    918c:	3f 90       	pop	r3
    918e:	2f 90       	pop	r2
    9190:	08 95       	ret

00009192 <_ZN9class_LED12getTextWidthEPKc>:
    9192:	cf 93       	push	r28
    9194:	df 93       	push	r29
    9196:	20 e0       	ldi	r18, 0x00	; 0
    9198:	30 e0       	ldi	r19, 0x00	; 0
    919a:	80 e0       	ldi	r24, 0x00	; 0
    919c:	90 e0       	ldi	r25, 0x00	; 0
    919e:	fb 01       	movw	r30, r22
    91a0:	41 91       	ld	r20, Z+
    91a2:	bf 01       	movw	r22, r30
    91a4:	44 23       	and	r20, r20
    91a6:	61 f0       	breq	.+24     	; 0x91c0 <_ZN9class_LED12getTextWidthEPKc+0x2e>
    91a8:	4a 30       	cpi	r20, 0x0A	; 10
    91aa:	11 f0       	breq	.+4      	; 0x91b0 <_ZN9class_LED12getTextWidthEPKc+0x1e>
    91ac:	4d 30       	cpi	r20, 0x0D	; 13
    91ae:	31 f4       	brne	.+12     	; 0x91bc <_ZN9class_LED12getTextWidthEPKc+0x2a>
    91b0:	28 17       	cp	r18, r24
    91b2:	39 07       	cpc	r19, r25
    91b4:	0c f4       	brge	.+2      	; 0x91b8 <_ZN9class_LED12getTextWidthEPKc+0x26>
    91b6:	9c 01       	movw	r18, r24
    91b8:	80 e0       	ldi	r24, 0x00	; 0
    91ba:	90 e0       	ldi	r25, 0x00	; 0
    91bc:	01 96       	adiw	r24, 0x01	; 1
    91be:	ef cf       	rjmp	.-34     	; 0x919e <_ZN9class_LED12getTextWidthEPKc+0xc>
    91c0:	ec 01       	movw	r28, r24
    91c2:	82 17       	cp	r24, r18
    91c4:	93 07       	cpc	r25, r19
    91c6:	0c f4       	brge	.+2      	; 0x91ca <_ZN9class_LED12getTextWidthEPKc+0x38>
    91c8:	e9 01       	movw	r28, r18
    91ca:	0e 94 d9 42 	call	0x85b2	; 0x85b2 <_ZN9class_LED12getCharWidthEv>
    91ce:	9c 01       	movw	r18, r24
    91d0:	2c 9f       	mul	r18, r28
    91d2:	c0 01       	movw	r24, r0
    91d4:	2d 9f       	mul	r18, r29
    91d6:	90 0d       	add	r25, r0
    91d8:	3c 9f       	mul	r19, r28
    91da:	90 0d       	add	r25, r0
    91dc:	11 24       	eor	r1, r1
    91de:	df 91       	pop	r29
    91e0:	cf 91       	pop	r28
    91e2:	08 95       	ret

000091e4 <_GLOBAL__sub_I__ZN9class_LED10InitializeEv>:
    91e4:	81 e7       	ldi	r24, 0x71	; 113
    91e6:	93 e0       	ldi	r25, 0x03	; 3
    91e8:	0c 94 c7 65 	jmp	0xcb8e	; 0xcb8e <_ZN11class_TimerC1Ev>

000091ec <_GLOBAL__sub_D__ZN9class_LED10InitializeEv>:
    91ec:	81 e7       	ldi	r24, 0x71	; 113
    91ee:	93 e0       	ldi	r25, 0x03	; 3
    91f0:	0c 94 d0 65 	jmp	0xcba0	; 0xcba0 <_ZN11class_TimerD1Ev>

000091f4 <_ZL10playCancelv>:
    91f4:	67 e0       	ldi	r22, 0x07	; 7
    91f6:	8b e3       	ldi	r24, 0x3B	; 59
    91f8:	90 e4       	ldi	r25, 0x40	; 64
    91fa:	0e 94 12 68 	call	0xd024	; 0xd024 <_ZN10class_Wave7PrepareEPKh11WaveChannel>
    91fe:	60 e0       	ldi	r22, 0x00	; 0
    9200:	87 e0       	ldi	r24, 0x07	; 7
    9202:	0c 94 ac 68 	jmp	0xd158	; 0xd158 <_ZN10class_Wave4PlayE11WaveChannel8PlayMode>

00009206 <_ZL6playOkv>:
    9206:	67 e0       	ldi	r22, 0x07	; 7
    9208:	83 ea       	ldi	r24, 0xA3	; 163
    920a:	91 e3       	ldi	r25, 0x31	; 49
    920c:	0e 94 12 68 	call	0xd024	; 0xd024 <_ZN10class_Wave7PrepareEPKh11WaveChannel>
    9210:	60 e0       	ldi	r22, 0x00	; 0
    9212:	87 e0       	ldi	r24, 0x07	; 7
    9214:	0c 94 ac 68 	jmp	0xd158	; 0xd158 <_ZN10class_Wave4PlayE11WaveChannel8PlayMode>

00009218 <_ZL5Resetv>:
    9218:	0f 93       	push	r16
    921a:	cf 93       	push	r28
    921c:	df 93       	push	r29
    921e:	80 e0       	ldi	r24, 0x00	; 0
    9220:	0e 94 46 42 	call	0x848c	; 0x848c <_ZN9class_LED3clsEb>
    9224:	81 e0       	ldi	r24, 0x01	; 1
    9226:	0e 94 f6 45 	call	0x8bec	; 0x8bec <_ZN9class_LED7setFontE8CharFont>
    922a:	61 e0       	ldi	r22, 0x01	; 1
    922c:	87 ea       	ldi	r24, 0xA7	; 167
    922e:	91 e0       	ldi	r25, 0x01	; 1
    9230:	0e 94 90 47 	call	0x8f20	; 0x8f20 <_ZN9class_LED4putSEPKc5Color>
    9234:	67 e0       	ldi	r22, 0x07	; 7
    9236:	84 ed       	ldi	r24, 0xD4	; 212
    9238:	9f e1       	ldi	r25, 0x1F	; 31
    923a:	0e 94 12 68 	call	0xd024	; 0xd024 <_ZN10class_Wave7PrepareEPKh11WaveChannel>
    923e:	60 e0       	ldi	r22, 0x00	; 0
    9240:	87 e0       	ldi	r24, 0x07	; 7
    9242:	0e 94 ac 68 	call	0xd158	; 0xd158 <_ZN10class_Wave4PlayE11WaveChannel8PlayMode>
    9246:	c0 e0       	ldi	r28, 0x00	; 0
    9248:	d0 e0       	ldi	r29, 0x00	; 0
    924a:	01 e0       	ldi	r16, 0x01	; 1
    924c:	24 e0       	ldi	r18, 0x04	; 4
    924e:	30 e0       	ldi	r19, 0x00	; 0
    9250:	ae 01       	movw	r20, r28
    9252:	6c e0       	ldi	r22, 0x0C	; 12
    9254:	70 e0       	ldi	r23, 0x00	; 0
    9256:	80 e0       	ldi	r24, 0x00	; 0
    9258:	90 e0       	ldi	r25, 0x00	; 0
    925a:	0e 94 91 45 	call	0x8b22	; 0x8b22 <_ZN9class_LED9rectangleEiiii5Color>
    925e:	0e 94 77 43 	call	0x86ee	; 0x86ee <_ZN9class_LED7refreshEv>
    9262:	44 e5       	ldi	r20, 0x54	; 84
    9264:	50 e0       	ldi	r21, 0x00	; 0
    9266:	60 e0       	ldi	r22, 0x00	; 0
    9268:	70 e0       	ldi	r23, 0x00	; 0
    926a:	8f ea       	ldi	r24, 0xAF	; 175
    926c:	97 e0       	ldi	r25, 0x07	; 7
    926e:	0e 94 5d 66 	call	0xccba	; 0xccba <_ZN11class_Timer17delayMillisecondsEm>
    9272:	21 96       	adiw	r28, 0x01	; 1
    9274:	c8 31       	cpi	r28, 0x18	; 24
    9276:	d1 05       	cpc	r29, r1
    9278:	41 f7       	brne	.-48     	; 0x924a <_ZL5Resetv+0x32>
    927a:	87 e0       	ldi	r24, 0x07	; 7
    927c:	0e 94 02 68 	call	0xd004	; 0xd004 <_ZN10class_Wave7PlayingE11WaveChannel>
    9280:	81 11       	cpse	r24, r1
    9282:	fb cf       	rjmp	.-10     	; 0x927a <_ZL5Resetv+0x62>
    9284:	0c 94 00 00 	jmp	0	; 0x0 <__vectors>
    9288:	df 91       	pop	r29
    928a:	cf 91       	pop	r28
    928c:	0f 91       	pop	r16
    928e:	08 95       	ret

00009290 <_ZL9ShowClockh>:
    9290:	5f 92       	push	r5
    9292:	6f 92       	push	r6
    9294:	7f 92       	push	r7
    9296:	8f 92       	push	r8
    9298:	9f 92       	push	r9
    929a:	af 92       	push	r10
    929c:	bf 92       	push	r11
    929e:	cf 92       	push	r12
    92a0:	df 92       	push	r13
    92a2:	ef 92       	push	r14
    92a4:	ff 92       	push	r15
    92a6:	0f 93       	push	r16
    92a8:	1f 93       	push	r17
    92aa:	cf 93       	push	r28
    92ac:	df 93       	push	r29
    92ae:	cd b7       	in	r28, 0x3d	; 61
    92b0:	de b7       	in	r29, 0x3e	; 62
    92b2:	27 97       	sbiw	r28, 0x07	; 7
    92b4:	0f b6       	in	r0, 0x3f	; 63
    92b6:	f8 94       	cli
    92b8:	de bf       	out	0x3e, r29	; 62
    92ba:	0f be       	out	0x3f, r0	; 63
    92bc:	cd bf       	out	0x3d, r28	; 61
    92be:	58 2e       	mov	r5, r24
    92c0:	60 e0       	ldi	r22, 0x00	; 0
    92c2:	81 e0       	ldi	r24, 0x01	; 1
    92c4:	0e 94 ac 68 	call	0xd158	; 0xd158 <_ZN10class_Wave4PlayE11WaveChannel8PlayMode>
    92c8:	be 01       	movw	r22, r28
    92ca:	6f 5f       	subi	r22, 0xFF	; 255
    92cc:	7f 4f       	sbci	r23, 0xFF	; 255
    92ce:	8f ea       	ldi	r24, 0xAF	; 175
    92d0:	97 e0       	ldi	r25, 0x07	; 7
    92d2:	0e 94 3d 66 	call	0xcc7a	; 0xcc7a <_ZN11class_Timer10setElapsedERm>
    92d6:	bb 24       	eor	r11, r11
    92d8:	b3 94       	inc	r11
    92da:	10 e0       	ldi	r17, 0x00	; 0
    92dc:	aa 24       	eor	r10, r10
    92de:	aa 94       	dec	r10
    92e0:	89 eb       	ldi	r24, 0xB9	; 185
    92e2:	e8 2e       	mov	r14, r24
    92e4:	82 e0       	ldi	r24, 0x02	; 2
    92e6:	f8 2e       	mov	r15, r24
    92e8:	9d ef       	ldi	r25, 0xFD	; 253
    92ea:	c9 2e       	mov	r12, r25
    92ec:	96 e0       	ldi	r25, 0x06	; 6
    92ee:	d9 2e       	mov	r13, r25
    92f0:	2f e0       	ldi	r18, 0x0F	; 15
    92f2:	62 2e       	mov	r6, r18
    92f4:	71 2c       	mov	r7, r1
    92f6:	20 e0       	ldi	r18, 0x00	; 0
    92f8:	ae 01       	movw	r20, r28
    92fa:	4b 5f       	subi	r20, 0xFB	; 251
    92fc:	5f 4f       	sbci	r21, 0xFF	; 255
    92fe:	be 01       	movw	r22, r28
    9300:	6a 5f       	subi	r22, 0xFA	; 250
    9302:	7f 4f       	sbci	r23, 0xFF	; 255
    9304:	ce 01       	movw	r24, r28
    9306:	07 96       	adiw	r24, 0x07	; 7
    9308:	0e 94 7e 64 	call	0xc8fc	; 0xc8fc <_ZN9class_RTC7GetTimeERhS0_S0_b>
    930c:	80 e0       	ldi	r24, 0x00	; 0
    930e:	0e 94 46 42 	call	0x848c	; 0x848c <_ZN9class_LED3clsEb>
    9312:	83 e0       	ldi	r24, 0x03	; 3
    9314:	0e 94 f6 45 	call	0x8bec	; 0x8bec <_ZN9class_LED7setFontE8CharFont>
    9318:	8f 81       	ldd	r24, Y+7	; 0x07
    931a:	1f 92       	push	r1
    931c:	8f 93       	push	r24
    931e:	ff 92       	push	r15
    9320:	ef 92       	push	r14
    9322:	df 92       	push	r13
    9324:	cf 92       	push	r12
    9326:	0e 94 6b 6a 	call	0xd4d6	; 0xd4d6 <sprintf>
    932a:	61 e0       	ldi	r22, 0x01	; 1
    932c:	70 e0       	ldi	r23, 0x00	; 0
    932e:	80 e0       	ldi	r24, 0x00	; 0
    9330:	90 e0       	ldi	r25, 0x00	; 0
    9332:	0e 94 2f 45 	call	0x8a5e	; 0x8a5e <_ZN9class_LED6moveToEii>
    9336:	61 e0       	ldi	r22, 0x01	; 1
    9338:	8d ef       	ldi	r24, 0xFD	; 253
    933a:	96 e0       	ldi	r25, 0x06	; 6
    933c:	0e 94 90 47 	call	0x8f20	; 0x8f20 <_ZN9class_LED4putSEPKc5Color>
    9340:	0f 90       	pop	r0
    9342:	0f 90       	pop	r0
    9344:	0f 90       	pop	r0
    9346:	0f 90       	pop	r0
    9348:	0f 90       	pop	r0
    934a:	0f 90       	pop	r0
    934c:	81 e0       	ldi	r24, 0x01	; 1
    934e:	58 16       	cp	r5, r24
    9350:	f1 f0       	breq	.+60     	; 0x938e <_ZL9ShowClockh+0xfe>
    9352:	92 e0       	ldi	r25, 0x02	; 2
    9354:	59 12       	cpse	r5, r25
    9356:	4b c0       	rjmp	.+150    	; 0x93ee <_ZL9ShowClockh+0x15e>
    9358:	8e 81       	ldd	r24, Y+6	; 0x06
    935a:	1f 92       	push	r1
    935c:	8f 93       	push	r24
    935e:	ff 92       	push	r15
    9360:	ef 92       	push	r14
    9362:	df 92       	push	r13
    9364:	cf 92       	push	r12
    9366:	0e 94 6b 6a 	call	0xd4d6	; 0xd4d6 <sprintf>
    936a:	61 e0       	ldi	r22, 0x01	; 1
    936c:	70 e0       	ldi	r23, 0x00	; 0
    936e:	8d e0       	ldi	r24, 0x0D	; 13
    9370:	90 e0       	ldi	r25, 0x00	; 0
    9372:	0e 94 2f 45 	call	0x8a5e	; 0x8a5e <_ZN9class_LED6moveToEii>
    9376:	61 e0       	ldi	r22, 0x01	; 1
    9378:	8d ef       	ldi	r24, 0xFD	; 253
    937a:	96 e0       	ldi	r25, 0x06	; 6
    937c:	0e 94 90 47 	call	0x8f20	; 0x8f20 <_ZN9class_LED4putSEPKc5Color>
    9380:	0f 90       	pop	r0
    9382:	0f 90       	pop	r0
    9384:	0f 90       	pop	r0
    9386:	0f 90       	pop	r0
    9388:	0f 90       	pop	r0
    938a:	0f 90       	pop	r0
    938c:	30 c0       	rjmp	.+96     	; 0x93ee <_ZL9ShowClockh+0x15e>
    938e:	82 e0       	ldi	r24, 0x02	; 2
    9390:	0e 94 f6 45 	call	0x8bec	; 0x8bec <_ZN9class_LED7setFontE8CharFont>
    9394:	8e 81       	ldd	r24, Y+6	; 0x06
    9396:	1f 92       	push	r1
    9398:	8f 93       	push	r24
    939a:	ff 92       	push	r15
    939c:	ef 92       	push	r14
    939e:	df 92       	push	r13
    93a0:	cf 92       	push	r12
    93a2:	0e 94 6b 6a 	call	0xd4d6	; 0xd4d6 <sprintf>
    93a6:	60 e0       	ldi	r22, 0x00	; 0
    93a8:	70 e0       	ldi	r23, 0x00	; 0
    93aa:	8d e0       	ldi	r24, 0x0D	; 13
    93ac:	90 e0       	ldi	r25, 0x00	; 0
    93ae:	0e 94 2f 45 	call	0x8a5e	; 0x8a5e <_ZN9class_LED6moveToEii>
    93b2:	61 e0       	ldi	r22, 0x01	; 1
    93b4:	8d ef       	ldi	r24, 0xFD	; 253
    93b6:	96 e0       	ldi	r25, 0x06	; 6
    93b8:	0e 94 90 47 	call	0x8f20	; 0x8f20 <_ZN9class_LED4putSEPKc5Color>
    93bc:	8d 81       	ldd	r24, Y+5	; 0x05
    93be:	1f 92       	push	r1
    93c0:	8f 93       	push	r24
    93c2:	ff 92       	push	r15
    93c4:	ef 92       	push	r14
    93c6:	df 92       	push	r13
    93c8:	cf 92       	push	r12
    93ca:	0e 94 6b 6a 	call	0xd4d6	; 0xd4d6 <sprintf>
    93ce:	69 e0       	ldi	r22, 0x09	; 9
    93d0:	70 e0       	ldi	r23, 0x00	; 0
    93d2:	8d e0       	ldi	r24, 0x0D	; 13
    93d4:	90 e0       	ldi	r25, 0x00	; 0
    93d6:	0e 94 2f 45 	call	0x8a5e	; 0x8a5e <_ZN9class_LED6moveToEii>
    93da:	61 e0       	ldi	r22, 0x01	; 1
    93dc:	8d ef       	ldi	r24, 0xFD	; 253
    93de:	96 e0       	ldi	r25, 0x06	; 6
    93e0:	0e 94 90 47 	call	0x8f20	; 0x8f20 <_ZN9class_LED4putSEPKc5Color>
    93e4:	0f b6       	in	r0, 0x3f	; 63
    93e6:	f8 94       	cli
    93e8:	de bf       	out	0x3e, r29	; 62
    93ea:	0f be       	out	0x3f, r0	; 63
    93ec:	cd bf       	out	0x3d, r28	; 61
    93ee:	be 01       	movw	r22, r28
    93f0:	6f 5f       	subi	r22, 0xFF	; 255
    93f2:	7f 4f       	sbci	r23, 0xFF	; 255
    93f4:	8f ea       	ldi	r24, 0xAF	; 175
    93f6:	97 e0       	ldi	r25, 0x07	; 7
    93f8:	0e 94 49 66 	call	0xcc92	; 0xcc92 <_ZN11class_Timer10getElapsedERm>
    93fc:	65 36       	cpi	r22, 0x65	; 101
    93fe:	71 05       	cpc	r23, r1
    9400:	81 05       	cpc	r24, r1
    9402:	91 05       	cpc	r25, r1
    9404:	48 f0       	brcs	.+18     	; 0x9418 <_ZL9ShowClockh+0x188>
    9406:	be 01       	movw	r22, r28
    9408:	6f 5f       	subi	r22, 0xFF	; 255
    940a:	7f 4f       	sbci	r23, 0xFF	; 255
    940c:	8f ea       	ldi	r24, 0xAF	; 175
    940e:	97 e0       	ldi	r25, 0x07	; 7
    9410:	0e 94 3d 66 	call	0xcc7a	; 0xcc7a <_ZN11class_Timer10setElapsedERm>
    9414:	81 e0       	ldi	r24, 0x01	; 1
    9416:	b8 26       	eor	r11, r24
    9418:	81 2e       	mov	r8, r17
    941a:	01 2e       	mov	r0, r17
    941c:	00 0c       	add	r0, r0
    941e:	99 08       	sbc	r9, r9
    9420:	0b 2d       	mov	r16, r11
    9422:	22 e0       	ldi	r18, 0x02	; 2
    9424:	30 e0       	ldi	r19, 0x00	; 0
    9426:	42 e0       	ldi	r20, 0x02	; 2
    9428:	50 e0       	ldi	r21, 0x00	; 0
    942a:	b4 01       	movw	r22, r8
    942c:	8b e0       	ldi	r24, 0x0B	; 11
    942e:	90 e0       	ldi	r25, 0x00	; 0
    9430:	0e 94 91 45 	call	0x8b22	; 0x8b22 <_ZN9class_LED9rectangleEiiii5Color>
    9434:	b3 01       	movw	r22, r6
    9436:	68 19       	sub	r22, r8
    9438:	79 09       	sbc	r23, r9
    943a:	22 e0       	ldi	r18, 0x02	; 2
    943c:	30 e0       	ldi	r19, 0x00	; 0
    943e:	42 e0       	ldi	r20, 0x02	; 2
    9440:	50 e0       	ldi	r21, 0x00	; 0
    9442:	8b e0       	ldi	r24, 0x0B	; 11
    9444:	90 e0       	ldi	r25, 0x00	; 0
    9446:	0e 94 91 45 	call	0x8b22	; 0x8b22 <_ZN9class_LED9rectangleEiiii5Color>
    944a:	9d 80       	ldd	r9, Y+5	; 0x05
    944c:	a9 14       	cp	r10, r9
    944e:	39 f0       	breq	.+14     	; 0x945e <_ZL9ShowClockh+0x1ce>
    9450:	11 50       	subi	r17, 0x01	; 1
    9452:	08 f4       	brcc	.+2      	; 0x9456 <_ZL9ShowClockh+0x1c6>
    9454:	1e e0       	ldi	r17, 0x0E	; 14
    9456:	60 e0       	ldi	r22, 0x00	; 0
    9458:	85 e0       	ldi	r24, 0x05	; 5
    945a:	0e 94 ac 68 	call	0xd158	; 0xd158 <_ZN10class_Wave4PlayE11WaveChannel8PlayMode>
    945e:	0e 94 77 43 	call	0x86ee	; 0x86ee <_ZN9class_LED7refreshEv>
    9462:	8d ea       	ldi	r24, 0xAD	; 173
    9464:	97 e0       	ldi	r25, 0x07	; 7
    9466:	0e 94 85 41 	call	0x830a	; 0x830a <_ZN9class_KBD11getKbdStateEv>
    946a:	80 34       	cpi	r24, 0x40	; 64
    946c:	d1 f4       	brne	.+52     	; 0x94a2 <_ZL9ShowClockh+0x212>
    946e:	8d ea       	ldi	r24, 0xAD	; 173
    9470:	97 e0       	ldi	r25, 0x07	; 7
    9472:	0e 94 bc 41 	call	0x8378	; 0x8378 <_ZN9class_KBD14waitKbdReleaseEv>
    9476:	27 96       	adiw	r28, 0x07	; 7
    9478:	0f b6       	in	r0, 0x3f	; 63
    947a:	f8 94       	cli
    947c:	de bf       	out	0x3e, r29	; 62
    947e:	0f be       	out	0x3f, r0	; 63
    9480:	cd bf       	out	0x3d, r28	; 61
    9482:	df 91       	pop	r29
    9484:	cf 91       	pop	r28
    9486:	1f 91       	pop	r17
    9488:	0f 91       	pop	r16
    948a:	ff 90       	pop	r15
    948c:	ef 90       	pop	r14
    948e:	df 90       	pop	r13
    9490:	cf 90       	pop	r12
    9492:	bf 90       	pop	r11
    9494:	af 90       	pop	r10
    9496:	9f 90       	pop	r9
    9498:	8f 90       	pop	r8
    949a:	7f 90       	pop	r7
    949c:	6f 90       	pop	r6
    949e:	5f 90       	pop	r5
    94a0:	08 95       	ret
    94a2:	44 e1       	ldi	r20, 0x14	; 20
    94a4:	50 e0       	ldi	r21, 0x00	; 0
    94a6:	60 e0       	ldi	r22, 0x00	; 0
    94a8:	70 e0       	ldi	r23, 0x00	; 0
    94aa:	8f ea       	ldi	r24, 0xAF	; 175
    94ac:	97 e0       	ldi	r25, 0x07	; 7
    94ae:	0e 94 5d 66 	call	0xccba	; 0xccba <_ZN11class_Timer17delayMillisecondsEm>
    94b2:	a9 2c       	mov	r10, r9
    94b4:	20 cf       	rjmp	.-448    	; 0x92f6 <_ZL9ShowClockh+0x66>

000094b6 <_ZL13scrollMessagePKcii.constprop.10>:
    94b6:	cf 92       	push	r12
    94b8:	df 92       	push	r13
    94ba:	ef 92       	push	r14
    94bc:	ff 92       	push	r15
    94be:	0f 93       	push	r16
    94c0:	1f 93       	push	r17
    94c2:	cf 93       	push	r28
    94c4:	df 93       	push	r29
    94c6:	8c 01       	movw	r16, r24
    94c8:	7b 01       	movw	r14, r22
    94ca:	bc 01       	movw	r22, r24
    94cc:	8e ea       	ldi	r24, 0xAE	; 174
    94ce:	97 e0       	ldi	r25, 0x07	; 7
    94d0:	0e 94 c9 48 	call	0x9192	; 0x9192 <_ZN9class_LED12getTextWidthEPKc>
    94d4:	c8 e1       	ldi	r28, 0x18	; 24
    94d6:	d0 e0       	ldi	r29, 0x00	; 0
    94d8:	cc 24       	eor	r12, r12
    94da:	dd 24       	eor	r13, r13
    94dc:	c8 1a       	sub	r12, r24
    94de:	d9 0a       	sbc	r13, r25
    94e0:	cc 15       	cp	r28, r12
    94e2:	dd 05       	cpc	r29, r13
    94e4:	e4 f0       	brlt	.+56     	; 0x951e <_ZL13scrollMessagePKcii.constprop.10+0x68>
    94e6:	b7 01       	movw	r22, r14
    94e8:	ce 01       	movw	r24, r28
    94ea:	0e 94 2f 45 	call	0x8a5e	; 0x8a5e <_ZN9class_LED6moveToEii>
    94ee:	61 e0       	ldi	r22, 0x01	; 1
    94f0:	c8 01       	movw	r24, r16
    94f2:	0e 94 90 47 	call	0x8f20	; 0x8f20 <_ZN9class_LED4putSEPKc5Color>
    94f6:	0e 94 77 43 	call	0x86ee	; 0x86ee <_ZN9class_LED7refreshEv>
    94fa:	47 e3       	ldi	r20, 0x37	; 55
    94fc:	50 e0       	ldi	r21, 0x00	; 0
    94fe:	60 e0       	ldi	r22, 0x00	; 0
    9500:	70 e0       	ldi	r23, 0x00	; 0
    9502:	8f ea       	ldi	r24, 0xAF	; 175
    9504:	97 e0       	ldi	r25, 0x07	; 7
    9506:	0e 94 5d 66 	call	0xccba	; 0xccba <_ZN11class_Timer17delayMillisecondsEm>
    950a:	8d ea       	ldi	r24, 0xAD	; 173
    950c:	97 e0       	ldi	r25, 0x07	; 7
    950e:	0e 94 85 41 	call	0x830a	; 0x830a <_ZN9class_KBD11getKbdStateEv>
    9512:	80 34       	cpi	r24, 0x40	; 64
    9514:	11 f4       	brne	.+4      	; 0x951a <_ZL13scrollMessagePKcii.constprop.10+0x64>
    9516:	0e 94 0c 49 	call	0x9218	; 0x9218 <_ZL5Resetv>
    951a:	21 97       	sbiw	r28, 0x01	; 1
    951c:	e1 cf       	rjmp	.-62     	; 0x94e0 <_ZL13scrollMessagePKcii.constprop.10+0x2a>
    951e:	df 91       	pop	r29
    9520:	cf 91       	pop	r28
    9522:	1f 91       	pop	r17
    9524:	0f 91       	pop	r16
    9526:	ff 90       	pop	r15
    9528:	ef 90       	pop	r14
    952a:	df 90       	pop	r13
    952c:	cf 90       	pop	r12
    952e:	08 95       	ret

00009530 <_Z13TEAD_delayKeyj>:
    9530:	cf 92       	push	r12
    9532:	df 92       	push	r13
    9534:	ef 92       	push	r14
    9536:	ff 92       	push	r15
    9538:	cf 93       	push	r28
    953a:	df 93       	push	r29
    953c:	00 d0       	rcall	.+0      	; 0x953e <_Z13TEAD_delayKeyj+0xe>
    953e:	00 d0       	rcall	.+0      	; 0x9540 <_Z13TEAD_delayKeyj+0x10>
    9540:	cd b7       	in	r28, 0x3d	; 61
    9542:	de b7       	in	r29, 0x3e	; 62
    9544:	6c 01       	movw	r12, r24
    9546:	be 01       	movw	r22, r28
    9548:	6f 5f       	subi	r22, 0xFF	; 255
    954a:	7f 4f       	sbci	r23, 0xFF	; 255
    954c:	8f ea       	ldi	r24, 0xAF	; 175
    954e:	97 e0       	ldi	r25, 0x07	; 7
    9550:	0e 94 3d 66 	call	0xcc7a	; 0xcc7a <_ZN11class_Timer10setElapsedERm>
    9554:	e1 2c       	mov	r14, r1
    9556:	f1 2c       	mov	r15, r1
    9558:	8d ea       	ldi	r24, 0xAD	; 173
    955a:	97 e0       	ldi	r25, 0x07	; 7
    955c:	0e 94 85 41 	call	0x830a	; 0x830a <_ZN9class_KBD11getKbdStateEv>
    9560:	81 11       	cpse	r24, r1
    9562:	0e c0       	rjmp	.+28     	; 0x9580 <_Z13TEAD_delayKeyj+0x50>
    9564:	be 01       	movw	r22, r28
    9566:	6f 5f       	subi	r22, 0xFF	; 255
    9568:	7f 4f       	sbci	r23, 0xFF	; 255
    956a:	8f ea       	ldi	r24, 0xAF	; 175
    956c:	97 e0       	ldi	r25, 0x07	; 7
    956e:	0e 94 49 66 	call	0xcc92	; 0xcc92 <_ZN11class_Timer10getElapsedERm>
    9572:	6c 15       	cp	r22, r12
    9574:	7d 05       	cpc	r23, r13
    9576:	8e 05       	cpc	r24, r14
    9578:	9f 05       	cpc	r25, r15
    957a:	70 f3       	brcs	.-36     	; 0x9558 <_Z13TEAD_delayKeyj+0x28>
    957c:	80 e0       	ldi	r24, 0x00	; 0
    957e:	01 c0       	rjmp	.+2      	; 0x9582 <_Z13TEAD_delayKeyj+0x52>
    9580:	81 e0       	ldi	r24, 0x01	; 1
    9582:	0f 90       	pop	r0
    9584:	0f 90       	pop	r0
    9586:	0f 90       	pop	r0
    9588:	0f 90       	pop	r0
    958a:	df 91       	pop	r29
    958c:	cf 91       	pop	r28
    958e:	ff 90       	pop	r15
    9590:	ef 90       	pop	r14
    9592:	df 90       	pop	r13
    9594:	cf 90       	pop	r12
    9596:	08 95       	ret

00009598 <_Z17TEAD_initBarriersv>:
    9598:	8a e5       	ldi	r24, 0x5A	; 90
    959a:	ee e6       	ldi	r30, 0x6E	; 110
    959c:	f6 e0       	ldi	r31, 0x06	; 6
    959e:	df 01       	movw	r26, r30
    95a0:	1d 92       	st	X+, r1
    95a2:	8a 95       	dec	r24
    95a4:	e9 f7       	brne	.-6      	; 0x95a0 <_Z17TEAD_initBarriersv+0x8>
    95a6:	af 01       	movw	r20, r30
    95a8:	9c e0       	ldi	r25, 0x0C	; 12
    95aa:	21 e0       	ldi	r18, 0x01	; 1
    95ac:	fa 01       	movw	r30, r20
    95ae:	80 e0       	ldi	r24, 0x00	; 0
    95b0:	31 e0       	ldi	r19, 0x01	; 1
    95b2:	38 0f       	add	r19, r24
    95b4:	30 83       	st	Z, r19
    95b6:	91 83       	std	Z+1, r25	; 0x01
    95b8:	22 83       	std	Z+2, r18	; 0x02
    95ba:	66 e0       	ldi	r22, 0x06	; 6
    95bc:	68 0f       	add	r22, r24
    95be:	61 87       	std	Z+9, r22	; 0x09
    95c0:	92 87       	std	Z+10, r25	; 0x0a
    95c2:	23 87       	std	Z+11, r18	; 0x0b
    95c4:	6b e0       	ldi	r22, 0x0B	; 11
    95c6:	68 0f       	add	r22, r24
    95c8:	62 8b       	std	Z+18, r22	; 0x12
    95ca:	93 8b       	std	Z+19, r25	; 0x13
    95cc:	24 8b       	std	Z+20, r18	; 0x14
    95ce:	60 e1       	ldi	r22, 0x10	; 16
    95d0:	68 0f       	add	r22, r24
    95d2:	63 8f       	std	Z+27, r22	; 0x1b
    95d4:	94 8f       	std	Z+28, r25	; 0x1c
    95d6:	25 8f       	std	Z+29, r18	; 0x1d
    95d8:	8b 5e       	subi	r24, 0xEB	; 235
    95da:	84 a3       	std	Z+36, r24	; 0x24
    95dc:	95 a3       	std	Z+37, r25	; 0x25
    95de:	26 a3       	std	Z+38, r18	; 0x26
    95e0:	33 96       	adiw	r30, 0x03	; 3
    95e2:	83 2f       	mov	r24, r19
    95e4:	33 30       	cpi	r19, 0x03	; 3
    95e6:	21 f7       	brne	.-56     	; 0x95b0 <_Z17TEAD_initBarriersv+0x18>
    95e8:	43 5d       	subi	r20, 0xD3	; 211
    95ea:	5f 4f       	sbci	r21, 0xFF	; 255
    95ec:	9f 5f       	subi	r25, 0xFF	; 255
    95ee:	9e 30       	cpi	r25, 0x0E	; 14
    95f0:	e9 f6       	brne	.-70     	; 0x95ac <_Z17TEAD_initBarriersv+0x14>
    95f2:	08 95       	ret

000095f4 <_Z19TEAD_initSpaceShipsv>:
    95f4:	6f 92       	push	r6
    95f6:	7f 92       	push	r7
    95f8:	8f 92       	push	r8
    95fa:	9f 92       	push	r9
    95fc:	af 92       	push	r10
    95fe:	bf 92       	push	r11
    9600:	cf 92       	push	r12
    9602:	df 92       	push	r13
    9604:	ef 92       	push	r14
    9606:	ff 92       	push	r15
    9608:	0f 93       	push	r16
    960a:	1f 93       	push	r17
    960c:	cf 93       	push	r28
    960e:	df 93       	push	r29
    9610:	84 ef       	ldi	r24, 0xF4	; 244
    9612:	91 e0       	ldi	r25, 0x01	; 1
    9614:	ea e7       	ldi	r30, 0x7A	; 122
    9616:	f4 e0       	ldi	r31, 0x04	; 4
    9618:	df 01       	movw	r26, r30
    961a:	9c 01       	movw	r18, r24
    961c:	1d 92       	st	X+, r1
    961e:	21 50       	subi	r18, 0x01	; 1
    9620:	30 40       	sbci	r19, 0x00	; 0
    9622:	e1 f7       	brne	.-8      	; 0x961c <_Z19TEAD_initSpaceShipsv+0x28>
    9624:	10 e0       	ldi	r17, 0x00	; 0
    9626:	28 e5       	ldi	r18, 0x58	; 88
    9628:	c2 2e       	mov	r12, r18
    962a:	2e e7       	ldi	r18, 0x7E	; 126
    962c:	d2 2e       	mov	r13, r18
    962e:	30 e3       	ldi	r19, 0x30	; 48
    9630:	a3 2e       	mov	r10, r19
    9632:	3e e7       	ldi	r19, 0x7E	; 126
    9634:	b3 2e       	mov	r11, r19
    9636:	80 91 a8 07 	lds	r24, 0x07A8	; 0x8007a8 <_tead+0x32e>
    963a:	18 17       	cp	r17, r24
    963c:	08 f0       	brcs	.+2      	; 0x9640 <_Z19TEAD_initSpaceShipsv+0x4c>
    963e:	dc c0       	rjmp	.+440    	; 0x97f8 <_Z19TEAD_initSpaceShipsv+0x204>
    9640:	00 e0       	ldi	r16, 0x00	; 0
    9642:	8a e0       	ldi	r24, 0x0A	; 10
    9644:	98 2e       	mov	r9, r24
    9646:	88 24       	eor	r8, r8
    9648:	83 94       	inc	r8
    964a:	92 e0       	ldi	r25, 0x02	; 2
    964c:	79 2e       	mov	r7, r25
    964e:	80 91 a7 07 	lds	r24, 0x07A7	; 0x8007a7 <_tead+0x32d>
    9652:	08 17       	cp	r16, r24
    9654:	08 f0       	brcs	.+2      	; 0x9658 <_Z19TEAD_initSpaceShipsv+0x64>
    9656:	ce c0       	rjmp	.+412    	; 0x97f4 <_Z19TEAD_initSpaceShipsv+0x200>
    9658:	e0 2e       	mov	r14, r16
    965a:	18 9f       	mul	r17, r24
    965c:	e0 0c       	add	r14, r0
    965e:	11 24       	eor	r1, r1
    9660:	0e 2c       	mov	r0, r14
    9662:	00 0c       	add	r0, r0
    9664:	ff 08       	sbc	r15, r15
    9666:	9e 9c       	mul	r9, r14
    9668:	e0 01       	movw	r28, r0
    966a:	9f 9c       	mul	r9, r15
    966c:	d0 0d       	add	r29, r0
    966e:	11 24       	eor	r1, r1
    9670:	c6 58       	subi	r28, 0x86	; 134
    9672:	db 4f       	sbci	r29, 0xFB	; 251
    9674:	8d 82       	std	Y+5, r8	; 0x05
    9676:	80 91 a6 07 	lds	r24, 0x07A6	; 0x8007a6 <_tead+0x32c>
    967a:	82 30       	cpi	r24, 0x02	; 2
    967c:	19 f1       	breq	.+70     	; 0x96c4 <_Z19TEAD_initSpaceShipsv+0xd0>
    967e:	83 30       	cpi	r24, 0x03	; 3
    9680:	09 f4       	brne	.+2      	; 0x9684 <_Z19TEAD_initSpaceShipsv+0x90>
    9682:	59 c0       	rjmp	.+178    	; 0x9736 <_Z19TEAD_initSpaceShipsv+0x142>
    9684:	81 30       	cpi	r24, 0x01	; 1
    9686:	09 f0       	breq	.+2      	; 0x968a <_Z19TEAD_initSpaceShipsv+0x96>
    9688:	b3 c0       	rjmp	.+358    	; 0x97f0 <_Z19TEAD_initSpaceShipsv+0x1fc>
    968a:	89 e0       	ldi	r24, 0x09	; 9
    968c:	9e e7       	ldi	r25, 0x7E	; 126
    968e:	0e 94 f0 47 	call	0x8fe0	; 0x8fe0 <_ZN9class_LED11getBMPWidthEPKh>
    9692:	f8 2e       	mov	r15, r24
    9694:	89 e0       	ldi	r24, 0x09	; 9
    9696:	9e e7       	ldi	r25, 0x7E	; 126
    9698:	0e 94 eb 47 	call	0x8fd6	; 0x8fd6 <_ZN9class_LED12getBMPHeightEPKh>
    969c:	78 82       	st	Y, r7
    969e:	fb 82       	std	Y+3, r15	; 0x03
    96a0:	8c 83       	std	Y+4, r24	; 0x04
    96a2:	90 2f       	mov	r25, r16
    96a4:	0f 9d       	mul	r16, r15
    96a6:	90 0d       	add	r25, r0
    96a8:	11 24       	eor	r1, r1
    96aa:	99 83       	std	Y+1, r25	; 0x01
    96ac:	31 2f       	mov	r19, r17
    96ae:	18 9f       	mul	r17, r24
    96b0:	30 0d       	add	r19, r0
    96b2:	11 24       	eor	r1, r1
    96b4:	3a 83       	std	Y+2, r19	; 0x02
    96b6:	89 e0       	ldi	r24, 0x09	; 9
    96b8:	9e e7       	ldi	r25, 0x7E	; 126
    96ba:	9f 83       	std	Y+7, r25	; 0x07
    96bc:	8e 83       	std	Y+6, r24	; 0x06
    96be:	99 87       	std	Y+9, r25	; 0x09
    96c0:	88 87       	std	Y+8, r24	; 0x08
    96c2:	96 c0       	rjmp	.+300    	; 0x97f0 <_Z19TEAD_initSpaceShipsv+0x1fc>
    96c4:	88 82       	st	Y, r8
    96c6:	85 ef       	ldi	r24, 0xF5	; 245
    96c8:	9d e7       	ldi	r25, 0x7D	; 125
    96ca:	0e 94 f0 47 	call	0x8fe0	; 0x8fe0 <_ZN9class_LED11getBMPWidthEPKh>
    96ce:	68 2e       	mov	r6, r24
    96d0:	85 ef       	ldi	r24, 0xF5	; 245
    96d2:	9d e7       	ldi	r25, 0x7D	; 125
    96d4:	0e 94 eb 47 	call	0x8fd6	; 0x8fd6 <_ZN9class_LED12getBMPHeightEPKh>
    96d8:	6b 82       	std	Y+3, r6	; 0x03
    96da:	8c 83       	std	Y+4, r24	; 0x04
    96dc:	90 2f       	mov	r25, r16
    96de:	06 9d       	mul	r16, r6
    96e0:	90 0d       	add	r25, r0
    96e2:	11 24       	eor	r1, r1
    96e4:	99 83       	std	Y+1, r25	; 0x01
    96e6:	91 2f       	mov	r25, r17
    96e8:	18 9f       	mul	r17, r24
    96ea:	90 0d       	add	r25, r0
    96ec:	11 24       	eor	r1, r1
    96ee:	9a 83       	std	Y+2, r25	; 0x02
    96f0:	80 91 a5 07 	lds	r24, 0x07A5	; 0x8007a5 <_tead+0x32b>
    96f4:	81 30       	cpi	r24, 0x01	; 1
    96f6:	19 f0       	breq	.+6      	; 0x96fe <_Z19TEAD_initSpaceShipsv+0x10a>
    96f8:	25 ef       	ldi	r18, 0xF5	; 245
    96fa:	3d e7       	ldi	r19, 0x7D	; 125
    96fc:	02 c0       	rjmp	.+4      	; 0x9702 <_Z19TEAD_initSpaceShipsv+0x10e>
    96fe:	2d ec       	ldi	r18, 0xCD	; 205
    9700:	3d e7       	ldi	r19, 0x7D	; 125
    9702:	9e 9c       	mul	r9, r14
    9704:	f0 01       	movw	r30, r0
    9706:	9f 9c       	mul	r9, r15
    9708:	f0 0d       	add	r31, r0
    970a:	11 24       	eor	r1, r1
    970c:	e6 58       	subi	r30, 0x86	; 134
    970e:	fb 4f       	sbci	r31, 0xFB	; 251
    9710:	37 83       	std	Z+7, r19	; 0x07
    9712:	26 83       	std	Z+6, r18	; 0x06
    9714:	81 30       	cpi	r24, 0x01	; 1
    9716:	19 f0       	breq	.+6      	; 0x971e <_Z19TEAD_initSpaceShipsv+0x12a>
    9718:	81 ee       	ldi	r24, 0xE1	; 225
    971a:	9d e7       	ldi	r25, 0x7D	; 125
    971c:	02 c0       	rjmp	.+4      	; 0x9722 <_Z19TEAD_initSpaceShipsv+0x12e>
    971e:	8d ec       	ldi	r24, 0xCD	; 205
    9720:	9d e7       	ldi	r25, 0x7D	; 125
    9722:	9e 9c       	mul	r9, r14
    9724:	f0 01       	movw	r30, r0
    9726:	9f 9c       	mul	r9, r15
    9728:	f0 0d       	add	r31, r0
    972a:	11 24       	eor	r1, r1
    972c:	e6 58       	subi	r30, 0x86	; 134
    972e:	fb 4f       	sbci	r31, 0xFB	; 251
    9730:	91 87       	std	Z+9, r25	; 0x09
    9732:	80 87       	std	Z+8, r24	; 0x08
    9734:	5d c0       	rjmp	.+186    	; 0x97f0 <_Z19TEAD_initSpaceShipsv+0x1fc>
    9736:	80 e8       	ldi	r24, 0x80	; 128
    9738:	9e e7       	ldi	r25, 0x7E	; 126
    973a:	0e 94 f0 47 	call	0x8fe0	; 0x8fe0 <_ZN9class_LED11getBMPWidthEPKh>
    973e:	68 2e       	mov	r6, r24
    9740:	80 e8       	ldi	r24, 0x80	; 128
    9742:	9e e7       	ldi	r25, 0x7E	; 126
    9744:	0e 94 eb 47 	call	0x8fd6	; 0x8fd6 <_ZN9class_LED12getBMPHeightEPKh>
    9748:	6b 82       	std	Y+3, r6	; 0x03
    974a:	8c 83       	std	Y+4, r24	; 0x04
    974c:	90 2f       	mov	r25, r16
    974e:	06 9d       	mul	r16, r6
    9750:	90 0d       	add	r25, r0
    9752:	11 24       	eor	r1, r1
    9754:	99 83       	std	Y+1, r25	; 0x01
    9756:	18 9f       	mul	r17, r24
    9758:	80 2d       	mov	r24, r0
    975a:	11 24       	eor	r1, r1
    975c:	8a 83       	std	Y+2, r24	; 0x02
    975e:	11 30       	cpi	r17, 0x01	; 1
    9760:	e1 f0       	breq	.+56     	; 0x979a <_Z19TEAD_initSpaceShipsv+0x1a6>
    9762:	18 f0       	brcs	.+6      	; 0x976a <_Z19TEAD_initSpaceShipsv+0x176>
    9764:	12 30       	cpi	r17, 0x02	; 2
    9766:	79 f1       	breq	.+94     	; 0x97c6 <_Z19TEAD_initSpaceShipsv+0x1d2>
    9768:	43 c0       	rjmp	.+134    	; 0x97f0 <_Z19TEAD_initSpaceShipsv+0x1fc>
    976a:	80 e8       	ldi	r24, 0x80	; 128
    976c:	9e e7       	ldi	r25, 0x7E	; 126
    976e:	9f 83       	std	Y+7, r25	; 0x07
    9770:	8e 83       	std	Y+6, r24	; 0x06
    9772:	80 91 a5 07 	lds	r24, 0x07A5	; 0x8007a5 <_tead+0x32b>
    9776:	81 30       	cpi	r24, 0x01	; 1
    9778:	19 f0       	breq	.+6      	; 0x9780 <_Z19TEAD_initSpaceShipsv+0x18c>
    977a:	8c e6       	ldi	r24, 0x6C	; 108
    977c:	9e e7       	ldi	r25, 0x7E	; 126
    977e:	02 c0       	rjmp	.+4      	; 0x9784 <_Z19TEAD_initSpaceShipsv+0x190>
    9780:	80 e8       	ldi	r24, 0x80	; 128
    9782:	9e e7       	ldi	r25, 0x7E	; 126
    9784:	9e 9c       	mul	r9, r14
    9786:	f0 01       	movw	r30, r0
    9788:	9f 9c       	mul	r9, r15
    978a:	f0 0d       	add	r31, r0
    978c:	11 24       	eor	r1, r1
    978e:	e6 58       	subi	r30, 0x86	; 134
    9790:	fb 4f       	sbci	r31, 0xFB	; 251
    9792:	91 87       	std	Z+9, r25	; 0x09
    9794:	80 87       	std	Z+8, r24	; 0x08
    9796:	10 82       	st	Z, r1
    9798:	2b c0       	rjmp	.+86     	; 0x97f0 <_Z19TEAD_initSpaceShipsv+0x1fc>
    979a:	df 82       	std	Y+7, r13	; 0x07
    979c:	ce 82       	std	Y+6, r12	; 0x06
    979e:	80 91 a5 07 	lds	r24, 0x07A5	; 0x8007a5 <_tead+0x32b>
    97a2:	81 30       	cpi	r24, 0x01	; 1
    97a4:	19 f0       	breq	.+6      	; 0x97ac <_Z19TEAD_initSpaceShipsv+0x1b8>
    97a6:	84 e4       	ldi	r24, 0x44	; 68
    97a8:	9e e7       	ldi	r25, 0x7E	; 126
    97aa:	02 c0       	rjmp	.+4      	; 0x97b0 <_Z19TEAD_initSpaceShipsv+0x1bc>
    97ac:	88 e5       	ldi	r24, 0x58	; 88
    97ae:	9e e7       	ldi	r25, 0x7E	; 126
    97b0:	9e 9c       	mul	r9, r14
    97b2:	f0 01       	movw	r30, r0
    97b4:	9f 9c       	mul	r9, r15
    97b6:	f0 0d       	add	r31, r0
    97b8:	11 24       	eor	r1, r1
    97ba:	e6 58       	subi	r30, 0x86	; 134
    97bc:	fb 4f       	sbci	r31, 0xFB	; 251
    97be:	91 87       	std	Z+9, r25	; 0x09
    97c0:	80 87       	std	Z+8, r24	; 0x08
    97c2:	80 82       	st	Z, r8
    97c4:	15 c0       	rjmp	.+42     	; 0x97f0 <_Z19TEAD_initSpaceShipsv+0x1fc>
    97c6:	bf 82       	std	Y+7, r11	; 0x07
    97c8:	ae 82       	std	Y+6, r10	; 0x06
    97ca:	80 91 a5 07 	lds	r24, 0x07A5	; 0x8007a5 <_tead+0x32b>
    97ce:	81 30       	cpi	r24, 0x01	; 1
    97d0:	19 f0       	breq	.+6      	; 0x97d8 <_Z19TEAD_initSpaceShipsv+0x1e4>
    97d2:	8c e1       	ldi	r24, 0x1C	; 28
    97d4:	9e e7       	ldi	r25, 0x7E	; 126
    97d6:	02 c0       	rjmp	.+4      	; 0x97dc <_Z19TEAD_initSpaceShipsv+0x1e8>
    97d8:	80 e3       	ldi	r24, 0x30	; 48
    97da:	9e e7       	ldi	r25, 0x7E	; 126
    97dc:	9e 9c       	mul	r9, r14
    97de:	f0 01       	movw	r30, r0
    97e0:	9f 9c       	mul	r9, r15
    97e2:	f0 0d       	add	r31, r0
    97e4:	11 24       	eor	r1, r1
    97e6:	e6 58       	subi	r30, 0x86	; 134
    97e8:	fb 4f       	sbci	r31, 0xFB	; 251
    97ea:	91 87       	std	Z+9, r25	; 0x09
    97ec:	80 87       	std	Z+8, r24	; 0x08
    97ee:	70 82       	st	Z, r7
    97f0:	0f 5f       	subi	r16, 0xFF	; 255
    97f2:	2d cf       	rjmp	.-422    	; 0x964e <_Z19TEAD_initSpaceShipsv+0x5a>
    97f4:	1f 5f       	subi	r17, 0xFF	; 255
    97f6:	1f cf       	rjmp	.-450    	; 0x9636 <_Z19TEAD_initSpaceShipsv+0x42>
    97f8:	df 91       	pop	r29
    97fa:	cf 91       	pop	r28
    97fc:	1f 91       	pop	r17
    97fe:	0f 91       	pop	r16
    9800:	ff 90       	pop	r15
    9802:	ef 90       	pop	r14
    9804:	df 90       	pop	r13
    9806:	cf 90       	pop	r12
    9808:	bf 90       	pop	r11
    980a:	af 90       	pop	r10
    980c:	9f 90       	pop	r9
    980e:	8f 90       	pop	r8
    9810:	7f 90       	pop	r7
    9812:	6f 90       	pop	r6
    9814:	08 95       	ret

00009816 <_Z19TEAD_drawSpaceShipsb>:
    9816:	cf 93       	push	r28
    9818:	df 93       	push	r29
    981a:	c0 e0       	ldi	r28, 0x00	; 0
    981c:	da e0       	ldi	r29, 0x0A	; 10
    981e:	80 91 a9 07 	lds	r24, 0x07A9	; 0x8007a9 <_tead+0x32f>
    9822:	c8 17       	cp	r28, r24
    9824:	48 f5       	brcc	.+82     	; 0x9878 <_Z19TEAD_drawSpaceShipsb+0x62>
    9826:	8c 2f       	mov	r24, r28
    9828:	90 e0       	ldi	r25, 0x00	; 0
    982a:	d8 9f       	mul	r29, r24
    982c:	f0 01       	movw	r30, r0
    982e:	d9 9f       	mul	r29, r25
    9830:	f0 0d       	add	r31, r0
    9832:	11 24       	eor	r1, r1
    9834:	e6 58       	subi	r30, 0x86	; 134
    9836:	fb 4f       	sbci	r31, 0xFB	; 251
    9838:	25 81       	ldd	r18, Z+5	; 0x05
    983a:	22 23       	and	r18, r18
    983c:	d9 f0       	breq	.+54     	; 0x9874 <_Z19TEAD_drawSpaceShipsb+0x5e>
    983e:	20 91 7d 07 	lds	r18, 0x077D	; 0x80077d <_tead+0x303>
    9842:	22 23       	and	r18, r18
    9844:	19 f0       	breq	.+6      	; 0x984c <_Z19TEAD_drawSpaceShipsb+0x36>
    9846:	46 81       	ldd	r20, Z+6	; 0x06
    9848:	57 81       	ldd	r21, Z+7	; 0x07
    984a:	02 c0       	rjmp	.+4      	; 0x9850 <_Z19TEAD_drawSpaceShipsb+0x3a>
    984c:	40 85       	ldd	r20, Z+8	; 0x08
    984e:	51 85       	ldd	r21, Z+9	; 0x09
    9850:	d8 9f       	mul	r29, r24
    9852:	f0 01       	movw	r30, r0
    9854:	d9 9f       	mul	r29, r25
    9856:	f0 0d       	add	r31, r0
    9858:	11 24       	eor	r1, r1
    985a:	e6 58       	subi	r30, 0x86	; 134
    985c:	fb 4f       	sbci	r31, 0xFB	; 251
    985e:	62 81       	ldd	r22, Z+2	; 0x02
    9860:	06 2e       	mov	r0, r22
    9862:	00 0c       	add	r0, r0
    9864:	77 0b       	sbc	r23, r23
    9866:	81 81       	ldd	r24, Z+1	; 0x01
    9868:	20 e0       	ldi	r18, 0x00	; 0
    986a:	08 2e       	mov	r0, r24
    986c:	00 0c       	add	r0, r0
    986e:	99 0b       	sbc	r25, r25
    9870:	0e 94 f2 47 	call	0x8fe4	; 0x8fe4 <_ZN9class_LED3bmpEiiPKhb>
    9874:	cf 5f       	subi	r28, 0xFF	; 255
    9876:	d3 cf       	rjmp	.-90     	; 0x981e <_Z19TEAD_drawSpaceShipsb+0x8>
    9878:	df 91       	pop	r29
    987a:	cf 91       	pop	r28
    987c:	08 95       	ret

0000987e <_Z19TEAD_drawMotherShipv>:
    987e:	60 91 80 07 	lds	r22, 0x0780	; 0x800780 <_tead+0x306>
    9882:	06 2e       	mov	r0, r22
    9884:	00 0c       	add	r0, r0
    9886:	77 0b       	sbc	r23, r23
    9888:	80 91 7f 07 	lds	r24, 0x077F	; 0x80077f <_tead+0x305>
    988c:	20 e0       	ldi	r18, 0x00	; 0
    988e:	44 e9       	ldi	r20, 0x94	; 148
    9890:	5e e7       	ldi	r21, 0x7E	; 126
    9892:	08 2e       	mov	r0, r24
    9894:	00 0c       	add	r0, r0
    9896:	99 0b       	sbc	r25, r25
    9898:	0c 94 f2 47 	jmp	0x8fe4	; 0x8fe4 <_ZN9class_LED3bmpEiiPKhb>

0000989c <_Z15TEAD_drawCannon5Color>:
    989c:	ef 92       	push	r14
    989e:	ff 92       	push	r15
    98a0:	0f 93       	push	r16
    98a2:	1f 93       	push	r17
    98a4:	cf 93       	push	r28
    98a6:	c8 2f       	mov	r28, r24
    98a8:	89 e7       	ldi	r24, 0x79	; 121
    98aa:	e8 2e       	mov	r14, r24
    98ac:	87 e0       	ldi	r24, 0x07	; 7
    98ae:	f8 2e       	mov	r15, r24
    98b0:	f7 01       	movw	r30, r14
    98b2:	60 81       	ld	r22, Z
    98b4:	06 2e       	mov	r0, r22
    98b6:	00 0c       	add	r0, r0
    98b8:	77 0b       	sbc	r23, r23
    98ba:	61 50       	subi	r22, 0x01	; 1
    98bc:	71 09       	sbc	r23, r1
    98be:	08 e7       	ldi	r16, 0x78	; 120
    98c0:	17 e0       	ldi	r17, 0x07	; 7
    98c2:	f8 01       	movw	r30, r16
    98c4:	80 81       	ld	r24, Z
    98c6:	4c 2f       	mov	r20, r28
    98c8:	08 2e       	mov	r0, r24
    98ca:	00 0c       	add	r0, r0
    98cc:	99 0b       	sbc	r25, r25
    98ce:	0e 94 f9 42 	call	0x85f2	; 0x85f2 <_ZN9class_LED8setPixelEii5Color>
    98d2:	f7 01       	movw	r30, r14
    98d4:	60 81       	ld	r22, Z
    98d6:	06 2e       	mov	r0, r22
    98d8:	00 0c       	add	r0, r0
    98da:	77 0b       	sbc	r23, r23
    98dc:	f8 01       	movw	r30, r16
    98de:	80 81       	ld	r24, Z
    98e0:	08 2e       	mov	r0, r24
    98e2:	00 0c       	add	r0, r0
    98e4:	99 0b       	sbc	r25, r25
    98e6:	4c 2f       	mov	r20, r28
    98e8:	01 97       	sbiw	r24, 0x01	; 1
    98ea:	0e 94 f9 42 	call	0x85f2	; 0x85f2 <_ZN9class_LED8setPixelEii5Color>
    98ee:	f7 01       	movw	r30, r14
    98f0:	60 81       	ld	r22, Z
    98f2:	06 2e       	mov	r0, r22
    98f4:	00 0c       	add	r0, r0
    98f6:	77 0b       	sbc	r23, r23
    98f8:	f8 01       	movw	r30, r16
    98fa:	80 81       	ld	r24, Z
    98fc:	4c 2f       	mov	r20, r28
    98fe:	08 2e       	mov	r0, r24
    9900:	00 0c       	add	r0, r0
    9902:	99 0b       	sbc	r25, r25
    9904:	0e 94 f9 42 	call	0x85f2	; 0x85f2 <_ZN9class_LED8setPixelEii5Color>
    9908:	f7 01       	movw	r30, r14
    990a:	60 81       	ld	r22, Z
    990c:	06 2e       	mov	r0, r22
    990e:	00 0c       	add	r0, r0
    9910:	77 0b       	sbc	r23, r23
    9912:	f8 01       	movw	r30, r16
    9914:	80 81       	ld	r24, Z
    9916:	08 2e       	mov	r0, r24
    9918:	00 0c       	add	r0, r0
    991a:	99 0b       	sbc	r25, r25
    991c:	4c 2f       	mov	r20, r28
    991e:	01 96       	adiw	r24, 0x01	; 1
    9920:	cf 91       	pop	r28
    9922:	1f 91       	pop	r17
    9924:	0f 91       	pop	r16
    9926:	ff 90       	pop	r15
    9928:	ef 90       	pop	r14
    992a:	0c 94 f9 42 	jmp	0x85f2	; 0x85f2 <_ZN9class_LED8setPixelEii5Color>

0000992e <_Z14TEAD_drawLivesv>:
    992e:	0f 93       	push	r16
    9930:	64 e7       	ldi	r22, 0x74	; 116
    9932:	73 e0       	ldi	r23, 0x03	; 3
    9934:	8f ea       	ldi	r24, 0xAF	; 175
    9936:	97 e0       	ldi	r25, 0x07	; 7
    9938:	0e 94 49 66 	call	0xcc92	; 0xcc92 <_ZN11class_Timer10getElapsedERm>
    993c:	63 3c       	cpi	r22, 0xC3	; 195
    993e:	71 40       	sbci	r23, 0x01	; 1
    9940:	81 05       	cpc	r24, r1
    9942:	91 05       	cpc	r25, r1
    9944:	88 f0       	brcs	.+34     	; 0x9968 <_Z14TEAD_drawLivesv+0x3a>
    9946:	90 91 77 07 	lds	r25, 0x0777	; 0x800777 <_tead+0x2fd>
    994a:	01 e0       	ldi	r16, 0x01	; 1
    994c:	2f e0       	ldi	r18, 0x0F	; 15
    994e:	30 e0       	ldi	r19, 0x00	; 0
    9950:	47 e1       	ldi	r20, 0x17	; 23
    9952:	50 e0       	ldi	r21, 0x00	; 0
    9954:	6f e0       	ldi	r22, 0x0F	; 15
    9956:	70 e0       	ldi	r23, 0x00	; 0
    9958:	e8 e1       	ldi	r30, 0x18	; 24
    995a:	f0 e0       	ldi	r31, 0x00	; 0
    995c:	df 01       	movw	r26, r30
    995e:	a9 1b       	sub	r26, r25
    9960:	b1 09       	sbc	r27, r1
    9962:	cd 01       	movw	r24, r26
    9964:	0e 94 98 43 	call	0x8730	; 0x8730 <_ZN9class_LED4lineEiiii5Color>
    9968:	64 e7       	ldi	r22, 0x74	; 116
    996a:	73 e0       	ldi	r23, 0x03	; 3
    996c:	8f ea       	ldi	r24, 0xAF	; 175
    996e:	97 e0       	ldi	r25, 0x07	; 7
    9970:	0e 94 49 66 	call	0xcc92	; 0xcc92 <_ZN11class_Timer10getElapsedERm>
    9974:	65 3f       	cpi	r22, 0xF5	; 245
    9976:	71 40       	sbci	r23, 0x01	; 1
    9978:	81 05       	cpc	r24, r1
    997a:	91 05       	cpc	r25, r1
    997c:	b8 f0       	brcs	.+46     	; 0x99ac <_Z14TEAD_drawLivesv+0x7e>
    997e:	64 e7       	ldi	r22, 0x74	; 116
    9980:	73 e0       	ldi	r23, 0x03	; 3
    9982:	8f ea       	ldi	r24, 0xAF	; 175
    9984:	97 e0       	ldi	r25, 0x07	; 7
    9986:	0e 94 3d 66 	call	0xcc7a	; 0xcc7a <_ZN11class_Timer10setElapsedERm>
    998a:	90 91 77 07 	lds	r25, 0x0777	; 0x800777 <_tead+0x2fd>
    998e:	00 e0       	ldi	r16, 0x00	; 0
    9990:	2f e0       	ldi	r18, 0x0F	; 15
    9992:	30 e0       	ldi	r19, 0x00	; 0
    9994:	47 e1       	ldi	r20, 0x17	; 23
    9996:	50 e0       	ldi	r21, 0x00	; 0
    9998:	6f e0       	ldi	r22, 0x0F	; 15
    999a:	70 e0       	ldi	r23, 0x00	; 0
    999c:	e8 e1       	ldi	r30, 0x18	; 24
    999e:	f0 e0       	ldi	r31, 0x00	; 0
    99a0:	df 01       	movw	r26, r30
    99a2:	a9 1b       	sub	r26, r25
    99a4:	b1 09       	sbc	r27, r1
    99a6:	cd 01       	movw	r24, r26
    99a8:	0e 94 98 43 	call	0x8730	; 0x8730 <_ZN9class_LED4lineEiiii5Color>
    99ac:	0f 91       	pop	r16
    99ae:	08 95       	ret

000099b0 <_Z22TEAD_processCannonMovev>:
    99b0:	cf 93       	push	r28
    99b2:	6b ed       	ldi	r22, 0xDB	; 219
    99b4:	76 e0       	ldi	r23, 0x06	; 6
    99b6:	8f ea       	ldi	r24, 0xAF	; 175
    99b8:	97 e0       	ldi	r25, 0x07	; 7
    99ba:	0e 94 49 66 	call	0xcc92	; 0xcc92 <_ZN11class_Timer10getElapsedERm>
    99be:	65 36       	cpi	r22, 0x65	; 101
    99c0:	71 05       	cpc	r23, r1
    99c2:	81 05       	cpc	r24, r1
    99c4:	91 05       	cpc	r25, r1
    99c6:	08 f4       	brcc	.+2      	; 0x99ca <_Z22TEAD_processCannonMovev+0x1a>
    99c8:	6a c0       	rjmp	.+212    	; 0x9a9e <_Z22TEAD_processCannonMovev+0xee>
    99ca:	6b ed       	ldi	r22, 0xDB	; 219
    99cc:	76 e0       	ldi	r23, 0x06	; 6
    99ce:	8f ea       	ldi	r24, 0xAF	; 175
    99d0:	97 e0       	ldi	r25, 0x07	; 7
    99d2:	0e 94 3d 66 	call	0xcc7a	; 0xcc7a <_ZN11class_Timer10setElapsedERm>
    99d6:	8d ea       	ldi	r24, 0xAD	; 173
    99d8:	97 e0       	ldi	r25, 0x07	; 7
    99da:	0e 94 85 41 	call	0x830a	; 0x830a <_ZN9class_KBD11getKbdStateEv>
    99de:	c8 2f       	mov	r28, r24
    99e0:	80 91 7e 07 	lds	r24, 0x077E	; 0x80077e <_tead+0x304>
    99e4:	88 23       	and	r24, r24
    99e6:	f1 f0       	breq	.+60     	; 0x9a24 <_Z22TEAD_processCannonMovev+0x74>
    99e8:	80 91 73 03 	lds	r24, 0x0373	; 0x800373 <_ZZ22TEAD_processCannonMovevE6pCount>
    99ec:	8f 5f       	subi	r24, 0xFF	; 255
    99ee:	80 93 73 03 	sts	0x0373, r24	; 0x800373 <_ZZ22TEAD_processCannonMovevE6pCount>
    99f2:	90 91 05 01 	lds	r25, 0x0105	; 0x800105 <_ZZ22TEAD_processCannonMovevE10pCountComp>
    99f6:	98 17       	cp	r25, r24
    99f8:	ac f4       	brge	.+42     	; 0x9a24 <_Z22TEAD_processCannonMovev+0x74>
    99fa:	10 92 73 03 	sts	0x0373, r1	; 0x800373 <_ZZ22TEAD_processCannonMovevE6pCount>
    99fe:	0e 94 4d 6a 	call	0xd49a	; 0xd49a <rand>
    9a02:	67 e0       	ldi	r22, 0x07	; 7
    9a04:	70 e0       	ldi	r23, 0x00	; 0
    9a06:	0e 94 78 69 	call	0xd2f0	; 0xd2f0 <__divmodhi4>
    9a0a:	80 93 05 01 	sts	0x0105, r24	; 0x800105 <_ZZ22TEAD_processCannonMovevE10pCountComp>
    9a0e:	0e 94 4d 6a 	call	0xd49a	; 0xd49a <rand>
    9a12:	62 e0       	ldi	r22, 0x02	; 2
    9a14:	70 e0       	ldi	r23, 0x00	; 0
    9a16:	0e 94 78 69 	call	0xd2f0	; 0xd2f0 <__divmodhi4>
    9a1a:	01 97       	sbiw	r24, 0x01	; 1
    9a1c:	11 f0       	breq	.+4      	; 0x9a22 <_Z22TEAD_processCannonMovev+0x72>
    9a1e:	c4 e0       	ldi	r28, 0x04	; 4
    9a20:	01 c0       	rjmp	.+2      	; 0x9a24 <_Z22TEAD_processCannonMovev+0x74>
    9a22:	c1 e0       	ldi	r28, 0x01	; 1
    9a24:	c0 ff       	sbrs	r28, 0
    9a26:	1c c0       	rjmp	.+56     	; 0x9a60 <_Z22TEAD_processCannonMovev+0xb0>
    9a28:	80 91 78 07 	lds	r24, 0x0778	; 0x800778 <_tead+0x2fe>
    9a2c:	81 50       	subi	r24, 0x01	; 1
    9a2e:	18 16       	cp	r1, r24
    9a30:	0c f0       	brlt	.+2      	; 0x9a34 <_Z22TEAD_processCannonMovev+0x84>
    9a32:	81 e0       	ldi	r24, 0x01	; 1
    9a34:	80 93 78 07 	sts	0x0778, r24	; 0x800778 <_tead+0x2fe>
    9a38:	80 91 7a 07 	lds	r24, 0x077A	; 0x80077a <_tead+0x300>
    9a3c:	81 11       	cpse	r24, r1
    9a3e:	04 c0       	rjmp	.+8      	; 0x9a48 <_Z22TEAD_processCannonMovev+0x98>
    9a40:	80 91 78 07 	lds	r24, 0x0778	; 0x800778 <_tead+0x2fe>
    9a44:	80 93 81 07 	sts	0x0781, r24	; 0x800781 <_tead+0x307>
    9a48:	80 91 7b 07 	lds	r24, 0x077B	; 0x80077b <_tead+0x301>
    9a4c:	88 23       	and	r24, r24
    9a4e:	41 f0       	breq	.+16     	; 0x9a60 <_Z22TEAD_processCannonMovev+0xb0>
    9a50:	80 e0       	ldi	r24, 0x00	; 0
    9a52:	0e 94 02 68 	call	0xd004	; 0xd004 <_ZN10class_Wave7PlayingE11WaveChannel>
    9a56:	81 11       	cpse	r24, r1
    9a58:	03 c0       	rjmp	.+6      	; 0x9a60 <_Z22TEAD_processCannonMovev+0xb0>
    9a5a:	60 e0       	ldi	r22, 0x00	; 0
    9a5c:	0e 94 ac 68 	call	0xd158	; 0xd158 <_ZN10class_Wave4PlayE11WaveChannel8PlayMode>
    9a60:	c2 ff       	sbrs	r28, 2
    9a62:	1d c0       	rjmp	.+58     	; 0x9a9e <_Z22TEAD_processCannonMovev+0xee>
    9a64:	80 91 78 07 	lds	r24, 0x0778	; 0x800778 <_tead+0x2fe>
    9a68:	8f 5f       	subi	r24, 0xFF	; 255
    9a6a:	87 31       	cpi	r24, 0x17	; 23
    9a6c:	0c f0       	brlt	.+2      	; 0x9a70 <_Z22TEAD_processCannonMovev+0xc0>
    9a6e:	86 e1       	ldi	r24, 0x16	; 22
    9a70:	80 93 78 07 	sts	0x0778, r24	; 0x800778 <_tead+0x2fe>
    9a74:	80 91 7a 07 	lds	r24, 0x077A	; 0x80077a <_tead+0x300>
    9a78:	81 11       	cpse	r24, r1
    9a7a:	04 c0       	rjmp	.+8      	; 0x9a84 <_Z22TEAD_processCannonMovev+0xd4>
    9a7c:	80 91 78 07 	lds	r24, 0x0778	; 0x800778 <_tead+0x2fe>
    9a80:	80 93 81 07 	sts	0x0781, r24	; 0x800781 <_tead+0x307>
    9a84:	80 91 7b 07 	lds	r24, 0x077B	; 0x80077b <_tead+0x301>
    9a88:	88 23       	and	r24, r24
    9a8a:	49 f0       	breq	.+18     	; 0x9a9e <_Z22TEAD_processCannonMovev+0xee>
    9a8c:	80 e0       	ldi	r24, 0x00	; 0
    9a8e:	0e 94 02 68 	call	0xd004	; 0xd004 <_ZN10class_Wave7PlayingE11WaveChannel>
    9a92:	81 11       	cpse	r24, r1
    9a94:	04 c0       	rjmp	.+8      	; 0x9a9e <_Z22TEAD_processCannonMovev+0xee>
    9a96:	60 e0       	ldi	r22, 0x00	; 0
    9a98:	cf 91       	pop	r28
    9a9a:	0c 94 ac 68 	jmp	0xd158	; 0xd158 <_ZN10class_Wave4PlayE11WaveChannel8PlayMode>
    9a9e:	cf 91       	pop	r28
    9aa0:	08 95       	ret

00009aa2 <_Z17TEAD_getShipsMaxYv>:
    9aa2:	50 91 a9 07 	lds	r21, 0x07A9	; 0x8007a9 <_tead+0x32f>
    9aa6:	ea e7       	ldi	r30, 0x7A	; 122
    9aa8:	f4 e0       	ldi	r31, 0x04	; 4
    9aaa:	40 e0       	ldi	r20, 0x00	; 0
    9aac:	80 e0       	ldi	r24, 0x00	; 0
    9aae:	90 e0       	ldi	r25, 0x00	; 0
    9ab0:	45 17       	cp	r20, r21
    9ab2:	71 f0       	breq	.+28     	; 0x9ad0 <_Z17TEAD_getShipsMaxYv+0x2e>
    9ab4:	25 81       	ldd	r18, Z+5	; 0x05
    9ab6:	22 23       	and	r18, r18
    9ab8:	41 f0       	breq	.+16     	; 0x9aca <_Z17TEAD_getShipsMaxYv+0x28>
    9aba:	22 81       	ldd	r18, Z+2	; 0x02
    9abc:	02 2e       	mov	r0, r18
    9abe:	00 0c       	add	r0, r0
    9ac0:	33 0b       	sbc	r19, r19
    9ac2:	82 17       	cp	r24, r18
    9ac4:	93 07       	cpc	r25, r19
    9ac6:	0c f4       	brge	.+2      	; 0x9aca <_Z17TEAD_getShipsMaxYv+0x28>
    9ac8:	c9 01       	movw	r24, r18
    9aca:	4f 5f       	subi	r20, 0xFF	; 255
    9acc:	3a 96       	adiw	r30, 0x0a	; 10
    9ace:	f0 cf       	rjmp	.-32     	; 0x9ab0 <_Z17TEAD_getShipsMaxYv+0xe>
    9ad0:	08 95       	ret

00009ad2 <_Z17TEAD_getShipsMinYv>:
    9ad2:	50 91 a9 07 	lds	r21, 0x07A9	; 0x8007a9 <_tead+0x32f>
    9ad6:	ea e7       	ldi	r30, 0x7A	; 122
    9ad8:	f4 e0       	ldi	r31, 0x04	; 4
    9ada:	40 e0       	ldi	r20, 0x00	; 0
    9adc:	8f e0       	ldi	r24, 0x0F	; 15
    9ade:	90 e0       	ldi	r25, 0x00	; 0
    9ae0:	45 17       	cp	r20, r21
    9ae2:	71 f0       	breq	.+28     	; 0x9b00 <_Z17TEAD_getShipsMinYv+0x2e>
    9ae4:	25 81       	ldd	r18, Z+5	; 0x05
    9ae6:	22 23       	and	r18, r18
    9ae8:	41 f0       	breq	.+16     	; 0x9afa <_Z17TEAD_getShipsMinYv+0x28>
    9aea:	22 81       	ldd	r18, Z+2	; 0x02
    9aec:	02 2e       	mov	r0, r18
    9aee:	00 0c       	add	r0, r0
    9af0:	33 0b       	sbc	r19, r19
    9af2:	28 17       	cp	r18, r24
    9af4:	39 07       	cpc	r19, r25
    9af6:	0c f4       	brge	.+2      	; 0x9afa <_Z17TEAD_getShipsMinYv+0x28>
    9af8:	c9 01       	movw	r24, r18
    9afa:	4f 5f       	subi	r20, 0xFF	; 255
    9afc:	3a 96       	adiw	r30, 0x0a	; 10
    9afe:	f0 cf       	rjmp	.-32     	; 0x9ae0 <_Z17TEAD_getShipsMinYv+0xe>
    9b00:	08 95       	ret

00009b02 <_Z17TEAD_getShipsMaxXv>:
    9b02:	50 91 a9 07 	lds	r21, 0x07A9	; 0x8007a9 <_tead+0x32f>
    9b06:	ea e7       	ldi	r30, 0x7A	; 122
    9b08:	f4 e0       	ldi	r31, 0x04	; 4
    9b0a:	40 e0       	ldi	r20, 0x00	; 0
    9b0c:	80 e0       	ldi	r24, 0x00	; 0
    9b0e:	90 e0       	ldi	r25, 0x00	; 0
    9b10:	45 17       	cp	r20, r21
    9b12:	91 f0       	breq	.+36     	; 0x9b38 <_Z17TEAD_getShipsMaxXv+0x36>
    9b14:	25 81       	ldd	r18, Z+5	; 0x05
    9b16:	22 23       	and	r18, r18
    9b18:	61 f0       	breq	.+24     	; 0x9b32 <_Z17TEAD_getShipsMaxXv+0x30>
    9b1a:	21 81       	ldd	r18, Z+1	; 0x01
    9b1c:	02 2e       	mov	r0, r18
    9b1e:	00 0c       	add	r0, r0
    9b20:	33 0b       	sbc	r19, r19
    9b22:	b9 01       	movw	r22, r18
    9b24:	6f 5f       	subi	r22, 0xFF	; 255
    9b26:	7f 4f       	sbci	r23, 0xFF	; 255
    9b28:	68 17       	cp	r22, r24
    9b2a:	79 07       	cpc	r23, r25
    9b2c:	14 f0       	brlt	.+4      	; 0x9b32 <_Z17TEAD_getShipsMaxXv+0x30>
    9b2e:	c9 01       	movw	r24, r18
    9b30:	02 96       	adiw	r24, 0x02	; 2
    9b32:	4f 5f       	subi	r20, 0xFF	; 255
    9b34:	3a 96       	adiw	r30, 0x0a	; 10
    9b36:	ec cf       	rjmp	.-40     	; 0x9b10 <_Z17TEAD_getShipsMaxXv+0xe>
    9b38:	08 95       	ret

00009b3a <_Z17TEAD_getShipsMinXv>:
    9b3a:	30 91 a9 07 	lds	r19, 0x07A9	; 0x8007a9 <_tead+0x32f>
    9b3e:	ea e7       	ldi	r30, 0x7A	; 122
    9b40:	f4 e0       	ldi	r31, 0x04	; 4
    9b42:	90 e0       	ldi	r25, 0x00	; 0
    9b44:	87 e1       	ldi	r24, 0x17	; 23
    9b46:	93 17       	cp	r25, r19
    9b48:	51 f0       	breq	.+20     	; 0x9b5e <_Z17TEAD_getShipsMinXv+0x24>
    9b4a:	25 81       	ldd	r18, Z+5	; 0x05
    9b4c:	22 23       	and	r18, r18
    9b4e:	21 f0       	breq	.+8      	; 0x9b58 <_Z17TEAD_getShipsMinXv+0x1e>
    9b50:	21 81       	ldd	r18, Z+1	; 0x01
    9b52:	28 17       	cp	r18, r24
    9b54:	0c f4       	brge	.+2      	; 0x9b58 <_Z17TEAD_getShipsMinXv+0x1e>
    9b56:	82 2f       	mov	r24, r18
    9b58:	9f 5f       	subi	r25, 0xFF	; 255
    9b5a:	3a 96       	adiw	r30, 0x0a	; 10
    9b5c:	f4 cf       	rjmp	.-24     	; 0x9b46 <_Z17TEAD_getShipsMinXv+0xc>
    9b5e:	08 95       	ret

00009b60 <_Z17TEAD_drawBarriersv>:
    9b60:	cf 93       	push	r28
    9b62:	df 93       	push	r29
    9b64:	ce e6       	ldi	r28, 0x6E	; 110
    9b66:	d6 e0       	ldi	r29, 0x06	; 6
    9b68:	8a 81       	ldd	r24, Y+2	; 0x02
    9b6a:	88 23       	and	r24, r24
    9b6c:	59 f0       	breq	.+22     	; 0x9b84 <_Z17TEAD_drawBarriersv+0x24>
    9b6e:	69 81       	ldd	r22, Y+1	; 0x01
    9b70:	06 2e       	mov	r0, r22
    9b72:	00 0c       	add	r0, r0
    9b74:	77 0b       	sbc	r23, r23
    9b76:	88 81       	ld	r24, Y
    9b78:	41 e0       	ldi	r20, 0x01	; 1
    9b7a:	08 2e       	mov	r0, r24
    9b7c:	00 0c       	add	r0, r0
    9b7e:	99 0b       	sbc	r25, r25
    9b80:	0e 94 f9 42 	call	0x85f2	; 0x85f2 <_ZN9class_LED8setPixelEii5Color>
    9b84:	23 96       	adiw	r28, 0x03	; 3
    9b86:	86 e0       	ldi	r24, 0x06	; 6
    9b88:	c8 3c       	cpi	r28, 0xC8	; 200
    9b8a:	d8 07       	cpc	r29, r24
    9b8c:	69 f7       	brne	.-38     	; 0x9b68 <_Z17TEAD_drawBarriersv+0x8>
    9b8e:	df 91       	pop	r29
    9b90:	cf 91       	pop	r28
    9b92:	08 95       	ret

00009b94 <_Z17TEAD_updateScreenv>:
    9b94:	80 e0       	ldi	r24, 0x00	; 0
    9b96:	0e 94 46 42 	call	0x848c	; 0x848c <_ZN9class_LED3clsEb>
    9b9a:	81 e0       	ldi	r24, 0x01	; 1
    9b9c:	0e 94 4e 4c 	call	0x989c	; 0x989c <_Z15TEAD_drawCannon5Color>
    9ba0:	80 91 7a 07 	lds	r24, 0x077A	; 0x80077a <_tead+0x300>
    9ba4:	88 23       	and	r24, r24
    9ba6:	69 f0       	breq	.+26     	; 0x9bc2 <_Z17TEAD_updateScreenv+0x2e>
    9ba8:	60 91 82 07 	lds	r22, 0x0782	; 0x800782 <_tead+0x308>
    9bac:	06 2e       	mov	r0, r22
    9bae:	00 0c       	add	r0, r0
    9bb0:	77 0b       	sbc	r23, r23
    9bb2:	80 91 81 07 	lds	r24, 0x0781	; 0x800781 <_tead+0x307>
    9bb6:	41 e0       	ldi	r20, 0x01	; 1
    9bb8:	08 2e       	mov	r0, r24
    9bba:	00 0c       	add	r0, r0
    9bbc:	99 0b       	sbc	r25, r25
    9bbe:	0e 94 f9 42 	call	0x85f2	; 0x85f2 <_ZN9class_LED8setPixelEii5Color>
    9bc2:	80 91 84 07 	lds	r24, 0x0784	; 0x800784 <_tead+0x30a>
    9bc6:	88 23       	and	r24, r24
    9bc8:	69 f0       	breq	.+26     	; 0x9be4 <_Z17TEAD_updateScreenv+0x50>
    9bca:	60 91 86 07 	lds	r22, 0x0786	; 0x800786 <_tead+0x30c>
    9bce:	06 2e       	mov	r0, r22
    9bd0:	00 0c       	add	r0, r0
    9bd2:	77 0b       	sbc	r23, r23
    9bd4:	80 91 85 07 	lds	r24, 0x0785	; 0x800785 <_tead+0x30b>
    9bd8:	41 e0       	ldi	r20, 0x01	; 1
    9bda:	08 2e       	mov	r0, r24
    9bdc:	00 0c       	add	r0, r0
    9bde:	99 0b       	sbc	r25, r25
    9be0:	0e 94 f9 42 	call	0x85f2	; 0x85f2 <_ZN9class_LED8setPixelEii5Color>
    9be4:	0e 94 b0 4d 	call	0x9b60	; 0x9b60 <_Z17TEAD_drawBarriersv>
    9be8:	81 e0       	ldi	r24, 0x01	; 1
    9bea:	0e 94 0b 4c 	call	0x9816	; 0x9816 <_Z19TEAD_drawSpaceShipsb>
    9bee:	0e 94 3f 4c 	call	0x987e	; 0x987e <_Z19TEAD_drawMotherShipv>
    9bf2:	0e 94 97 4c 	call	0x992e	; 0x992e <_Z14TEAD_drawLivesv>
    9bf6:	0c 94 77 43 	jmp	0x86ee	; 0x86ee <_ZN9class_LED7refreshEv>

00009bfa <_Z19TEAD_initializeGamebbb>:
    9bfa:	0f 93       	push	r16
    9bfc:	1f 93       	push	r17
    9bfe:	cf 93       	push	r28
    9c00:	df 93       	push	r29
    9c02:	08 2f       	mov	r16, r24
    9c04:	16 2f       	mov	r17, r22
    9c06:	c4 2f       	mov	r28, r20
    9c08:	0e 94 f9 45 	call	0x8bf2	; 0x8bf2 <_ZN9class_LED7getFontEv>
    9c0c:	d8 2f       	mov	r29, r24
    9c0e:	80 91 06 01 	lds	r24, 0x0106	; 0x800106 <_ZZ19TEAD_initializeGamebbbE11bOnlyOnTime>
    9c12:	88 23       	and	r24, r24
    9c14:	71 f1       	breq	.+92     	; 0x9c72 <_Z19TEAD_initializeGamebbb+0x78>
    9c16:	10 92 06 01 	sts	0x0106, r1	; 0x800106 <_ZZ19TEAD_initializeGamebbbE11bOnlyOnTime>
    9c1a:	6d ea       	ldi	r22, 0xAD	; 173
    9c1c:	71 e0       	ldi	r23, 0x01	; 1
    9c1e:	83 e6       	ldi	r24, 0x63	; 99
    9c20:	97 e0       	ldi	r25, 0x07	; 7
    9c22:	0e 94 64 6a 	call	0xd4c8	; 0xd4c8 <strcpy>
    9c26:	1f 92       	push	r1
    9c28:	8f e0       	ldi	r24, 0x0F	; 15
    9c2a:	8f 93       	push	r24
    9c2c:	1f 92       	push	r1
    9c2e:	82 e0       	ldi	r24, 0x02	; 2
    9c30:	8f 93       	push	r24
    9c32:	83 e6       	ldi	r24, 0x63	; 99
    9c34:	97 e0       	ldi	r25, 0x07	; 7
    9c36:	9f 93       	push	r25
    9c38:	8f 93       	push	r24
    9c3a:	8d ec       	ldi	r24, 0xCD	; 205
    9c3c:	91 e0       	ldi	r25, 0x01	; 1
    9c3e:	9f 93       	push	r25
    9c40:	8f 93       	push	r24
    9c42:	8f e2       	ldi	r24, 0x2F	; 47
    9c44:	97 e0       	ldi	r25, 0x07	; 7
    9c46:	9f 93       	push	r25
    9c48:	8f 93       	push	r24
    9c4a:	0e 94 6b 6a 	call	0xd4d6	; 0xd4d6 <sprintf>
    9c4e:	6f e2       	ldi	r22, 0x2F	; 47
    9c50:	77 e0       	ldi	r23, 0x07	; 7
    9c52:	8e ea       	ldi	r24, 0xAE	; 174
    9c54:	97 e0       	ldi	r25, 0x07	; 7
    9c56:	0e 94 c9 48 	call	0x9192	; 0x9192 <_ZN9class_LED12getTextWidthEPKc>
    9c5a:	90 93 62 07 	sts	0x0762, r25	; 0x800762 <_tead+0x2e8>
    9c5e:	80 93 61 07 	sts	0x0761, r24	; 0x800761 <_tead+0x2e7>
    9c62:	8d b7       	in	r24, 0x3d	; 61
    9c64:	9e b7       	in	r25, 0x3e	; 62
    9c66:	0a 96       	adiw	r24, 0x0a	; 10
    9c68:	0f b6       	in	r0, 0x3f	; 63
    9c6a:	f8 94       	cli
    9c6c:	9e bf       	out	0x3e, r25	; 62
    9c6e:	0f be       	out	0x3f, r0	; 63
    9c70:	8d bf       	out	0x3d, r24	; 61
    9c72:	81 e0       	ldi	r24, 0x01	; 1
    9c74:	0e 94 f6 45 	call	0x8bec	; 0x8bec <_ZN9class_LED7setFontE8CharFont>
    9c78:	82 e3       	ldi	r24, 0x32	; 50
    9c7a:	90 e0       	ldi	r25, 0x00	; 0
    9c7c:	0e 94 fc 68 	call	0xd1f8	; 0xd1f8 <_ZN10class_Wave9SetVolumeEi>
    9c80:	60 e0       	ldi	r22, 0x00	; 0
    9c82:	87 e7       	ldi	r24, 0x77	; 119
    9c84:	97 e7       	ldi	r25, 0x77	; 119
    9c86:	0e 94 12 68 	call	0xd024	; 0xd024 <_ZN10class_Wave7PrepareEPKh11WaveChannel>
    9c8a:	61 e0       	ldi	r22, 0x01	; 1
    9c8c:	8b e1       	ldi	r24, 0x1B	; 27
    9c8e:	91 e7       	ldi	r25, 0x71	; 113
    9c90:	0e 94 12 68 	call	0xd024	; 0xd024 <_ZN10class_Wave7PrepareEPKh11WaveChannel>
    9c94:	62 e0       	ldi	r22, 0x02	; 2
    9c96:	89 ec       	ldi	r24, 0xC9	; 201
    9c98:	97 e6       	ldi	r25, 0x67	; 103
    9c9a:	0e 94 12 68 	call	0xd024	; 0xd024 <_ZN10class_Wave7PrepareEPKh11WaveChannel>
    9c9e:	63 e0       	ldi	r22, 0x03	; 3
    9ca0:	88 e7       	ldi	r24, 0x78	; 120
    9ca2:	94 e6       	ldi	r25, 0x64	; 100
    9ca4:	0e 94 12 68 	call	0xd024	; 0xd024 <_ZN10class_Wave7PrepareEPKh11WaveChannel>
    9ca8:	64 e0       	ldi	r22, 0x04	; 4
    9caa:	83 ef       	ldi	r24, 0xF3	; 243
    9cac:	9f e5       	ldi	r25, 0x5F	; 95
    9cae:	0e 94 12 68 	call	0xd024	; 0xd024 <_ZN10class_Wave7PrepareEPKh11WaveChannel>
    9cb2:	65 e0       	ldi	r22, 0x05	; 5
    9cb4:	8f e3       	ldi	r24, 0x3F	; 63
    9cb6:	96 e6       	ldi	r25, 0x66	; 102
    9cb8:	0e 94 12 68 	call	0xd024	; 0xd024 <_ZN10class_Wave7PrepareEPKh11WaveChannel>
    9cbc:	66 e0       	ldi	r22, 0x06	; 6
    9cbe:	81 e5       	ldi	r24, 0x51	; 81
    9cc0:	98 e5       	ldi	r25, 0x58	; 88
    9cc2:	0e 94 12 68 	call	0xd024	; 0xd024 <_ZN10class_Wave7PrepareEPKh11WaveChannel>
    9cc6:	88 ef       	ldi	r24, 0xF8	; 248
    9cc8:	80 93 7f 07 	sts	0x077F, r24	; 0x80077f <_tead+0x305>
    9ccc:	10 92 80 07 	sts	0x0780, r1	; 0x800780 <_tead+0x306>
    9cd0:	10 92 7c 07 	sts	0x077C, r1	; 0x80077c <_tead+0x302>
    9cd4:	8c e0       	ldi	r24, 0x0C	; 12
    9cd6:	80 93 78 07 	sts	0x0778, r24	; 0x800778 <_tead+0x2fe>
    9cda:	9f e0       	ldi	r25, 0x0F	; 15
    9cdc:	90 93 79 07 	sts	0x0779, r25	; 0x800779 <_tead+0x2ff>
    9ce0:	10 92 7a 07 	sts	0x077A, r1	; 0x80077a <_tead+0x300>
    9ce4:	80 93 81 07 	sts	0x0781, r24	; 0x800781 <_tead+0x307>
    9ce8:	8e e0       	ldi	r24, 0x0E	; 14
    9cea:	80 93 82 07 	sts	0x0782, r24	; 0x800782 <_tead+0x308>
    9cee:	81 e0       	ldi	r24, 0x01	; 1
    9cf0:	80 93 83 07 	sts	0x0783, r24	; 0x800783 <_tead+0x309>
    9cf4:	10 92 84 07 	sts	0x0784, r1	; 0x800784 <_tead+0x30a>
    9cf8:	00 23       	and	r16, r16
    9cfa:	21 f0       	breq	.+8      	; 0x9d04 <_Z19TEAD_initializeGamebbb+0x10a>
    9cfc:	10 92 75 07 	sts	0x0775, r1	; 0x800775 <_tead+0x2fb>
    9d00:	10 92 74 07 	sts	0x0774, r1	; 0x800774 <_tead+0x2fa>
    9d04:	11 23       	and	r17, r17
    9d06:	51 f0       	breq	.+20     	; 0x9d1c <_Z19TEAD_initializeGamebbb+0x122>
    9d08:	81 e0       	ldi	r24, 0x01	; 1
    9d0a:	80 93 76 07 	sts	0x0776, r24	; 0x800776 <_tead+0x2fc>
    9d0e:	cc 23       	and	r28, r28
    9d10:	09 f4       	brne	.+2      	; 0x9d14 <_Z19TEAD_initializeGamebbb+0x11a>
    9d12:	53 c0       	rjmp	.+166    	; 0x9dba <_Z19TEAD_initializeGamebbb+0x1c0>
    9d14:	83 e0       	ldi	r24, 0x03	; 3
    9d16:	80 93 77 07 	sts	0x0777, r24	; 0x800777 <_tead+0x2fd>
    9d1a:	02 c0       	rjmp	.+4      	; 0x9d20 <_Z19TEAD_initializeGamebbb+0x126>
    9d1c:	c1 11       	cpse	r28, r1
    9d1e:	fa cf       	rjmp	.-12     	; 0x9d14 <_Z19TEAD_initializeGamebbb+0x11a>
    9d20:	20 91 76 07 	lds	r18, 0x0776	; 0x800776 <_tead+0x2fc>
    9d24:	23 33       	cpi	r18, 0x33	; 51
    9d26:	60 f4       	brcc	.+24     	; 0x9d40 <_Z19TEAD_initializeGamebbb+0x146>
    9d28:	30 e0       	ldi	r19, 0x00	; 0
    9d2a:	21 50       	subi	r18, 0x01	; 1
    9d2c:	31 09       	sbc	r19, r1
    9d2e:	4a ef       	ldi	r20, 0xFA	; 250
    9d30:	42 03       	mulsu	r20, r18
    9d32:	c0 01       	movw	r24, r0
    9d34:	43 9f       	mul	r20, r19
    9d36:	90 0d       	add	r25, r0
    9d38:	11 24       	eor	r1, r1
    9d3a:	80 57       	subi	r24, 0x70	; 112
    9d3c:	9e 4f       	sbci	r25, 0xFE	; 254
    9d3e:	02 c0       	rjmp	.+4      	; 0x9d44 <_Z19TEAD_initializeGamebbb+0x14a>
    9d40:	84 e6       	ldi	r24, 0x64	; 100
    9d42:	90 e0       	ldi	r25, 0x00	; 0
    9d44:	90 93 fc 06 	sts	0x06FC, r25	; 0x8006fc <_tead+0x282>
    9d48:	80 93 fb 06 	sts	0x06FB, r24	; 0x8006fb <_tead+0x281>
    9d4c:	0e 94 fa 4a 	call	0x95f4	; 0x95f4 <_Z19TEAD_initSpaceShipsv>
    9d50:	0e 94 cc 4a 	call	0x9598	; 0x9598 <_Z17TEAD_initBarriersv>
    9d54:	0e 94 ca 4d 	call	0x9b94	; 0x9b94 <_Z17TEAD_updateScreenv>
    9d58:	6b ed       	ldi	r22, 0xDB	; 219
    9d5a:	76 e0       	ldi	r23, 0x06	; 6
    9d5c:	8f ea       	ldi	r24, 0xAF	; 175
    9d5e:	97 e0       	ldi	r25, 0x07	; 7
    9d60:	0e 94 3d 66 	call	0xcc7a	; 0xcc7a <_ZN11class_Timer10setElapsedERm>
    9d64:	6f ed       	ldi	r22, 0xDF	; 223
    9d66:	76 e0       	ldi	r23, 0x06	; 6
    9d68:	8f ea       	ldi	r24, 0xAF	; 175
    9d6a:	97 e0       	ldi	r25, 0x07	; 7
    9d6c:	0e 94 3d 66 	call	0xcc7a	; 0xcc7a <_ZN11class_Timer10setElapsedERm>
    9d70:	63 ee       	ldi	r22, 0xE3	; 227
    9d72:	76 e0       	ldi	r23, 0x06	; 6
    9d74:	8f ea       	ldi	r24, 0xAF	; 175
    9d76:	97 e0       	ldi	r25, 0x07	; 7
    9d78:	0e 94 3d 66 	call	0xcc7a	; 0xcc7a <_ZN11class_Timer10setElapsedERm>
    9d7c:	67 ee       	ldi	r22, 0xE7	; 231
    9d7e:	76 e0       	ldi	r23, 0x06	; 6
    9d80:	8f ea       	ldi	r24, 0xAF	; 175
    9d82:	97 e0       	ldi	r25, 0x07	; 7
    9d84:	0e 94 3d 66 	call	0xcc7a	; 0xcc7a <_ZN11class_Timer10setElapsedERm>
    9d88:	6b ee       	ldi	r22, 0xEB	; 235
    9d8a:	76 e0       	ldi	r23, 0x06	; 6
    9d8c:	8f ea       	ldi	r24, 0xAF	; 175
    9d8e:	97 e0       	ldi	r25, 0x07	; 7
    9d90:	0e 94 3d 66 	call	0xcc7a	; 0xcc7a <_ZN11class_Timer10setElapsedERm>
    9d94:	6f ee       	ldi	r22, 0xEF	; 239
    9d96:	76 e0       	ldi	r23, 0x06	; 6
    9d98:	8f ea       	ldi	r24, 0xAF	; 175
    9d9a:	97 e0       	ldi	r25, 0x07	; 7
    9d9c:	0e 94 3d 66 	call	0xcc7a	; 0xcc7a <_ZN11class_Timer10setElapsedERm>
    9da0:	67 ef       	ldi	r22, 0xF7	; 247
    9da2:	76 e0       	ldi	r23, 0x06	; 6
    9da4:	8f ea       	ldi	r24, 0xAF	; 175
    9da6:	97 e0       	ldi	r25, 0x07	; 7
    9da8:	0e 94 3d 66 	call	0xcc7a	; 0xcc7a <_ZN11class_Timer10setElapsedERm>
    9dac:	8d 2f       	mov	r24, r29
    9dae:	df 91       	pop	r29
    9db0:	cf 91       	pop	r28
    9db2:	1f 91       	pop	r17
    9db4:	0f 91       	pop	r16
    9db6:	0c 94 f6 45 	jmp	0x8bec	; 0x8bec <_ZN9class_LED7setFontE8CharFont>
    9dba:	80 e9       	ldi	r24, 0x90	; 144
    9dbc:	91 e0       	ldi	r25, 0x01	; 1
    9dbe:	c2 cf       	rjmp	.-124    	; 0x9d44 <_Z19TEAD_initializeGamebbb+0x14a>

00009dc0 <_Z18TEAD_showExplosionaaaba>:
    9dc0:	2f 92       	push	r2
    9dc2:	3f 92       	push	r3
    9dc4:	4f 92       	push	r4
    9dc6:	5f 92       	push	r5
    9dc8:	6f 92       	push	r6
    9dca:	7f 92       	push	r7
    9dcc:	8f 92       	push	r8
    9dce:	9f 92       	push	r9
    9dd0:	af 92       	push	r10
    9dd2:	bf 92       	push	r11
    9dd4:	cf 92       	push	r12
    9dd6:	df 92       	push	r13
    9dd8:	ef 92       	push	r14
    9dda:	ff 92       	push	r15
    9ddc:	0f 93       	push	r16
    9dde:	1f 93       	push	r17
    9de0:	cf 93       	push	r28
    9de2:	df 93       	push	r29
    9de4:	cd b7       	in	r28, 0x3d	; 61
    9de6:	de b7       	in	r29, 0x3e	; 62
    9de8:	27 97       	sbiw	r28, 0x07	; 7
    9dea:	0f b6       	in	r0, 0x3f	; 63
    9dec:	f8 94       	cli
    9dee:	de bf       	out	0x3e, r29	; 62
    9df0:	0f be       	out	0x3f, r0	; 63
    9df2:	cd bf       	out	0x3d, r28	; 61
    9df4:	4b 83       	std	Y+3, r20	; 0x03
    9df6:	2c 83       	std	Y+4, r18	; 0x04
    9df8:	0d 83       	std	Y+5, r16	; 0x05
    9dfa:	41 2c       	mov	r4, r1
    9dfc:	55 24       	eor	r5, r5
    9dfe:	53 94       	inc	r5
    9e00:	11 e0       	ldi	r17, 0x01	; 1
    9e02:	e6 2e       	mov	r14, r22
    9e04:	66 0f       	add	r22, r22
    9e06:	ff 08       	sbc	r15, r15
    9e08:	28 2f       	mov	r18, r24
    9e0a:	88 0f       	add	r24, r24
    9e0c:	33 0b       	sbc	r19, r19
    9e0e:	3f 83       	std	Y+7, r19	; 0x07
    9e10:	2e 83       	std	Y+6, r18	; 0x06
    9e12:	3d 81       	ldd	r19, Y+5	; 0x05
    9e14:	43 16       	cp	r4, r19
    9e16:	0c f0       	brlt	.+2      	; 0x9e1a <_Z18TEAD_showExplosionaaaba+0x5a>
    9e18:	b6 c0       	rjmp	.+364    	; 0x9f86 <_Z18TEAD_showExplosionaaaba+0x1c6>
    9e1a:	80 91 7b 07 	lds	r24, 0x077B	; 0x80077b <_tead+0x301>
    9e1e:	88 23       	and	r24, r24
    9e20:	21 f0       	breq	.+8      	; 0x9e2a <_Z18TEAD_showExplosionaaaba+0x6a>
    9e22:	60 e0       	ldi	r22, 0x00	; 0
    9e24:	82 e0       	ldi	r24, 0x02	; 2
    9e26:	0e 94 ac 68 	call	0xd158	; 0xd158 <_ZN10class_Wave4PlayE11WaveChannel8PlayMode>
    9e2a:	84 e5       	ldi	r24, 0x54	; 84
    9e2c:	28 2e       	mov	r2, r24
    9e2e:	33 24       	eor	r3, r3
    9e30:	33 94       	inc	r3
    9e32:	c1 2c       	mov	r12, r1
    9e34:	d1 2c       	mov	r13, r1
    9e36:	8b 81       	ldd	r24, Y+3	; 0x03
    9e38:	c8 16       	cp	r12, r24
    9e3a:	0c f0       	brlt	.+2      	; 0x9e3e <_Z18TEAD_showExplosionaaaba+0x7e>
    9e3c:	55 c0       	rjmp	.+170    	; 0x9ee8 <_Z18TEAD_showExplosionaaaba+0x128>
    9e3e:	9c 81       	ldd	r25, Y+4	; 0x04
    9e40:	99 23       	and	r25, r25
    9e42:	19 f0       	breq	.+6      	; 0x9e4a <_Z18TEAD_showExplosionaaaba+0x8a>
    9e44:	0e 94 ca 4d 	call	0x9b94	; 0x9b94 <_Z17TEAD_updateScreenv>
    9e48:	03 c0       	rjmp	.+6      	; 0x9e50 <_Z18TEAD_showExplosionaaaba+0x90>
    9e4a:	80 e0       	ldi	r24, 0x00	; 0
    9e4c:	0e 94 46 42 	call	0x848c	; 0x848c <_ZN9class_LED3clsEb>
    9e50:	01 2f       	mov	r16, r17
    9e52:	56 01       	movw	r10, r12
    9e54:	ae 0c       	add	r10, r14
    9e56:	bf 1c       	adc	r11, r15
    9e58:	95 01       	movw	r18, r10
    9e5a:	8e 81       	ldd	r24, Y+6	; 0x06
    9e5c:	9f 81       	ldd	r25, Y+7	; 0x07
    9e5e:	8c 0d       	add	r24, r12
    9e60:	9d 1d       	adc	r25, r13
    9e62:	9a 83       	std	Y+2, r25	; 0x02
    9e64:	89 83       	std	Y+1, r24	; 0x01
    9e66:	ac 01       	movw	r20, r24
    9e68:	47 01       	movw	r8, r14
    9e6a:	8c 18       	sub	r8, r12
    9e6c:	9d 08       	sbc	r9, r13
    9e6e:	b4 01       	movw	r22, r8
    9e70:	6e 80       	ldd	r6, Y+6	; 0x06
    9e72:	7f 80       	ldd	r7, Y+7	; 0x07
    9e74:	6c 18       	sub	r6, r12
    9e76:	7d 08       	sbc	r7, r13
    9e78:	c3 01       	movw	r24, r6
    9e7a:	0e 94 98 43 	call	0x8730	; 0x8730 <_ZN9class_LED4lineEiiii5Color>
    9e7e:	95 01       	movw	r18, r10
    9e80:	a3 01       	movw	r20, r6
    9e82:	b4 01       	movw	r22, r8
    9e84:	89 81       	ldd	r24, Y+1	; 0x01
    9e86:	9a 81       	ldd	r25, Y+2	; 0x02
    9e88:	0e 94 98 43 	call	0x8730	; 0x8730 <_ZN9class_LED4lineEiiii5Color>
    9e8c:	94 01       	movw	r18, r8
    9e8e:	4e 81       	ldd	r20, Y+6	; 0x06
    9e90:	5f 81       	ldd	r21, Y+7	; 0x07
    9e92:	b7 01       	movw	r22, r14
    9e94:	ca 01       	movw	r24, r20
    9e96:	0e 94 98 43 	call	0x8730	; 0x8730 <_ZN9class_LED4lineEiiii5Color>
    9e9a:	95 01       	movw	r18, r10
    9e9c:	4e 81       	ldd	r20, Y+6	; 0x06
    9e9e:	5f 81       	ldd	r21, Y+7	; 0x07
    9ea0:	b7 01       	movw	r22, r14
    9ea2:	ca 01       	movw	r24, r20
    9ea4:	0e 94 98 43 	call	0x8730	; 0x8730 <_ZN9class_LED4lineEiiii5Color>
    9ea8:	80 91 7b 07 	lds	r24, 0x077B	; 0x80077b <_tead+0x301>
    9eac:	88 23       	and	r24, r24
    9eae:	41 f0       	breq	.+16     	; 0x9ec0 <_Z18TEAD_showExplosionaaaba+0x100>
    9eb0:	22 e0       	ldi	r18, 0x02	; 2
    9eb2:	42 e3       	ldi	r20, 0x32	; 50
    9eb4:	50 e0       	ldi	r21, 0x00	; 0
    9eb6:	b1 01       	movw	r22, r2
    9eb8:	8c ea       	ldi	r24, 0xAC	; 172
    9eba:	97 e0       	ldi	r25, 0x07	; 7
    9ebc:	0e 94 45 69 	call	0xd28a	; 0xd28a <_ZN10class_Wave10setToneGenEjjh>
    9ec0:	91 e0       	ldi	r25, 0x01	; 1
    9ec2:	59 26       	eor	r5, r25
    9ec4:	0e 94 77 43 	call	0x86ee	; 0x86ee <_ZN9class_LED7refreshEv>
    9ec8:	49 e1       	ldi	r20, 0x19	; 25
    9eca:	50 e0       	ldi	r21, 0x00	; 0
    9ecc:	60 e0       	ldi	r22, 0x00	; 0
    9ece:	70 e0       	ldi	r23, 0x00	; 0
    9ed0:	8f ea       	ldi	r24, 0xAF	; 175
    9ed2:	97 e0       	ldi	r25, 0x07	; 7
    9ed4:	0e 94 5d 66 	call	0xccba	; 0xccba <_ZN11class_Timer17delayMillisecondsEm>
    9ed8:	2f ef       	ldi	r18, 0xFF	; 255
    9eda:	c2 1a       	sub	r12, r18
    9edc:	d2 0a       	sbc	r13, r18
    9ede:	34 e6       	ldi	r19, 0x64	; 100
    9ee0:	23 0e       	add	r2, r19
    9ee2:	31 1c       	adc	r3, r1
    9ee4:	15 2d       	mov	r17, r5
    9ee6:	a7 cf       	rjmp	.-178    	; 0x9e36 <_Z18TEAD_showExplosionaaaba+0x76>
    9ee8:	2b 80       	ldd	r2, Y+3	; 0x03
    9eea:	2a 94       	dec	r2
    9eec:	27 fc       	sbrc	r2, 7
    9eee:	49 c0       	rjmp	.+146    	; 0x9f82 <_Z18TEAD_showExplosionaaaba+0x1c2>
    9ef0:	8c 81       	ldd	r24, Y+4	; 0x04
    9ef2:	88 23       	and	r24, r24
    9ef4:	19 f0       	breq	.+6      	; 0x9efc <_Z18TEAD_showExplosionaaaba+0x13c>
    9ef6:	0e 94 ca 4d 	call	0x9b94	; 0x9b94 <_Z17TEAD_updateScreenv>
    9efa:	03 c0       	rjmp	.+6      	; 0x9f02 <_Z18TEAD_showExplosionaaaba+0x142>
    9efc:	80 e0       	ldi	r24, 0x00	; 0
    9efe:	0e 94 46 42 	call	0x848c	; 0x848c <_ZN9class_LED3clsEb>
    9f02:	82 2d       	mov	r24, r2
    9f04:	02 2c       	mov	r0, r2
    9f06:	00 0c       	add	r0, r0
    9f08:	99 0b       	sbc	r25, r25
    9f0a:	37 01       	movw	r6, r14
    9f0c:	68 0e       	add	r6, r24
    9f0e:	79 1e       	adc	r7, r25
    9f10:	ce 80       	ldd	r12, Y+6	; 0x06
    9f12:	df 80       	ldd	r13, Y+7	; 0x07
    9f14:	c8 0e       	add	r12, r24
    9f16:	d9 1e       	adc	r13, r25
    9f18:	57 01       	movw	r10, r14
    9f1a:	a8 1a       	sub	r10, r24
    9f1c:	b9 0a       	sbc	r11, r25
    9f1e:	8e 80       	ldd	r8, Y+6	; 0x06
    9f20:	9f 80       	ldd	r9, Y+7	; 0x07
    9f22:	88 1a       	sub	r8, r24
    9f24:	99 0a       	sbc	r9, r25
    9f26:	01 2f       	mov	r16, r17
    9f28:	93 01       	movw	r18, r6
    9f2a:	a6 01       	movw	r20, r12
    9f2c:	b5 01       	movw	r22, r10
    9f2e:	c4 01       	movw	r24, r8
    9f30:	0e 94 98 43 	call	0x8730	; 0x8730 <_ZN9class_LED4lineEiiii5Color>
    9f34:	93 01       	movw	r18, r6
    9f36:	a4 01       	movw	r20, r8
    9f38:	b5 01       	movw	r22, r10
    9f3a:	c6 01       	movw	r24, r12
    9f3c:	0e 94 98 43 	call	0x8730	; 0x8730 <_ZN9class_LED4lineEiiii5Color>
    9f40:	80 91 7b 07 	lds	r24, 0x077B	; 0x80077b <_tead+0x301>
    9f44:	88 23       	and	r24, r24
    9f46:	71 f0       	breq	.+28     	; 0x9f64 <_Z18TEAD_showExplosionaaaba+0x1a4>
    9f48:	92 2d       	mov	r25, r2
    9f4a:	24 e6       	ldi	r18, 0x64	; 100
    9f4c:	92 02       	muls	r25, r18
    9f4e:	b0 01       	movw	r22, r0
    9f50:	11 24       	eor	r1, r1
    9f52:	6c 5a       	subi	r22, 0xAC	; 172
    9f54:	7e 4f       	sbci	r23, 0xFE	; 254
    9f56:	22 e0       	ldi	r18, 0x02	; 2
    9f58:	42 e3       	ldi	r20, 0x32	; 50
    9f5a:	50 e0       	ldi	r21, 0x00	; 0
    9f5c:	8c ea       	ldi	r24, 0xAC	; 172
    9f5e:	97 e0       	ldi	r25, 0x07	; 7
    9f60:	0e 94 45 69 	call	0xd28a	; 0xd28a <_ZN10class_Wave10setToneGenEjjh>
    9f64:	31 e0       	ldi	r19, 0x01	; 1
    9f66:	53 26       	eor	r5, r19
    9f68:	0e 94 77 43 	call	0x86ee	; 0x86ee <_ZN9class_LED7refreshEv>
    9f6c:	49 e1       	ldi	r20, 0x19	; 25
    9f6e:	50 e0       	ldi	r21, 0x00	; 0
    9f70:	60 e0       	ldi	r22, 0x00	; 0
    9f72:	70 e0       	ldi	r23, 0x00	; 0
    9f74:	8f ea       	ldi	r24, 0xAF	; 175
    9f76:	97 e0       	ldi	r25, 0x07	; 7
    9f78:	0e 94 5d 66 	call	0xccba	; 0xccba <_ZN11class_Timer17delayMillisecondsEm>
    9f7c:	2a 94       	dec	r2
    9f7e:	15 2d       	mov	r17, r5
    9f80:	b5 cf       	rjmp	.-150    	; 0x9eec <_Z18TEAD_showExplosionaaaba+0x12c>
    9f82:	43 94       	inc	r4
    9f84:	46 cf       	rjmp	.-372    	; 0x9e12 <_Z18TEAD_showExplosionaaaba+0x52>
    9f86:	27 96       	adiw	r28, 0x07	; 7
    9f88:	0f b6       	in	r0, 0x3f	; 63
    9f8a:	f8 94       	cli
    9f8c:	de bf       	out	0x3e, r29	; 62
    9f8e:	0f be       	out	0x3f, r0	; 63
    9f90:	cd bf       	out	0x3d, r28	; 61
    9f92:	df 91       	pop	r29
    9f94:	cf 91       	pop	r28
    9f96:	1f 91       	pop	r17
    9f98:	0f 91       	pop	r16
    9f9a:	ff 90       	pop	r15
    9f9c:	ef 90       	pop	r14
    9f9e:	df 90       	pop	r13
    9fa0:	cf 90       	pop	r12
    9fa2:	bf 90       	pop	r11
    9fa4:	af 90       	pop	r10
    9fa6:	9f 90       	pop	r9
    9fa8:	8f 90       	pop	r8
    9faa:	7f 90       	pop	r7
    9fac:	6f 90       	pop	r6
    9fae:	5f 90       	pop	r5
    9fb0:	4f 90       	pop	r4
    9fb2:	3f 90       	pop	r3
    9fb4:	2f 90       	pop	r2
    9fb6:	08 95       	ret

00009fb8 <_Z26TEAD_processFireFromCannonv>:
    9fb8:	0f 93       	push	r16
    9fba:	1f 93       	push	r17
    9fbc:	cf 93       	push	r28
    9fbe:	df 93       	push	r29
    9fc0:	20 91 76 07 	lds	r18, 0x0776	; 0x800776 <_tead+0x2fc>
    9fc4:	23 33       	cpi	r18, 0x33	; 51
    9fc6:	88 f4       	brcc	.+34     	; 0x9fea <_Z26TEAD_processFireFromCannonv+0x32>
    9fc8:	30 e0       	ldi	r19, 0x00	; 0
    9fca:	21 50       	subi	r18, 0x01	; 1
    9fcc:	31 09       	sbc	r19, r1
    9fce:	48 e2       	ldi	r20, 0x28	; 40
    9fd0:	42 9f       	mul	r20, r18
    9fd2:	c0 01       	movw	r24, r0
    9fd4:	43 9f       	mul	r20, r19
    9fd6:	90 0d       	add	r25, r0
    9fd8:	11 24       	eor	r1, r1
    9fda:	6e ec       	ldi	r22, 0xCE	; 206
    9fdc:	7f ef       	ldi	r23, 0xFF	; 255
    9fde:	0e 94 78 69 	call	0xd2f0	; 0xd2f0 <__divmodhi4>
    9fe2:	eb 01       	movw	r28, r22
    9fe4:	ca 5b       	subi	r28, 0xBA	; 186
    9fe6:	df 4f       	sbci	r29, 0xFF	; 255
    9fe8:	02 c0       	rjmp	.+4      	; 0x9fee <_Z26TEAD_processFireFromCannonv+0x36>
    9fea:	ce e1       	ldi	r28, 0x1E	; 30
    9fec:	d0 e0       	ldi	r29, 0x00	; 0
    9fee:	6f ed       	ldi	r22, 0xDF	; 223
    9ff0:	76 e0       	ldi	r23, 0x06	; 6
    9ff2:	8f ea       	ldi	r24, 0xAF	; 175
    9ff4:	97 e0       	ldi	r25, 0x07	; 7
    9ff6:	0e 94 49 66 	call	0xcc92	; 0xcc92 <_ZN11class_Timer10getElapsedERm>
    9ffa:	8e 01       	movw	r16, r28
    9ffc:	20 e0       	ldi	r18, 0x00	; 0
    9ffe:	30 e0       	ldi	r19, 0x00	; 0
    a000:	06 17       	cp	r16, r22
    a002:	17 07       	cpc	r17, r23
    a004:	28 07       	cpc	r18, r24
    a006:	39 07       	cpc	r19, r25
    a008:	08 f0       	brcs	.+2      	; 0xa00c <_Z26TEAD_processFireFromCannonv+0x54>
    a00a:	73 c1       	rjmp	.+742    	; 0xa2f2 <_Z26TEAD_processFireFromCannonv+0x33a>
    a00c:	6f ed       	ldi	r22, 0xDF	; 223
    a00e:	76 e0       	ldi	r23, 0x06	; 6
    a010:	8f ea       	ldi	r24, 0xAF	; 175
    a012:	97 e0       	ldi	r25, 0x07	; 7
    a014:	0e 94 3d 66 	call	0xcc7a	; 0xcc7a <_ZN11class_Timer10setElapsedERm>
    a018:	80 91 7a 07 	lds	r24, 0x077A	; 0x80077a <_tead+0x300>
    a01c:	88 23       	and	r24, r24
    a01e:	09 f4       	brne	.+2      	; 0xa022 <_Z26TEAD_processFireFromCannonv+0x6a>
    a020:	70 c0       	rjmp	.+224    	; 0xa102 <_Z26TEAD_processFireFromCannonv+0x14a>
    a022:	20 91 82 07 	lds	r18, 0x0782	; 0x800782 <_tead+0x308>
    a026:	21 50       	subi	r18, 0x01	; 1
    a028:	20 93 82 07 	sts	0x0782, r18	; 0x800782 <_tead+0x308>
    a02c:	27 30       	cpi	r18, 0x07	; 7
    a02e:	c4 f0       	brlt	.+48     	; 0xa060 <_Z26TEAD_processFireFromCannonv+0xa8>
    a030:	80 91 7b 07 	lds	r24, 0x077B	; 0x80077b <_tead+0x301>
    a034:	88 23       	and	r24, r24
    a036:	a1 f0       	breq	.+40     	; 0xa060 <_Z26TEAD_processFireFromCannonv+0xa8>
    a038:	40 ed       	ldi	r20, 0xD0	; 208
    a03a:	57 e0       	ldi	r21, 0x07	; 7
    a03c:	24 03       	mulsu	r18, r20
    a03e:	c0 01       	movw	r24, r0
    a040:	25 9f       	mul	r18, r21
    a042:	90 0d       	add	r25, r0
    a044:	11 24       	eor	r1, r1
    a046:	28 ec       	ldi	r18, 0xC8	; 200
    a048:	28 9f       	mul	r18, r24
    a04a:	b0 01       	movw	r22, r0
    a04c:	29 9f       	mul	r18, r25
    a04e:	70 0d       	add	r23, r0
    a050:	11 24       	eor	r1, r1
    a052:	21 e0       	ldi	r18, 0x01	; 1
    a054:	46 e4       	ldi	r20, 0x46	; 70
    a056:	50 e0       	ldi	r21, 0x00	; 0
    a058:	8c ea       	ldi	r24, 0xAC	; 172
    a05a:	97 e0       	ldi	r25, 0x07	; 7
    a05c:	0e 94 45 69 	call	0xd28a	; 0xd28a <_ZN10class_Wave10setToneGenEjjh>
    a060:	60 91 82 07 	lds	r22, 0x0782	; 0x800782 <_tead+0x308>
    a064:	06 2e       	mov	r0, r22
    a066:	00 0c       	add	r0, r0
    a068:	77 0b       	sbc	r23, r23
    a06a:	80 91 81 07 	lds	r24, 0x0781	; 0x800781 <_tead+0x307>
    a06e:	08 2e       	mov	r0, r24
    a070:	00 0c       	add	r0, r0
    a072:	99 0b       	sbc	r25, r25
    a074:	0e 94 3b 43 	call	0x8676	; 0x8676 <_ZN9class_LED8getPixelEii>
    a078:	81 30       	cpi	r24, 0x01	; 1
    a07a:	09 f4       	brne	.+2      	; 0xa07e <_Z26TEAD_processFireFromCannonv+0xc6>
    a07c:	6d c0       	rjmp	.+218    	; 0xa158 <_Z26TEAD_processFireFromCannonv+0x1a0>
    a07e:	60 91 82 07 	lds	r22, 0x0782	; 0x800782 <_tead+0x308>
    a082:	06 2e       	mov	r0, r22
    a084:	00 0c       	add	r0, r0
    a086:	77 0b       	sbc	r23, r23
    a088:	61 50       	subi	r22, 0x01	; 1
    a08a:	71 09       	sbc	r23, r1
    a08c:	80 91 81 07 	lds	r24, 0x0781	; 0x800781 <_tead+0x307>
    a090:	08 2e       	mov	r0, r24
    a092:	00 0c       	add	r0, r0
    a094:	99 0b       	sbc	r25, r25
    a096:	0e 94 3b 43 	call	0x8676	; 0x8676 <_ZN9class_LED8getPixelEii>
    a09a:	81 30       	cpi	r24, 0x01	; 1
    a09c:	09 f4       	brne	.+2      	; 0xa0a0 <_Z26TEAD_processFireFromCannonv+0xe8>
    a09e:	5c c0       	rjmp	.+184    	; 0xa158 <_Z26TEAD_processFireFromCannonv+0x1a0>
    a0a0:	60 91 82 07 	lds	r22, 0x0782	; 0x800782 <_tead+0x308>
    a0a4:	06 2e       	mov	r0, r22
    a0a6:	00 0c       	add	r0, r0
    a0a8:	77 0b       	sbc	r23, r23
    a0aa:	6f 5f       	subi	r22, 0xFF	; 255
    a0ac:	7f 4f       	sbci	r23, 0xFF	; 255
    a0ae:	80 91 81 07 	lds	r24, 0x0781	; 0x800781 <_tead+0x307>
    a0b2:	08 2e       	mov	r0, r24
    a0b4:	00 0c       	add	r0, r0
    a0b6:	99 0b       	sbc	r25, r25
    a0b8:	0e 94 3b 43 	call	0x8676	; 0x8676 <_ZN9class_LED8getPixelEii>
    a0bc:	81 30       	cpi	r24, 0x01	; 1
    a0be:	c9 f4       	brne	.+50     	; 0xa0f2 <_Z26TEAD_processFireFromCannonv+0x13a>
    a0c0:	4b c0       	rjmp	.+150    	; 0xa158 <_Z26TEAD_processFireFromCannonv+0x1a0>
    a0c2:	25 81       	ldd	r18, Z+5	; 0x05
    a0c4:	21 11       	cpse	r18, r1
    a0c6:	5b c0       	rjmp	.+182    	; 0xa17e <_Z26TEAD_processFireFromCannonv+0x1c6>
    a0c8:	0f 5f       	subi	r16, 0xFF	; 255
    a0ca:	1f 4f       	sbci	r17, 0xFF	; 255
    a0cc:	3a 96       	adiw	r30, 0x0a	; 10
    a0ce:	07 17       	cp	r16, r23
    a0d0:	c0 f3       	brcs	.-16     	; 0xa0c2 <_Z26TEAD_processFireFromCannonv+0x10a>
    a0d2:	ee e6       	ldi	r30, 0x6E	; 110
    a0d4:	f6 e0       	ldi	r31, 0x06	; 6
    a0d6:	20 e0       	ldi	r18, 0x00	; 0
    a0d8:	30 e0       	ldi	r19, 0x00	; 0
    a0da:	62 81       	ldd	r22, Z+2	; 0x02
    a0dc:	61 11       	cpse	r22, r1
    a0de:	b1 c0       	rjmp	.+354    	; 0xa242 <_Z26TEAD_processFireFromCannonv+0x28a>
    a0e0:	2f 5f       	subi	r18, 0xFF	; 255
    a0e2:	3f 4f       	sbci	r19, 0xFF	; 255
    a0e4:	33 96       	adiw	r30, 0x03	; 3
    a0e6:	2e 31       	cpi	r18, 0x1E	; 30
    a0e8:	31 05       	cpc	r19, r1
    a0ea:	b9 f7       	brne	.-18     	; 0xa0da <_Z26TEAD_processFireFromCannonv+0x122>
    a0ec:	92 30       	cpi	r25, 0x02	; 2
    a0ee:	0c f4       	brge	.+2      	; 0xa0f2 <_Z26TEAD_processFireFromCannonv+0x13a>
    a0f0:	c3 c0       	rjmp	.+390    	; 0xa278 <_Z26TEAD_processFireFromCannonv+0x2c0>
    a0f2:	80 91 82 07 	lds	r24, 0x0782	; 0x800782 <_tead+0x308>
    a0f6:	8f 3f       	cpi	r24, 0xFF	; 255
    a0f8:	0c f0       	brlt	.+2      	; 0xa0fc <_Z26TEAD_processFireFromCannonv+0x144>
    a0fa:	fb c0       	rjmp	.+502    	; 0xa2f2 <_Z26TEAD_processFireFromCannonv+0x33a>
    a0fc:	10 92 7a 07 	sts	0x077A, r1	; 0x80077a <_tead+0x300>
    a100:	f8 c0       	rjmp	.+496    	; 0xa2f2 <_Z26TEAD_processFireFromCannonv+0x33a>
    a102:	8d ea       	ldi	r24, 0xAD	; 173
    a104:	97 e0       	ldi	r25, 0x07	; 7
    a106:	0e 94 85 41 	call	0x830a	; 0x830a <_ZN9class_KBD11getKbdStateEv>
    a10a:	c8 2f       	mov	r28, r24
    a10c:	80 91 7e 07 	lds	r24, 0x077E	; 0x80077e <_tead+0x304>
    a110:	88 23       	and	r24, r24
    a112:	49 f0       	breq	.+18     	; 0xa126 <_Z26TEAD_processFireFromCannonv+0x16e>
    a114:	0e 94 4d 6a 	call	0xd49a	; 0xd49a <rand>
    a118:	65 e0       	ldi	r22, 0x05	; 5
    a11a:	70 e0       	ldi	r23, 0x00	; 0
    a11c:	0e 94 78 69 	call	0xd2f0	; 0xd2f0 <__divmodhi4>
    a120:	01 97       	sbiw	r24, 0x01	; 1
    a122:	09 f4       	brne	.+2      	; 0xa126 <_Z26TEAD_processFireFromCannonv+0x16e>
    a124:	c2 e0       	ldi	r28, 0x02	; 2
    a126:	c1 ff       	sbrs	r28, 1
    a128:	e4 c0       	rjmp	.+456    	; 0xa2f2 <_Z26TEAD_processFireFromCannonv+0x33a>
    a12a:	81 e0       	ldi	r24, 0x01	; 1
    a12c:	80 93 7a 07 	sts	0x077A, r24	; 0x80077a <_tead+0x300>
    a130:	80 91 78 07 	lds	r24, 0x0778	; 0x800778 <_tead+0x2fe>
    a134:	80 93 81 07 	sts	0x0781, r24	; 0x800781 <_tead+0x307>
    a138:	8e e0       	ldi	r24, 0x0E	; 14
    a13a:	80 93 82 07 	sts	0x0782, r24	; 0x800782 <_tead+0x308>
    a13e:	80 91 7b 07 	lds	r24, 0x077B	; 0x80077b <_tead+0x301>
    a142:	88 23       	and	r24, r24
    a144:	09 f4       	brne	.+2      	; 0xa148 <_Z26TEAD_processFireFromCannonv+0x190>
    a146:	d5 c0       	rjmp	.+426    	; 0xa2f2 <_Z26TEAD_processFireFromCannonv+0x33a>
    a148:	60 e0       	ldi	r22, 0x00	; 0
    a14a:	81 e0       	ldi	r24, 0x01	; 1
    a14c:	df 91       	pop	r29
    a14e:	cf 91       	pop	r28
    a150:	1f 91       	pop	r17
    a152:	0f 91       	pop	r16
    a154:	0c 94 ac 68 	jmp	0xd158	; 0xd158 <_ZN10class_Wave4PlayE11WaveChannel8PlayMode>
    a158:	70 91 a9 07 	lds	r23, 0x07A9	; 0x8007a9 <_tead+0x32f>
    a15c:	80 91 81 07 	lds	r24, 0x0781	; 0x800781 <_tead+0x307>
    a160:	48 2f       	mov	r20, r24
    a162:	08 2e       	mov	r0, r24
    a164:	00 0c       	add	r0, r0
    a166:	55 0b       	sbc	r21, r21
    a168:	90 91 82 07 	lds	r25, 0x0782	; 0x800782 <_tead+0x308>
    a16c:	a9 2f       	mov	r26, r25
    a16e:	09 2e       	mov	r0, r25
    a170:	00 0c       	add	r0, r0
    a172:	bb 0b       	sbc	r27, r27
    a174:	ea e7       	ldi	r30, 0x7A	; 122
    a176:	f4 e0       	ldi	r31, 0x04	; 4
    a178:	00 e0       	ldi	r16, 0x00	; 0
    a17a:	10 e0       	ldi	r17, 0x00	; 0
    a17c:	a8 cf       	rjmp	.-176    	; 0xa0ce <_Z26TEAD_processFireFromCannonv+0x116>
    a17e:	61 81       	ldd	r22, Z+1	; 0x01
    a180:	c3 81       	ldd	r28, Z+3	; 0x03
    a182:	26 2f       	mov	r18, r22
    a184:	06 2e       	mov	r0, r22
    a186:	00 0c       	add	r0, r0
    a188:	33 0b       	sbc	r19, r19
    a18a:	2c 0f       	add	r18, r28
    a18c:	31 1d       	adc	r19, r1
    a18e:	c7 fd       	sbrc	r28, 7
    a190:	3a 95       	dec	r19
    a192:	42 17       	cp	r20, r18
    a194:	53 07       	cpc	r21, r19
    a196:	0c f0       	brlt	.+2      	; 0xa19a <_Z26TEAD_processFireFromCannonv+0x1e2>
    a198:	97 cf       	rjmp	.-210    	; 0xa0c8 <_Z26TEAD_processFireFromCannonv+0x110>
    a19a:	86 17       	cp	r24, r22
    a19c:	0c f4       	brge	.+2      	; 0xa1a0 <_Z26TEAD_processFireFromCannonv+0x1e8>
    a19e:	94 cf       	rjmp	.-216    	; 0xa0c8 <_Z26TEAD_processFireFromCannonv+0x110>
    a1a0:	62 81       	ldd	r22, Z+2	; 0x02
    a1a2:	c4 81       	ldd	r28, Z+4	; 0x04
    a1a4:	26 2f       	mov	r18, r22
    a1a6:	06 2e       	mov	r0, r22
    a1a8:	00 0c       	add	r0, r0
    a1aa:	33 0b       	sbc	r19, r19
    a1ac:	2c 0f       	add	r18, r28
    a1ae:	31 1d       	adc	r19, r1
    a1b0:	c7 fd       	sbrc	r28, 7
    a1b2:	3a 95       	dec	r19
    a1b4:	a2 17       	cp	r26, r18
    a1b6:	b3 07       	cpc	r27, r19
    a1b8:	0c f0       	brlt	.+2      	; 0xa1bc <_Z26TEAD_processFireFromCannonv+0x204>
    a1ba:	86 cf       	rjmp	.-244    	; 0xa0c8 <_Z26TEAD_processFireFromCannonv+0x110>
    a1bc:	96 17       	cp	r25, r22
    a1be:	0c f4       	brge	.+2      	; 0xa1c2 <_Z26TEAD_processFireFromCannonv+0x20a>
    a1c0:	83 cf       	rjmp	.-250    	; 0xa0c8 <_Z26TEAD_processFireFromCannonv+0x110>
    a1c2:	80 91 7b 07 	lds	r24, 0x077B	; 0x80077b <_tead+0x301>
    a1c6:	88 23       	and	r24, r24
    a1c8:	21 f0       	breq	.+8      	; 0xa1d2 <_Z26TEAD_processFireFromCannonv+0x21a>
    a1ca:	60 e0       	ldi	r22, 0x00	; 0
    a1cc:	82 e0       	ldi	r24, 0x02	; 2
    a1ce:	0e 94 ac 68 	call	0xd158	; 0xd158 <_ZN10class_Wave4PlayE11WaveChannel8PlayMode>
    a1d2:	8a e0       	ldi	r24, 0x0A	; 10
    a1d4:	80 9f       	mul	r24, r16
    a1d6:	e0 01       	movw	r28, r0
    a1d8:	81 9f       	mul	r24, r17
    a1da:	d0 0d       	add	r29, r0
    a1dc:	11 24       	eor	r1, r1
    a1de:	c6 58       	subi	r28, 0x86	; 134
    a1e0:	db 4f       	sbci	r29, 0xFB	; 251
    a1e2:	89 81       	ldd	r24, Y+1	; 0x01
    a1e4:	01 e0       	ldi	r16, 0x01	; 1
    a1e6:	21 e0       	ldi	r18, 0x01	; 1
    a1e8:	42 e0       	ldi	r20, 0x02	; 2
    a1ea:	6a 81       	ldd	r22, Y+2	; 0x02
    a1ec:	8f 5f       	subi	r24, 0xFF	; 255
    a1ee:	0e 94 e0 4e 	call	0x9dc0	; 0x9dc0 <_Z18TEAD_showExplosionaaaba>
    a1f2:	1d 82       	std	Y+5, r1	; 0x05
    a1f4:	10 92 7a 07 	sts	0x077A, r1	; 0x80077a <_tead+0x300>
    a1f8:	8e e0       	ldi	r24, 0x0E	; 14
    a1fa:	80 93 82 07 	sts	0x0782, r24	; 0x800782 <_tead+0x308>
    a1fe:	28 81       	ld	r18, Y
    a200:	80 91 74 07 	lds	r24, 0x0774	; 0x800774 <_tead+0x2fa>
    a204:	90 91 75 07 	lds	r25, 0x0775	; 0x800775 <_tead+0x2fb>
    a208:	21 30       	cpi	r18, 0x01	; 1
    a20a:	39 f0       	breq	.+14     	; 0xa21a <_Z26TEAD_processFireFromCannonv+0x262>
    a20c:	20 f0       	brcs	.+8      	; 0xa216 <_Z26TEAD_processFireFromCannonv+0x25e>
    a20e:	22 30       	cpi	r18, 0x02	; 2
    a210:	49 f4       	brne	.+18     	; 0xa224 <_Z26TEAD_processFireFromCannonv+0x26c>
    a212:	01 96       	adiw	r24, 0x01	; 1
    a214:	03 c0       	rjmp	.+6      	; 0xa21c <_Z26TEAD_processFireFromCannonv+0x264>
    a216:	03 96       	adiw	r24, 0x03	; 3
    a218:	01 c0       	rjmp	.+2      	; 0xa21c <_Z26TEAD_processFireFromCannonv+0x264>
    a21a:	02 96       	adiw	r24, 0x02	; 2
    a21c:	90 93 75 07 	sts	0x0775, r25	; 0x800775 <_tead+0x2fb>
    a220:	80 93 74 07 	sts	0x0774, r24	; 0x800774 <_tead+0x2fa>
    a224:	80 91 74 07 	lds	r24, 0x0774	; 0x800774 <_tead+0x2fa>
    a228:	90 91 75 07 	lds	r25, 0x0775	; 0x800775 <_tead+0x2fb>
    a22c:	80 31       	cpi	r24, 0x10	; 16
    a22e:	97 42       	sbci	r25, 0x27	; 39
    a230:	0c f4       	brge	.+2      	; 0xa234 <_Z26TEAD_processFireFromCannonv+0x27c>
    a232:	5f c0       	rjmp	.+190    	; 0xa2f2 <_Z26TEAD_processFireFromCannonv+0x33a>
    a234:	8f e0       	ldi	r24, 0x0F	; 15
    a236:	97 e2       	ldi	r25, 0x27	; 39
    a238:	90 93 75 07 	sts	0x0775, r25	; 0x800775 <_tead+0x2fb>
    a23c:	80 93 74 07 	sts	0x0774, r24	; 0x800774 <_tead+0x2fa>
    a240:	58 c0       	rjmp	.+176    	; 0xa2f2 <_Z26TEAD_processFireFromCannonv+0x33a>
    a242:	60 81       	ld	r22, Z
    a244:	86 13       	cpse	r24, r22
    a246:	4c cf       	rjmp	.-360    	; 0xa0e0 <_Z26TEAD_processFireFromCannonv+0x128>
    a248:	61 81       	ldd	r22, Z+1	; 0x01
    a24a:	96 13       	cpse	r25, r22
    a24c:	49 cf       	rjmp	.-366    	; 0xa0e0 <_Z26TEAD_processFireFromCannonv+0x128>
    a24e:	f9 01       	movw	r30, r18
    a250:	ee 0f       	add	r30, r30
    a252:	ff 1f       	adc	r31, r31
    a254:	2e 0f       	add	r18, r30
    a256:	3f 1f       	adc	r19, r31
    a258:	f9 01       	movw	r30, r18
    a25a:	e0 59       	subi	r30, 0x90	; 144
    a25c:	f9 4f       	sbci	r31, 0xF9	; 249
    a25e:	10 82       	st	Z, r1
    a260:	10 92 7a 07 	sts	0x077A, r1	; 0x80077a <_tead+0x300>
    a264:	9e e0       	ldi	r25, 0x0E	; 14
    a266:	90 93 82 07 	sts	0x0782, r25	; 0x800782 <_tead+0x308>
    a26a:	01 e0       	ldi	r16, 0x01	; 1
    a26c:	21 e0       	ldi	r18, 0x01	; 1
    a26e:	42 e0       	ldi	r20, 0x02	; 2
    a270:	6e e0       	ldi	r22, 0x0E	; 14
    a272:	0e 94 e0 4e 	call	0x9dc0	; 0x9dc0 <_Z18TEAD_showExplosionaaaba>
    a276:	3d c0       	rjmp	.+122    	; 0xa2f2 <_Z26TEAD_processFireFromCannonv+0x33a>
    a278:	90 91 7f 07 	lds	r25, 0x077F	; 0x80077f <_tead+0x305>
    a27c:	89 17       	cp	r24, r25
    a27e:	0c f4       	brge	.+2      	; 0xa282 <_Z26TEAD_processFireFromCannonv+0x2ca>
    a280:	38 cf       	rjmp	.-400    	; 0xa0f2 <_Z26TEAD_processFireFromCannonv+0x13a>
    a282:	29 2f       	mov	r18, r25
    a284:	09 2e       	mov	r0, r25
    a286:	00 0c       	add	r0, r0
    a288:	33 0b       	sbc	r19, r19
    a28a:	2c 5f       	subi	r18, 0xFC	; 252
    a28c:	3f 4f       	sbci	r19, 0xFF	; 255
    a28e:	24 17       	cp	r18, r20
    a290:	35 07       	cpc	r19, r21
    a292:	0c f4       	brge	.+2      	; 0xa296 <_Z26TEAD_processFireFromCannonv+0x2de>
    a294:	2e cf       	rjmp	.-420    	; 0xa0f2 <_Z26TEAD_processFireFromCannonv+0x13a>
    a296:	10 92 7a 07 	sts	0x077A, r1	; 0x80077a <_tead+0x300>
    a29a:	8e e0       	ldi	r24, 0x0E	; 14
    a29c:	80 93 82 07 	sts	0x0782, r24	; 0x800782 <_tead+0x308>
    a2a0:	03 e0       	ldi	r16, 0x03	; 3
    a2a2:	21 e0       	ldi	r18, 0x01	; 1
    a2a4:	46 e0       	ldi	r20, 0x06	; 6
    a2a6:	60 91 80 07 	lds	r22, 0x0780	; 0x800780 <_tead+0x306>
    a2aa:	82 e0       	ldi	r24, 0x02	; 2
    a2ac:	89 0f       	add	r24, r25
    a2ae:	0e 94 e0 4e 	call	0x9dc0	; 0x9dc0 <_Z18TEAD_showExplosionaaaba>
    a2b2:	88 ef       	ldi	r24, 0xF8	; 248
    a2b4:	80 93 7f 07 	sts	0x077F, r24	; 0x80077f <_tead+0x305>
    a2b8:	10 92 80 07 	sts	0x0780, r1	; 0x800780 <_tead+0x306>
    a2bc:	10 92 7c 07 	sts	0x077C, r1	; 0x80077c <_tead+0x302>
    a2c0:	80 91 74 07 	lds	r24, 0x0774	; 0x800774 <_tead+0x2fa>
    a2c4:	90 91 75 07 	lds	r25, 0x0775	; 0x800775 <_tead+0x2fb>
    a2c8:	0f 96       	adiw	r24, 0x0f	; 15
    a2ca:	80 31       	cpi	r24, 0x10	; 16
    a2cc:	27 e2       	ldi	r18, 0x27	; 39
    a2ce:	92 07       	cpc	r25, r18
    a2d0:	14 f0       	brlt	.+4      	; 0xa2d6 <_Z26TEAD_processFireFromCannonv+0x31e>
    a2d2:	8f e0       	ldi	r24, 0x0F	; 15
    a2d4:	97 e2       	ldi	r25, 0x27	; 39
    a2d6:	90 93 75 07 	sts	0x0775, r25	; 0x800775 <_tead+0x2fb>
    a2da:	80 93 74 07 	sts	0x0774, r24	; 0x800774 <_tead+0x2fa>
    a2de:	6f ee       	ldi	r22, 0xEF	; 239
    a2e0:	76 e0       	ldi	r23, 0x06	; 6
    a2e2:	8f ea       	ldi	r24, 0xAF	; 175
    a2e4:	97 e0       	ldi	r25, 0x07	; 7
    a2e6:	df 91       	pop	r29
    a2e8:	cf 91       	pop	r28
    a2ea:	1f 91       	pop	r17
    a2ec:	0f 91       	pop	r16
    a2ee:	0c 94 3d 66 	jmp	0xcc7a	; 0xcc7a <_ZN11class_Timer10setElapsedERm>
    a2f2:	df 91       	pop	r29
    a2f4:	cf 91       	pop	r28
    a2f6:	1f 91       	pop	r17
    a2f8:	0f 91       	pop	r16
    a2fa:	08 95       	ret

0000a2fc <_Z20SCORES_getFromEEPROMv>:
    a2fc:	0f 93       	push	r16
    a2fe:	1f 93       	push	r17
    a300:	cf 93       	push	r28
    a302:	df 93       	push	r29
    a304:	c7 e8       	ldi	r28, 0x87	; 135
    a306:	d7 e0       	ldi	r29, 0x07	; 7
    a308:	00 e0       	ldi	r16, 0x00	; 0
    a30a:	10 e0       	ldi	r17, 0x00	; 0
    a30c:	43 e0       	ldi	r20, 0x03	; 3
    a30e:	50 e0       	ldi	r21, 0x00	; 0
    a310:	b8 01       	movw	r22, r16
    a312:	ce 01       	movw	r24, r28
    a314:	0e 94 1e 6d 	call	0xda3c	; 0xda3c <eeprom_read_block>
    a318:	c8 01       	movw	r24, r16
    a31a:	03 96       	adiw	r24, 0x03	; 3
    a31c:	0e 94 2e 6d 	call	0xda5c	; 0xda5c <eeprom_read_word>
    a320:	9c 83       	std	Y+4, r25	; 0x04
    a322:	8b 83       	std	Y+3, r24	; 0x03
    a324:	25 96       	adiw	r28, 0x05	; 5
    a326:	0b 5f       	subi	r16, 0xFB	; 251
    a328:	1f 4f       	sbci	r17, 0xFF	; 255
    a32a:	87 e0       	ldi	r24, 0x07	; 7
    a32c:	c0 3a       	cpi	r28, 0xA0	; 160
    a32e:	d8 07       	cpc	r29, r24
    a330:	69 f7       	brne	.-38     	; 0xa30c <_Z20SCORES_getFromEEPROMv+0x10>
    a332:	df 91       	pop	r29
    a334:	cf 91       	pop	r28
    a336:	1f 91       	pop	r17
    a338:	0f 91       	pop	r16
    a33a:	08 95       	ret

0000a33c <_Z15TEAD_drawScoresii>:
    a33c:	7f 92       	push	r7
    a33e:	8f 92       	push	r8
    a340:	9f 92       	push	r9
    a342:	af 92       	push	r10
    a344:	bf 92       	push	r11
    a346:	cf 92       	push	r12
    a348:	df 92       	push	r13
    a34a:	ef 92       	push	r14
    a34c:	ff 92       	push	r15
    a34e:	0f 93       	push	r16
    a350:	1f 93       	push	r17
    a352:	cf 93       	push	r28
    a354:	df 93       	push	r29
    a356:	6c 01       	movw	r12, r24
    a358:	5b 01       	movw	r10, r22
    a35a:	0e 94 f9 45 	call	0x8bf2	; 0x8bf2 <_ZN9class_LED7getFontEv>
    a35e:	78 2e       	mov	r7, r24
    a360:	81 e0       	ldi	r24, 0x01	; 1
    a362:	0e 94 f6 45 	call	0x8bec	; 0x8bec <_ZN9class_LED7setFontE8CharFont>
    a366:	b5 01       	movw	r22, r10
    a368:	c6 01       	movw	r24, r12
    a36a:	0e 94 2f 45 	call	0x8a5e	; 0x8a5e <_ZN9class_LED6moveToEii>
    a36e:	61 e0       	ldi	r22, 0x01	; 1
    a370:	81 ee       	ldi	r24, 0xE1	; 225
    a372:	91 e0       	ldi	r25, 0x01	; 1
    a374:	0e 94 90 47 	call	0x8f20	; 0x8f20 <_ZN9class_LED4putSEPKc5Color>
    a378:	87 e8       	ldi	r24, 0x87	; 135
    a37a:	88 2e       	mov	r8, r24
    a37c:	87 e0       	ldi	r24, 0x07	; 7
    a37e:	98 2e       	mov	r9, r24
    a380:	c0 e0       	ldi	r28, 0x00	; 0
    a382:	d0 e0       	ldi	r29, 0x00	; 0
    a384:	98 ee       	ldi	r25, 0xE8	; 232
    a386:	e9 2e       	mov	r14, r25
    a388:	91 e0       	ldi	r25, 0x01	; 1
    a38a:	f9 2e       	mov	r15, r25
    a38c:	0d ef       	ldi	r16, 0xFD	; 253
    a38e:	16 e0       	ldi	r17, 0x06	; 6
    a390:	0e 94 e9 42 	call	0x85d2	; 0x85d2 <_ZN9class_LED13getCharHeightEv>
    a394:	9c 01       	movw	r18, r24
    a396:	c2 9f       	mul	r28, r18
    a398:	c0 01       	movw	r24, r0
    a39a:	c3 9f       	mul	r28, r19
    a39c:	90 0d       	add	r25, r0
    a39e:	d2 9f       	mul	r29, r18
    a3a0:	90 0d       	add	r25, r0
    a3a2:	11 24       	eor	r1, r1
    a3a4:	bc 01       	movw	r22, r24
    a3a6:	68 5f       	subi	r22, 0xF8	; 248
    a3a8:	7f 4f       	sbci	r23, 0xFF	; 255
    a3aa:	6a 0d       	add	r22, r10
    a3ac:	7b 1d       	adc	r23, r11
    a3ae:	c6 01       	movw	r24, r12
    a3b0:	0e 94 2f 45 	call	0x8a5e	; 0x8a5e <_ZN9class_LED6moveToEii>
    a3b4:	f4 01       	movw	r30, r8
    a3b6:	84 81       	ldd	r24, Z+4	; 0x04
    a3b8:	8f 93       	push	r24
    a3ba:	83 81       	ldd	r24, Z+3	; 0x03
    a3bc:	8f 93       	push	r24
    a3be:	9f 92       	push	r9
    a3c0:	8f 92       	push	r8
    a3c2:	ff 92       	push	r15
    a3c4:	ef 92       	push	r14
    a3c6:	1f 93       	push	r17
    a3c8:	0f 93       	push	r16
    a3ca:	0e 94 6b 6a 	call	0xd4d6	; 0xd4d6 <sprintf>
    a3ce:	61 e0       	ldi	r22, 0x01	; 1
    a3d0:	8d ef       	ldi	r24, 0xFD	; 253
    a3d2:	96 e0       	ldi	r25, 0x06	; 6
    a3d4:	0e 94 90 47 	call	0x8f20	; 0x8f20 <_ZN9class_LED4putSEPKc5Color>
    a3d8:	21 96       	adiw	r28, 0x01	; 1
    a3da:	f5 e0       	ldi	r31, 0x05	; 5
    a3dc:	8f 0e       	add	r8, r31
    a3de:	91 1c       	adc	r9, r1
    a3e0:	2d b7       	in	r18, 0x3d	; 61
    a3e2:	3e b7       	in	r19, 0x3e	; 62
    a3e4:	28 5f       	subi	r18, 0xF8	; 248
    a3e6:	3f 4f       	sbci	r19, 0xFF	; 255
    a3e8:	0f b6       	in	r0, 0x3f	; 63
    a3ea:	f8 94       	cli
    a3ec:	3e bf       	out	0x3e, r19	; 62
    a3ee:	0f be       	out	0x3f, r0	; 63
    a3f0:	2d bf       	out	0x3d, r18	; 61
    a3f2:	c5 30       	cpi	r28, 0x05	; 5
    a3f4:	d1 05       	cpc	r29, r1
    a3f6:	61 f6       	brne	.-104    	; 0xa390 <_Z15TEAD_drawScoresii+0x54>
    a3f8:	0e 94 77 43 	call	0x86ee	; 0x86ee <_ZN9class_LED7refreshEv>
    a3fc:	87 2d       	mov	r24, r7
    a3fe:	df 91       	pop	r29
    a400:	cf 91       	pop	r28
    a402:	1f 91       	pop	r17
    a404:	0f 91       	pop	r16
    a406:	ff 90       	pop	r15
    a408:	ef 90       	pop	r14
    a40a:	df 90       	pop	r13
    a40c:	cf 90       	pop	r12
    a40e:	bf 90       	pop	r11
    a410:	af 90       	pop	r10
    a412:	9f 90       	pop	r9
    a414:	8f 90       	pop	r8
    a416:	7f 90       	pop	r7
    a418:	0c 94 f6 45 	jmp	0x8bec	; 0x8bec <_ZN9class_LED7setFontE8CharFont>

0000a41c <_Z24TEAD_showScoresAnimationv>:
    a41c:	ef 92       	push	r14
    a41e:	ff 92       	push	r15
    a420:	0f 93       	push	r16
    a422:	1f 93       	push	r17
    a424:	cf 93       	push	r28
    a426:	0e 94 f9 45 	call	0x8bf2	; 0x8bf2 <_ZN9class_LED7getFontEv>
    a42a:	c8 2f       	mov	r28, r24
    a42c:	81 e0       	ldi	r24, 0x01	; 1
    a42e:	0e 94 f6 45 	call	0x8bec	; 0x8bec <_ZN9class_LED7setFontE8CharFont>
    a432:	0e 94 7e 51 	call	0xa2fc	; 0xa2fc <_Z20SCORES_getFromEEPROMv>
    a436:	15 e0       	ldi	r17, 0x05	; 5
    a438:	80 91 7b 07 	lds	r24, 0x077B	; 0x80077b <_tead+0x301>
    a43c:	88 23       	and	r24, r24
    a43e:	21 f0       	breq	.+8      	; 0xa448 <_Z24TEAD_showScoresAnimationv+0x2c>
    a440:	60 e0       	ldi	r22, 0x00	; 0
    a442:	84 e0       	ldi	r24, 0x04	; 4
    a444:	0e 94 ac 68 	call	0xd158	; 0xd158 <_ZN10class_Wave4PlayE11WaveChannel8PlayMode>
    a448:	80 e0       	ldi	r24, 0x00	; 0
    a44a:	0e 94 46 42 	call	0x848c	; 0x848c <_ZN9class_LED3clsEb>
    a44e:	60 e0       	ldi	r22, 0x00	; 0
    a450:	70 e0       	ldi	r23, 0x00	; 0
    a452:	80 e0       	ldi	r24, 0x00	; 0
    a454:	90 e0       	ldi	r25, 0x00	; 0
    a456:	0e 94 9e 51 	call	0xa33c	; 0xa33c <_Z15TEAD_drawScoresii>
    a45a:	8a ef       	ldi	r24, 0xFA	; 250
    a45c:	90 e0       	ldi	r25, 0x00	; 0
    a45e:	0e 94 98 4a 	call	0x9530	; 0x9530 <_Z13TEAD_delayKeyj>
    a462:	81 11       	cpse	r24, r1
    a464:	8d c0       	rjmp	.+282    	; 0xa580 <_Z24TEAD_showScoresAnimationv+0x164>
    a466:	81 e0       	ldi	r24, 0x01	; 1
    a468:	0e 94 8a 43 	call	0x8714	; 0x8714 <_ZN9class_LED11setFillModeEb>
    a46c:	00 e0       	ldi	r16, 0x00	; 0
    a46e:	28 e0       	ldi	r18, 0x08	; 8
    a470:	30 e0       	ldi	r19, 0x00	; 0
    a472:	48 e1       	ldi	r20, 0x18	; 24
    a474:	50 e0       	ldi	r21, 0x00	; 0
    a476:	60 e0       	ldi	r22, 0x00	; 0
    a478:	70 e0       	ldi	r23, 0x00	; 0
    a47a:	80 e0       	ldi	r24, 0x00	; 0
    a47c:	90 e0       	ldi	r25, 0x00	; 0
    a47e:	0e 94 91 45 	call	0x8b22	; 0x8b22 <_ZN9class_LED9rectangleEiiii5Color>
    a482:	0e 94 77 43 	call	0x86ee	; 0x86ee <_ZN9class_LED7refreshEv>
    a486:	86 e9       	ldi	r24, 0x96	; 150
    a488:	90 e0       	ldi	r25, 0x00	; 0
    a48a:	0e 94 98 4a 	call	0x9530	; 0x9530 <_Z13TEAD_delayKeyj>
    a48e:	81 11       	cpse	r24, r1
    a490:	77 c0       	rjmp	.+238    	; 0xa580 <_Z24TEAD_showScoresAnimationv+0x164>
    a492:	11 50       	subi	r17, 0x01	; 1
    a494:	89 f6       	brne	.-94     	; 0xa438 <_Z24TEAD_showScoresAnimationv+0x1c>
    a496:	80 e0       	ldi	r24, 0x00	; 0
    a498:	0e 94 46 42 	call	0x848c	; 0x848c <_ZN9class_LED3clsEb>
    a49c:	60 e0       	ldi	r22, 0x00	; 0
    a49e:	70 e0       	ldi	r23, 0x00	; 0
    a4a0:	80 e0       	ldi	r24, 0x00	; 0
    a4a2:	90 e0       	ldi	r25, 0x00	; 0
    a4a4:	0e 94 9e 51 	call	0xa33c	; 0xa33c <_Z15TEAD_drawScoresii>
    a4a8:	48 ee       	ldi	r20, 0xE8	; 232
    a4aa:	53 e0       	ldi	r21, 0x03	; 3
    a4ac:	60 e0       	ldi	r22, 0x00	; 0
    a4ae:	70 e0       	ldi	r23, 0x00	; 0
    a4b0:	8f ea       	ldi	r24, 0xAF	; 175
    a4b2:	97 e0       	ldi	r25, 0x07	; 7
    a4b4:	0e 94 5d 66 	call	0xccba	; 0xccba <_ZN11class_Timer17delayMillisecondsEm>
    a4b8:	00 e0       	ldi	r16, 0x00	; 0
    a4ba:	10 e0       	ldi	r17, 0x00	; 0
    a4bc:	0e 94 e9 42 	call	0x85d2	; 0x85d2 <_ZN9class_LED13getCharHeightEv>
    a4c0:	88 0f       	add	r24, r24
    a4c2:	99 1f       	adc	r25, r25
    a4c4:	88 0f       	add	r24, r24
    a4c6:	99 1f       	adc	r25, r25
    a4c8:	08 17       	cp	r16, r24
    a4ca:	19 07       	cpc	r17, r25
    a4cc:	8c f5       	brge	.+98     	; 0xa530 <_Z24TEAD_showScoresAnimationv+0x114>
    a4ce:	78 01       	movw	r14, r16
    a4d0:	0e 94 e9 42 	call	0x85d2	; 0x85d2 <_ZN9class_LED13getCharHeightEv>
    a4d4:	80 0f       	add	r24, r16
    a4d6:	91 1f       	adc	r25, r17
    a4d8:	01 97       	sbiw	r24, 0x01	; 1
    a4da:	e8 16       	cp	r14, r24
    a4dc:	f9 06       	cpc	r15, r25
    a4de:	ec f4       	brge	.+58     	; 0xa51a <_Z24TEAD_showScoresAnimationv+0xfe>
    a4e0:	80 e0       	ldi	r24, 0x00	; 0
    a4e2:	0e 94 46 42 	call	0x848c	; 0x848c <_ZN9class_LED3clsEb>
    a4e6:	66 27       	eor	r22, r22
    a4e8:	77 27       	eor	r23, r23
    a4ea:	6e 19       	sub	r22, r14
    a4ec:	7f 09       	sbc	r23, r15
    a4ee:	80 e0       	ldi	r24, 0x00	; 0
    a4f0:	90 e0       	ldi	r25, 0x00	; 0
    a4f2:	0e 94 9e 51 	call	0xa33c	; 0xa33c <_Z15TEAD_drawScoresii>
    a4f6:	80 91 7b 07 	lds	r24, 0x077B	; 0x80077b <_tead+0x301>
    a4fa:	88 23       	and	r24, r24
    a4fc:	21 f0       	breq	.+8      	; 0xa506 <_Z24TEAD_showScoresAnimationv+0xea>
    a4fe:	60 e0       	ldi	r22, 0x00	; 0
    a500:	82 e0       	ldi	r24, 0x02	; 2
    a502:	0e 94 ac 68 	call	0xd158	; 0xd158 <_ZN10class_Wave4PlayE11WaveChannel8PlayMode>
    a506:	84 e6       	ldi	r24, 0x64	; 100
    a508:	90 e0       	ldi	r25, 0x00	; 0
    a50a:	0e 94 98 4a 	call	0x9530	; 0x9530 <_Z13TEAD_delayKeyj>
    a50e:	81 11       	cpse	r24, r1
    a510:	37 c0       	rjmp	.+110    	; 0xa580 <_Z24TEAD_showScoresAnimationv+0x164>
    a512:	2f ef       	ldi	r18, 0xFF	; 255
    a514:	e2 1a       	sub	r14, r18
    a516:	f2 0a       	sbc	r15, r18
    a518:	db cf       	rjmp	.-74     	; 0xa4d0 <_Z24TEAD_showScoresAnimationv+0xb4>
    a51a:	88 ee       	ldi	r24, 0xE8	; 232
    a51c:	93 e0       	ldi	r25, 0x03	; 3
    a51e:	0e 94 98 4a 	call	0x9530	; 0x9530 <_Z13TEAD_delayKeyj>
    a522:	81 11       	cpse	r24, r1
    a524:	2d c0       	rjmp	.+90     	; 0xa580 <_Z24TEAD_showScoresAnimationv+0x164>
    a526:	0e 94 e9 42 	call	0x85d2	; 0x85d2 <_ZN9class_LED13getCharHeightEv>
    a52a:	08 0f       	add	r16, r24
    a52c:	19 1f       	adc	r17, r25
    a52e:	c6 cf       	rjmp	.-116    	; 0xa4bc <_Z24TEAD_showScoresAnimationv+0xa0>
    a530:	0e 94 e9 42 	call	0x85d2	; 0x85d2 <_ZN9class_LED13getCharHeightEv>
    a534:	88 0f       	add	r24, r24
    a536:	99 1f       	adc	r25, r25
    a538:	88 0f       	add	r24, r24
    a53a:	99 1f       	adc	r25, r25
    a53c:	7c 01       	movw	r14, r24
    a53e:	21 e0       	ldi	r18, 0x01	; 1
    a540:	e2 1a       	sub	r14, r18
    a542:	f1 08       	sbc	r15, r1
    a544:	01 e0       	ldi	r16, 0x01	; 1
    a546:	10 e0       	ldi	r17, 0x00	; 0
    a548:	08 1b       	sub	r16, r24
    a54a:	19 0b       	sbc	r17, r25
    a54c:	f7 fc       	sbrc	r15, 7
    a54e:	14 c0       	rjmp	.+40     	; 0xa578 <_Z24TEAD_showScoresAnimationv+0x15c>
    a550:	80 e0       	ldi	r24, 0x00	; 0
    a552:	0e 94 46 42 	call	0x848c	; 0x848c <_ZN9class_LED3clsEb>
    a556:	b8 01       	movw	r22, r16
    a558:	80 e0       	ldi	r24, 0x00	; 0
    a55a:	90 e0       	ldi	r25, 0x00	; 0
    a55c:	0e 94 9e 51 	call	0xa33c	; 0xa33c <_Z15TEAD_drawScoresii>
    a560:	84 e6       	ldi	r24, 0x64	; 100
    a562:	90 e0       	ldi	r25, 0x00	; 0
    a564:	0e 94 98 4a 	call	0x9530	; 0x9530 <_Z13TEAD_delayKeyj>
    a568:	0f 5f       	subi	r16, 0xFF	; 255
    a56a:	1f 4f       	sbci	r17, 0xFF	; 255
    a56c:	81 11       	cpse	r24, r1
    a56e:	08 c0       	rjmp	.+16     	; 0xa580 <_Z24TEAD_showScoresAnimationv+0x164>
    a570:	81 e0       	ldi	r24, 0x01	; 1
    a572:	e8 1a       	sub	r14, r24
    a574:	f1 08       	sbc	r15, r1
    a576:	ea cf       	rjmp	.-44     	; 0xa54c <_Z24TEAD_showScoresAnimationv+0x130>
    a578:	88 ee       	ldi	r24, 0xE8	; 232
    a57a:	93 e0       	ldi	r25, 0x03	; 3
    a57c:	0e 94 98 4a 	call	0x9530	; 0x9530 <_Z13TEAD_delayKeyj>
    a580:	8c 2f       	mov	r24, r28
    a582:	cf 91       	pop	r28
    a584:	1f 91       	pop	r17
    a586:	0f 91       	pop	r16
    a588:	ff 90       	pop	r15
    a58a:	ef 90       	pop	r14
    a58c:	0c 94 f6 45 	jmp	0x8bec	; 0x8bec <_ZN9class_LED7setFontE8CharFont>

0000a590 <_Z16TEAD_showCurtainv>:
    a590:	cf 93       	push	r28
    a592:	df 93       	push	r29
    a594:	81 e0       	ldi	r24, 0x01	; 1
    a596:	0e 94 8a 43 	call	0x8714	; 0x8714 <_ZN9class_LED11setFillModeEb>
    a59a:	c0 e0       	ldi	r28, 0x00	; 0
    a59c:	d0 e0       	ldi	r29, 0x00	; 0
    a59e:	21 e0       	ldi	r18, 0x01	; 1
    a5a0:	ae 01       	movw	r20, r28
    a5a2:	68 e0       	ldi	r22, 0x08	; 8
    a5a4:	70 e0       	ldi	r23, 0x00	; 0
    a5a6:	8c e0       	ldi	r24, 0x0C	; 12
    a5a8:	90 e0       	ldi	r25, 0x00	; 0
    a5aa:	0e 94 36 45 	call	0x8a6c	; 0x8a6c <_ZN9class_LED6circleEiii5Color>
    a5ae:	20 e0       	ldi	r18, 0x00	; 0
    a5b0:	ae 01       	movw	r20, r28
    a5b2:	48 50       	subi	r20, 0x08	; 8
    a5b4:	51 09       	sbc	r21, r1
    a5b6:	68 e0       	ldi	r22, 0x08	; 8
    a5b8:	70 e0       	ldi	r23, 0x00	; 0
    a5ba:	8c e0       	ldi	r24, 0x0C	; 12
    a5bc:	90 e0       	ldi	r25, 0x00	; 0
    a5be:	0e 94 36 45 	call	0x8a6c	; 0x8a6c <_ZN9class_LED6circleEiii5Color>
    a5c2:	80 91 7b 07 	lds	r24, 0x077B	; 0x80077b <_tead+0x301>
    a5c6:	88 23       	and	r24, r24
    a5c8:	21 f0       	breq	.+8      	; 0xa5d2 <_Z16TEAD_showCurtainv+0x42>
    a5ca:	60 e0       	ldi	r22, 0x00	; 0
    a5cc:	85 e0       	ldi	r24, 0x05	; 5
    a5ce:	0e 94 ac 68 	call	0xd158	; 0xd158 <_ZN10class_Wave4PlayE11WaveChannel8PlayMode>
    a5d2:	0e 94 77 43 	call	0x86ee	; 0x86ee <_ZN9class_LED7refreshEv>
    a5d6:	42 e3       	ldi	r20, 0x32	; 50
    a5d8:	50 e0       	ldi	r21, 0x00	; 0
    a5da:	60 e0       	ldi	r22, 0x00	; 0
    a5dc:	70 e0       	ldi	r23, 0x00	; 0
    a5de:	8f ea       	ldi	r24, 0xAF	; 175
    a5e0:	97 e0       	ldi	r25, 0x07	; 7
    a5e2:	0e 94 5d 66 	call	0xccba	; 0xccba <_ZN11class_Timer17delayMillisecondsEm>
    a5e6:	21 96       	adiw	r28, 0x01	; 1
    a5e8:	c8 31       	cpi	r28, 0x18	; 24
    a5ea:	d1 05       	cpc	r29, r1
    a5ec:	c1 f6       	brne	.-80     	; 0xa59e <_Z16TEAD_showCurtainv+0xe>
    a5ee:	80 e0       	ldi	r24, 0x00	; 0
    a5f0:	df 91       	pop	r29
    a5f2:	cf 91       	pop	r28
    a5f4:	0c 94 8a 43 	jmp	0x8714	; 0x8714 <_ZN9class_LED11setFillModeEb>

0000a5f8 <_Z19TEAD_getShipsAlivesv>:
    a5f8:	1f 93       	push	r17
    a5fa:	cf 93       	push	r28
    a5fc:	df 93       	push	r29
    a5fe:	0e 94 8d 43 	call	0x871a	; 0x871a <_ZN9class_LED11getFillModeEv>
    a602:	d8 2f       	mov	r29, r24
    a604:	0e 94 f9 45 	call	0x8bf2	; 0x8bf2 <_ZN9class_LED7getFontEv>
    a608:	18 2f       	mov	r17, r24
    a60a:	90 91 a9 07 	lds	r25, 0x07A9	; 0x8007a9 <_tead+0x32f>
    a60e:	ea e7       	ldi	r30, 0x7A	; 122
    a610:	f4 e0       	ldi	r31, 0x04	; 4
    a612:	80 e0       	ldi	r24, 0x00	; 0
    a614:	c0 e0       	ldi	r28, 0x00	; 0
    a616:	89 17       	cp	r24, r25
    a618:	31 f0       	breq	.+12     	; 0xa626 <_Z19TEAD_getShipsAlivesv+0x2e>
    a61a:	25 81       	ldd	r18, Z+5	; 0x05
    a61c:	21 11       	cpse	r18, r1
    a61e:	cf 5f       	subi	r28, 0xFF	; 255
    a620:	8f 5f       	subi	r24, 0xFF	; 255
    a622:	3a 96       	adiw	r30, 0x0a	; 10
    a624:	f8 cf       	rjmp	.-16     	; 0xa616 <_Z19TEAD_getShipsAlivesv+0x1e>
    a626:	c1 11       	cpse	r28, r1
    a628:	4e c0       	rjmp	.+156    	; 0xa6c6 <_Z19TEAD_getShipsAlivesv+0xce>
    a62a:	80 91 76 07 	lds	r24, 0x0776	; 0x800776 <_tead+0x2fc>
    a62e:	8f 5f       	subi	r24, 0xFF	; 255
    a630:	80 93 76 07 	sts	0x0776, r24	; 0x800776 <_tead+0x2fc>
    a634:	0e 94 c8 52 	call	0xa590	; 0xa590 <_Z16TEAD_showCurtainv>
    a638:	80 91 7b 07 	lds	r24, 0x077B	; 0x80077b <_tead+0x301>
    a63c:	88 23       	and	r24, r24
    a63e:	21 f0       	breq	.+8      	; 0xa648 <_Z19TEAD_getShipsAlivesv+0x50>
    a640:	60 e0       	ldi	r22, 0x00	; 0
    a642:	84 e0       	ldi	r24, 0x04	; 4
    a644:	0e 94 ac 68 	call	0xd158	; 0xd158 <_ZN10class_Wave4PlayE11WaveChannel8PlayMode>
    a648:	81 e0       	ldi	r24, 0x01	; 1
    a64a:	0e 94 f6 45 	call	0x8bec	; 0x8bec <_ZN9class_LED7setFontE8CharFont>
    a64e:	80 e0       	ldi	r24, 0x00	; 0
    a650:	0e 94 46 42 	call	0x848c	; 0x848c <_ZN9class_LED3clsEb>
    a654:	62 e0       	ldi	r22, 0x02	; 2
    a656:	70 e0       	ldi	r23, 0x00	; 0
    a658:	82 e0       	ldi	r24, 0x02	; 2
    a65a:	90 e0       	ldi	r25, 0x00	; 0
    a65c:	0e 94 2f 45 	call	0x8a5e	; 0x8a5e <_ZN9class_LED6moveToEii>
    a660:	61 e0       	ldi	r22, 0x01	; 1
    a662:	8f ee       	ldi	r24, 0xEF	; 239
    a664:	91 e0       	ldi	r25, 0x01	; 1
    a666:	0e 94 90 47 	call	0x8f20	; 0x8f20 <_ZN9class_LED4putSEPKc5Color>
    a66a:	68 e0       	ldi	r22, 0x08	; 8
    a66c:	70 e0       	ldi	r23, 0x00	; 0
    a66e:	89 e0       	ldi	r24, 0x09	; 9
    a670:	90 e0       	ldi	r25, 0x00	; 0
    a672:	0e 94 2f 45 	call	0x8a5e	; 0x8a5e <_ZN9class_LED6moveToEii>
    a676:	80 91 76 07 	lds	r24, 0x0776	; 0x800776 <_tead+0x2fc>
    a67a:	1f 92       	push	r1
    a67c:	8f 93       	push	r24
    a67e:	89 eb       	ldi	r24, 0xB9	; 185
    a680:	92 e0       	ldi	r25, 0x02	; 2
    a682:	9f 93       	push	r25
    a684:	8f 93       	push	r24
    a686:	8d ef       	ldi	r24, 0xFD	; 253
    a688:	96 e0       	ldi	r25, 0x06	; 6
    a68a:	9f 93       	push	r25
    a68c:	8f 93       	push	r24
    a68e:	0e 94 6b 6a 	call	0xd4d6	; 0xd4d6 <sprintf>
    a692:	61 e0       	ldi	r22, 0x01	; 1
    a694:	8d ef       	ldi	r24, 0xFD	; 253
    a696:	96 e0       	ldi	r25, 0x06	; 6
    a698:	0e 94 90 47 	call	0x8f20	; 0x8f20 <_ZN9class_LED4putSEPKc5Color>
    a69c:	0e 94 77 43 	call	0x86ee	; 0x86ee <_ZN9class_LED7refreshEv>
    a6a0:	40 ed       	ldi	r20, 0xD0	; 208
    a6a2:	57 e0       	ldi	r21, 0x07	; 7
    a6a4:	60 e0       	ldi	r22, 0x00	; 0
    a6a6:	70 e0       	ldi	r23, 0x00	; 0
    a6a8:	8f ea       	ldi	r24, 0xAF	; 175
    a6aa:	97 e0       	ldi	r25, 0x07	; 7
    a6ac:	0e 94 5d 66 	call	0xccba	; 0xccba <_ZN11class_Timer17delayMillisecondsEm>
    a6b0:	40 e0       	ldi	r20, 0x00	; 0
    a6b2:	60 e0       	ldi	r22, 0x00	; 0
    a6b4:	80 e0       	ldi	r24, 0x00	; 0
    a6b6:	0e 94 fd 4d 	call	0x9bfa	; 0x9bfa <_Z19TEAD_initializeGamebbb>
    a6ba:	0f 90       	pop	r0
    a6bc:	0f 90       	pop	r0
    a6be:	0f 90       	pop	r0
    a6c0:	0f 90       	pop	r0
    a6c2:	0f 90       	pop	r0
    a6c4:	0f 90       	pop	r0
    a6c6:	81 2f       	mov	r24, r17
    a6c8:	0e 94 f6 45 	call	0x8bec	; 0x8bec <_ZN9class_LED7setFontE8CharFont>
    a6cc:	8d 2f       	mov	r24, r29
    a6ce:	0e 94 8a 43 	call	0x8714	; 0x8714 <_ZN9class_LED11setFillModeEb>
    a6d2:	8c 2f       	mov	r24, r28
    a6d4:	df 91       	pop	r29
    a6d6:	cf 91       	pop	r28
    a6d8:	1f 91       	pop	r17
    a6da:	08 95       	ret

0000a6dc <_Z28TEAD_processShipsHitBarriersv>:
    a6dc:	50 91 a9 07 	lds	r21, 0x07A9	; 0x8007a9 <_tead+0x32f>
    a6e0:	ee e6       	ldi	r30, 0x6E	; 110
    a6e2:	f6 e0       	ldi	r31, 0x06	; 6
    a6e4:	82 81       	ldd	r24, Z+2	; 0x02
    a6e6:	88 23       	and	r24, r24
    a6e8:	71 f1       	breq	.+92     	; 0xa746 <_Z28TEAD_processShipsHitBarriersv+0x6a>
    a6ea:	aa e7       	ldi	r26, 0x7A	; 122
    a6ec:	b4 e0       	ldi	r27, 0x04	; 4
    a6ee:	40 e0       	ldi	r20, 0x00	; 0
    a6f0:	45 17       	cp	r20, r21
    a6f2:	49 f1       	breq	.+82     	; 0xa746 <_Z28TEAD_processShipsHitBarriersv+0x6a>
    a6f4:	15 96       	adiw	r26, 0x05	; 5
    a6f6:	8c 91       	ld	r24, X
    a6f8:	15 97       	sbiw	r26, 0x05	; 5
    a6fa:	88 23       	and	r24, r24
    a6fc:	09 f1       	breq	.+66     	; 0xa740 <_Z28TEAD_processShipsHitBarriersv+0x64>
    a6fe:	20 81       	ld	r18, Z
    a700:	11 96       	adiw	r26, 0x01	; 1
    a702:	8c 91       	ld	r24, X
    a704:	11 97       	sbiw	r26, 0x01	; 1
    a706:	28 17       	cp	r18, r24
    a708:	dc f0       	brlt	.+54     	; 0xa740 <_Z28TEAD_processShipsHitBarriersv+0x64>
    a70a:	02 2e       	mov	r0, r18
    a70c:	00 0c       	add	r0, r0
    a70e:	33 0b       	sbc	r19, r19
    a710:	08 2e       	mov	r0, r24
    a712:	00 0c       	add	r0, r0
    a714:	99 0b       	sbc	r25, r25
    a716:	02 96       	adiw	r24, 0x02	; 2
    a718:	82 17       	cp	r24, r18
    a71a:	93 07       	cpc	r25, r19
    a71c:	8c f0       	brlt	.+34     	; 0xa740 <_Z28TEAD_processShipsHitBarriersv+0x64>
    a71e:	21 81       	ldd	r18, Z+1	; 0x01
    a720:	12 96       	adiw	r26, 0x02	; 2
    a722:	8c 91       	ld	r24, X
    a724:	12 97       	sbiw	r26, 0x02	; 2
    a726:	28 17       	cp	r18, r24
    a728:	5c f0       	brlt	.+22     	; 0xa740 <_Z28TEAD_processShipsHitBarriersv+0x64>
    a72a:	02 2e       	mov	r0, r18
    a72c:	00 0c       	add	r0, r0
    a72e:	33 0b       	sbc	r19, r19
    a730:	08 2e       	mov	r0, r24
    a732:	00 0c       	add	r0, r0
    a734:	99 0b       	sbc	r25, r25
    a736:	01 96       	adiw	r24, 0x01	; 1
    a738:	82 17       	cp	r24, r18
    a73a:	93 07       	cpc	r25, r19
    a73c:	0c f0       	brlt	.+2      	; 0xa740 <_Z28TEAD_processShipsHitBarriersv+0x64>
    a73e:	12 82       	std	Z+2, r1	; 0x02
    a740:	4f 5f       	subi	r20, 0xFF	; 255
    a742:	1a 96       	adiw	r26, 0x0a	; 10
    a744:	d5 cf       	rjmp	.-86     	; 0xa6f0 <_Z28TEAD_processShipsHitBarriersv+0x14>
    a746:	33 96       	adiw	r30, 0x03	; 3
    a748:	86 e0       	ldi	r24, 0x06	; 6
    a74a:	e8 3c       	cpi	r30, 0xC8	; 200
    a74c:	f8 07       	cpc	r31, r24
    a74e:	51 f6       	brne	.-108    	; 0xa6e4 <_Z28TEAD_processShipsHitBarriersv+0x8>
    a750:	08 95       	ret

0000a752 <_Z35TEAD_processMotherShipAppearAndMovev>:
    a752:	80 91 7c 07 	lds	r24, 0x077C	; 0x80077c <_tead+0x302>
    a756:	88 23       	and	r24, r24
    a758:	b1 f1       	breq	.+108    	; 0xa7c6 <_Z35TEAD_processMotherShipAppearAndMovev+0x74>
    a75a:	63 ef       	ldi	r22, 0xF3	; 243
    a75c:	76 e0       	ldi	r23, 0x06	; 6
    a75e:	8f ea       	ldi	r24, 0xAF	; 175
    a760:	97 e0       	ldi	r25, 0x07	; 7
    a762:	0e 94 49 66 	call	0xcc92	; 0xcc92 <_ZN11class_Timer10getElapsedERm>
    a766:	61 35       	cpi	r22, 0x51	; 81
    a768:	71 05       	cpc	r23, r1
    a76a:	81 05       	cpc	r24, r1
    a76c:	91 05       	cpc	r25, r1
    a76e:	08 f4       	brcc	.+2      	; 0xa772 <_Z35TEAD_processMotherShipAppearAndMovev+0x20>
    a770:	47 c0       	rjmp	.+142    	; 0xa800 <_Z35TEAD_processMotherShipAppearAndMovev+0xae>
    a772:	63 ef       	ldi	r22, 0xF3	; 243
    a774:	76 e0       	ldi	r23, 0x06	; 6
    a776:	8f ea       	ldi	r24, 0xAF	; 175
    a778:	97 e0       	ldi	r25, 0x07	; 7
    a77a:	0e 94 3d 66 	call	0xcc7a	; 0xcc7a <_ZN11class_Timer10setElapsedERm>
    a77e:	80 91 7b 07 	lds	r24, 0x077B	; 0x80077b <_tead+0x301>
    a782:	88 23       	and	r24, r24
    a784:	89 f0       	breq	.+34     	; 0xa7a8 <_Z35TEAD_processMotherShipAppearAndMovev+0x56>
    a786:	23 e0       	ldi	r18, 0x03	; 3
    a788:	40 e5       	ldi	r20, 0x50	; 80
    a78a:	50 e0       	ldi	r21, 0x00	; 0
    a78c:	6c ed       	ldi	r22, 0xDC	; 220
    a78e:	75 e0       	ldi	r23, 0x05	; 5
    a790:	8c ea       	ldi	r24, 0xAC	; 172
    a792:	97 e0       	ldi	r25, 0x07	; 7
    a794:	0e 94 45 69 	call	0xd28a	; 0xd28a <_ZN10class_Wave10setToneGenEjjh>
    a798:	80 91 7b 07 	lds	r24, 0x077B	; 0x80077b <_tead+0x301>
    a79c:	88 23       	and	r24, r24
    a79e:	21 f0       	breq	.+8      	; 0xa7a8 <_Z35TEAD_processMotherShipAppearAndMovev+0x56>
    a7a0:	60 e0       	ldi	r22, 0x00	; 0
    a7a2:	84 e0       	ldi	r24, 0x04	; 4
    a7a4:	0e 94 ac 68 	call	0xd158	; 0xd158 <_ZN10class_Wave4PlayE11WaveChannel8PlayMode>
    a7a8:	80 91 7f 07 	lds	r24, 0x077F	; 0x80077f <_tead+0x305>
    a7ac:	8f 5f       	subi	r24, 0xFF	; 255
    a7ae:	80 93 7f 07 	sts	0x077F, r24	; 0x80077f <_tead+0x305>
    a7b2:	88 31       	cpi	r24, 0x18	; 24
    a7b4:	2c f1       	brlt	.+74     	; 0xa800 <_Z35TEAD_processMotherShipAppearAndMovev+0xae>
    a7b6:	10 92 7c 07 	sts	0x077C, r1	; 0x80077c <_tead+0x302>
    a7ba:	6f ee       	ldi	r22, 0xEF	; 239
    a7bc:	76 e0       	ldi	r23, 0x06	; 6
    a7be:	8f ea       	ldi	r24, 0xAF	; 175
    a7c0:	97 e0       	ldi	r25, 0x07	; 7
    a7c2:	0c 94 3d 66 	jmp	0xcc7a	; 0xcc7a <_ZN11class_Timer10setElapsedERm>
    a7c6:	6f ee       	ldi	r22, 0xEF	; 239
    a7c8:	76 e0       	ldi	r23, 0x06	; 6
    a7ca:	8f ea       	ldi	r24, 0xAF	; 175
    a7cc:	97 e0       	ldi	r25, 0x07	; 7
    a7ce:	0e 94 49 66 	call	0xcc92	; 0xcc92 <_ZN11class_Timer10getElapsedERm>
    a7d2:	61 34       	cpi	r22, 0x41	; 65
    a7d4:	7f 41       	sbci	r23, 0x1F	; 31
    a7d6:	81 05       	cpc	r24, r1
    a7d8:	91 05       	cpc	r25, r1
    a7da:	90 f0       	brcs	.+36     	; 0xa800 <_Z35TEAD_processMotherShipAppearAndMovev+0xae>
    a7dc:	63 ef       	ldi	r22, 0xF3	; 243
    a7de:	76 e0       	ldi	r23, 0x06	; 6
    a7e0:	8f ea       	ldi	r24, 0xAF	; 175
    a7e2:	97 e0       	ldi	r25, 0x07	; 7
    a7e4:	0e 94 3d 66 	call	0xcc7a	; 0xcc7a <_ZN11class_Timer10setElapsedERm>
    a7e8:	0e 94 69 4d 	call	0x9ad2	; 0x9ad2 <_Z17TEAD_getShipsMinYv>
    a7ec:	82 30       	cpi	r24, 0x02	; 2
    a7ee:	44 f0       	brlt	.+16     	; 0xa800 <_Z35TEAD_processMotherShipAppearAndMovev+0xae>
    a7f0:	81 e0       	ldi	r24, 0x01	; 1
    a7f2:	80 93 7c 07 	sts	0x077C, r24	; 0x80077c <_tead+0x302>
    a7f6:	88 ef       	ldi	r24, 0xF8	; 248
    a7f8:	80 93 7f 07 	sts	0x077F, r24	; 0x80077f <_tead+0x305>
    a7fc:	10 92 80 07 	sts	0x0780, r1	; 0x800780 <_tead+0x306>
    a800:	08 95       	ret

0000a802 <_Z16COBRA_plotNewDotRaS_>:
    a802:	bf 92       	push	r11
    a804:	cf 92       	push	r12
    a806:	df 92       	push	r13
    a808:	ef 92       	push	r14
    a80a:	ff 92       	push	r15
    a80c:	0f 93       	push	r16
    a80e:	1f 93       	push	r17
    a810:	cf 93       	push	r28
    a812:	df 93       	push	r29
    a814:	8c 01       	movw	r16, r24
    a816:	eb 01       	movw	r28, r22
    a818:	56 e1       	ldi	r21, 0x16	; 22
    a81a:	e5 2e       	mov	r14, r21
    a81c:	f1 2c       	mov	r15, r1
    a81e:	6e e0       	ldi	r22, 0x0E	; 14
    a820:	c6 2e       	mov	r12, r22
    a822:	d1 2c       	mov	r13, r1
    a824:	0e 94 4d 6a 	call	0xd49a	; 0xd49a <rand>
    a828:	b7 01       	movw	r22, r14
    a82a:	0e 94 78 69 	call	0xd2f0	; 0xd2f0 <__divmodhi4>
    a82e:	bb 24       	eor	r11, r11
    a830:	b3 94       	inc	r11
    a832:	b8 0e       	add	r11, r24
    a834:	0e 94 4d 6a 	call	0xd49a	; 0xd49a <rand>
    a838:	b6 01       	movw	r22, r12
    a83a:	0e 94 78 69 	call	0xd2f0	; 0xd2f0 <__divmodhi4>
    a83e:	8f 5f       	subi	r24, 0xFF	; 255
    a840:	20 91 78 04 	lds	r18, 0x0478	; 0x800478 <_cobra+0x100>
    a844:	30 91 79 04 	lds	r19, 0x0479	; 0x800479 <_cobra+0x101>
    a848:	91 e0       	ldi	r25, 0x01	; 1
    a84a:	e9 2f       	mov	r30, r25
    a84c:	f0 e0       	ldi	r31, 0x00	; 0
    a84e:	e2 17       	cp	r30, r18
    a850:	f3 07       	cpc	r31, r19
    a852:	64 f4       	brge	.+24     	; 0xa86c <_Z16COBRA_plotNewDotRaS_+0x6a>
    a854:	ee 0f       	add	r30, r30
    a856:	ff 1f       	adc	r31, r31
    a858:	e8 58       	subi	r30, 0x88	; 136
    a85a:	fc 4f       	sbci	r31, 0xFC	; 252
    a85c:	40 81       	ld	r20, Z
    a85e:	b4 12       	cpse	r11, r20
    a860:	03 c0       	rjmp	.+6      	; 0xa868 <_Z16COBRA_plotNewDotRaS_+0x66>
    a862:	41 81       	ldd	r20, Z+1	; 0x01
    a864:	84 17       	cp	r24, r20
    a866:	f1 f2       	breq	.-68     	; 0xa824 <_Z16COBRA_plotNewDotRaS_+0x22>
    a868:	9f 5f       	subi	r25, 0xFF	; 255
    a86a:	ef cf       	rjmp	.-34     	; 0xa84a <_Z16COBRA_plotNewDotRaS_+0x48>
    a86c:	f8 01       	movw	r30, r16
    a86e:	b0 82       	st	Z, r11
    a870:	88 83       	st	Y, r24
    a872:	df 91       	pop	r29
    a874:	cf 91       	pop	r28
    a876:	1f 91       	pop	r17
    a878:	0f 91       	pop	r16
    a87a:	ff 90       	pop	r15
    a87c:	ef 90       	pop	r14
    a87e:	df 90       	pop	r13
    a880:	cf 90       	pop	r12
    a882:	bf 90       	pop	r11
    a884:	08 95       	ret

0000a886 <_Z14COBRA_MainGamev>:
    a886:	2f 92       	push	r2
    a888:	3f 92       	push	r3
    a88a:	4f 92       	push	r4
    a88c:	5f 92       	push	r5
    a88e:	6f 92       	push	r6
    a890:	7f 92       	push	r7
    a892:	8f 92       	push	r8
    a894:	9f 92       	push	r9
    a896:	af 92       	push	r10
    a898:	bf 92       	push	r11
    a89a:	cf 92       	push	r12
    a89c:	df 92       	push	r13
    a89e:	ef 92       	push	r14
    a8a0:	ff 92       	push	r15
    a8a2:	0f 93       	push	r16
    a8a4:	1f 93       	push	r17
    a8a6:	cf 93       	push	r28
    a8a8:	df 93       	push	r29
    a8aa:	cd b7       	in	r28, 0x3d	; 61
    a8ac:	de b7       	in	r29, 0x3e	; 62
    a8ae:	66 97       	sbiw	r28, 0x16	; 22
    a8b0:	0f b6       	in	r0, 0x3f	; 63
    a8b2:	f8 94       	cli
    a8b4:	de bf       	out	0x3e, r29	; 62
    a8b6:	0f be       	out	0x3f, r0	; 63
    a8b8:	cd bf       	out	0x3d, r28	; 61
    a8ba:	60 e0       	ldi	r22, 0x00	; 0
    a8bc:	83 ef       	ldi	r24, 0xF3	; 243
    a8be:	9f e5       	ldi	r25, 0x5F	; 95
    a8c0:	0e 94 12 68 	call	0xd024	; 0xd024 <_ZN10class_Wave7PrepareEPKh11WaveChannel>
    a8c4:	60 e0       	ldi	r22, 0x00	; 0
    a8c6:	81 e0       	ldi	r24, 0x01	; 1
    a8c8:	0e 94 ac 68 	call	0xd158	; 0xd158 <_ZN10class_Wave4PlayE11WaveChannel8PlayMode>
    a8cc:	80 e0       	ldi	r24, 0x00	; 0
    a8ce:	91 e0       	ldi	r25, 0x01	; 1
    a8d0:	e8 e7       	ldi	r30, 0x78	; 120
    a8d2:	f3 e0       	ldi	r31, 0x03	; 3
    a8d4:	df 01       	movw	r26, r30
    a8d6:	9c 01       	movw	r18, r24
    a8d8:	1d 92       	st	X+, r1
    a8da:	21 50       	subi	r18, 0x01	; 1
    a8dc:	30 40       	sbci	r19, 0x00	; 0
    a8de:	e1 f7       	brne	.-8      	; 0xa8d8 <_Z14COBRA_MainGamev+0x52>
    a8e0:	0e 94 21 63 	call	0xc642	; 0xc642 <_ZN9class_RTC9GetMinuteEv>
    a8e4:	18 2f       	mov	r17, r24
    a8e6:	0e 94 1e 63 	call	0xc63c	; 0xc63c <_ZN9class_RTC9GetSecondEv>
    a8ea:	90 e0       	ldi	r25, 0x00	; 0
    a8ec:	3c e3       	ldi	r19, 0x3C	; 60
    a8ee:	13 9f       	mul	r17, r19
    a8f0:	80 0d       	add	r24, r0
    a8f2:	91 1d       	adc	r25, r1
    a8f4:	11 24       	eor	r1, r1
    a8f6:	0e 94 52 6a 	call	0xd4a4	; 0xd4a4 <srand>
    a8fa:	85 e0       	ldi	r24, 0x05	; 5
    a8fc:	90 e0       	ldi	r25, 0x00	; 0
    a8fe:	90 93 79 04 	sts	0x0479, r25	; 0x800479 <_cobra+0x101>
    a902:	80 93 78 04 	sts	0x0478, r24	; 0x800478 <_cobra+0x100>
    a906:	8c e0       	ldi	r24, 0x0C	; 12
    a908:	80 93 78 03 	sts	0x0378, r24	; 0x800378 <_cobra>
    a90c:	88 e0       	ldi	r24, 0x08	; 8
    a90e:	80 93 79 03 	sts	0x0379, r24	; 0x800379 <_cobra+0x1>
    a912:	0e 94 f9 45 	call	0x8bf2	; 0x8bf2 <_ZN9class_LED7getFontEv>
    a916:	8e 8b       	std	Y+22, r24	; 0x16
    a918:	81 e0       	ldi	r24, 0x01	; 1
    a91a:	0e 94 f6 45 	call	0x8bec	; 0x8bec <_ZN9class_LED7setFontE8CharFont>
    a91e:	81 e0       	ldi	r24, 0x01	; 1
    a920:	0e 94 90 43 	call	0x8720	; 0x8720 <_ZN9class_LED15setCharFillModeEb>
    a924:	60 e0       	ldi	r22, 0x00	; 0
    a926:	8f e3       	ldi	r24, 0x3F	; 63
    a928:	96 e6       	ldi	r25, 0x66	; 102
    a92a:	0e 94 12 68 	call	0xd024	; 0xd024 <_ZN10class_Wave7PrepareEPKh11WaveChannel>
    a92e:	61 e0       	ldi	r22, 0x01	; 1
    a930:	89 ec       	ldi	r24, 0xC9	; 201
    a932:	97 e6       	ldi	r25, 0x67	; 103
    a934:	0e 94 12 68 	call	0xd024	; 0xd024 <_ZN10class_Wave7PrepareEPKh11WaveChannel>
    a938:	62 e0       	ldi	r22, 0x02	; 2
    a93a:	8b e1       	ldi	r24, 0x1B	; 27
    a93c:	91 e7       	ldi	r25, 0x71	; 113
    a93e:	0e 94 12 68 	call	0xd024	; 0xd024 <_ZN10class_Wave7PrepareEPKh11WaveChannel>
    a942:	63 e0       	ldi	r22, 0x03	; 3
    a944:	83 ef       	ldi	r24, 0xF3	; 243
    a946:	9f e5       	ldi	r25, 0x5F	; 95
    a948:	0e 94 12 68 	call	0xd024	; 0xd024 <_ZN10class_Wave7PrepareEPKh11WaveChannel>
    a94c:	be 01       	movw	r22, r28
    a94e:	6f 5e       	subi	r22, 0xEF	; 239
    a950:	7f 4f       	sbci	r23, 0xFF	; 255
    a952:	ce 01       	movw	r24, r28
    a954:	42 96       	adiw	r24, 0x12	; 18
    a956:	0e 94 01 54 	call	0xa802	; 0xa802 <_Z16COBRA_plotNewDotRaS_>
    a95a:	be 01       	movw	r22, r28
    a95c:	63 5f       	subi	r22, 0xF3	; 243
    a95e:	7f 4f       	sbci	r23, 0xFF	; 255
    a960:	8f ea       	ldi	r24, 0xAF	; 175
    a962:	97 e0       	ldi	r25, 0x07	; 7
    a964:	0e 94 3d 66 	call	0xcc7a	; 0xcc7a <_ZN11class_Timer10setElapsedERm>
    a968:	4e 01       	movw	r8, r28
    a96a:	89 e0       	ldi	r24, 0x09	; 9
    a96c:	88 0e       	add	r8, r24
    a96e:	91 1c       	adc	r9, r1
    a970:	b4 01       	movw	r22, r8
    a972:	8f ea       	ldi	r24, 0xAF	; 175
    a974:	97 e0       	ldi	r25, 0x07	; 7
    a976:	0e 94 3d 66 	call	0xcc7a	; 0xcc7a <_ZN11class_Timer10setElapsedERm>
    a97a:	de 01       	movw	r26, r28
    a97c:	11 96       	adiw	r26, 0x01	; 1
    a97e:	6d 01       	movw	r12, r26
    a980:	bd 01       	movw	r22, r26
    a982:	8f ea       	ldi	r24, 0xAF	; 175
    a984:	97 e0       	ldi	r25, 0x07	; 7
    a986:	0e 94 3d 66 	call	0xcc7a	; 0xcc7a <_ZN11class_Timer10setElapsedERm>
    a98a:	61 2c       	mov	r6, r1
    a98c:	71 2c       	mov	r7, r1
    a98e:	a1 2c       	mov	r10, r1
    a990:	b1 e0       	ldi	r27, 0x01	; 1
    a992:	bb 8b       	std	Y+19, r27	; 0x13
    a994:	b3 e0       	ldi	r27, 0x03	; 3
    a996:	bb 2e       	mov	r11, r27
    a998:	13 e0       	ldi	r17, 0x03	; 3
    a99a:	08 e0       	ldi	r16, 0x08	; 8
    a99c:	e0 2e       	mov	r14, r16
    a99e:	f1 2c       	mov	r15, r1
    a9a0:	8c e0       	ldi	r24, 0x0C	; 12
    a9a2:	48 2e       	mov	r4, r24
    a9a4:	51 2c       	mov	r5, r1
    a9a6:	8c 8a       	std	Y+20, r8	; 0x14
    a9a8:	9d 8a       	std	Y+21, r9	; 0x15
    a9aa:	3c 2c       	mov	r3, r12
    a9ac:	2d 2c       	mov	r2, r13
    a9ae:	80 e0       	ldi	r24, 0x00	; 0
    a9b0:	0e 94 46 42 	call	0x848c	; 0x848c <_ZN9class_LED3clsEb>
    a9b4:	01 e0       	ldi	r16, 0x01	; 1
    a9b6:	20 e1       	ldi	r18, 0x10	; 16
    a9b8:	30 e0       	ldi	r19, 0x00	; 0
    a9ba:	48 e1       	ldi	r20, 0x18	; 24
    a9bc:	50 e0       	ldi	r21, 0x00	; 0
    a9be:	60 e0       	ldi	r22, 0x00	; 0
    a9c0:	70 e0       	ldi	r23, 0x00	; 0
    a9c2:	80 e0       	ldi	r24, 0x00	; 0
    a9c4:	90 e0       	ldi	r25, 0x00	; 0
    a9c6:	0e 94 91 45 	call	0x8b22	; 0x8b22 <_ZN9class_LED9rectangleEiiii5Color>
    a9ca:	00 e0       	ldi	r16, 0x00	; 0
    a9cc:	e0 2f       	mov	r30, r16
    a9ce:	f0 e0       	ldi	r31, 0x00	; 0
    a9d0:	80 91 78 04 	lds	r24, 0x0478	; 0x800478 <_cobra+0x100>
    a9d4:	90 91 79 04 	lds	r25, 0x0479	; 0x800479 <_cobra+0x101>
    a9d8:	e8 17       	cp	r30, r24
    a9da:	f9 07       	cpc	r31, r25
    a9dc:	8c f4       	brge	.+34     	; 0xaa00 <_Z14COBRA_MainGamev+0x17a>
    a9de:	ee 0f       	add	r30, r30
    a9e0:	ff 1f       	adc	r31, r31
    a9e2:	e8 58       	subi	r30, 0x88	; 136
    a9e4:	fc 4f       	sbci	r31, 0xFC	; 252
    a9e6:	61 81       	ldd	r22, Z+1	; 0x01
    a9e8:	06 2e       	mov	r0, r22
    a9ea:	00 0c       	add	r0, r0
    a9ec:	77 0b       	sbc	r23, r23
    a9ee:	80 81       	ld	r24, Z
    a9f0:	41 e0       	ldi	r20, 0x01	; 1
    a9f2:	08 2e       	mov	r0, r24
    a9f4:	00 0c       	add	r0, r0
    a9f6:	99 0b       	sbc	r25, r25
    a9f8:	0e 94 f9 42 	call	0x85f2	; 0x85f2 <_ZN9class_LED8setPixelEii5Color>
    a9fc:	0f 5f       	subi	r16, 0xFF	; 255
    a9fe:	e6 cf       	rjmp	.-52     	; 0xa9cc <_Z14COBRA_MainGamev+0x146>
    aa00:	6c 89       	ldd	r22, Y+20	; 0x14
    aa02:	7d 89       	ldd	r23, Y+21	; 0x15
    aa04:	8f ea       	ldi	r24, 0xAF	; 175
    aa06:	97 e0       	ldi	r25, 0x07	; 7
    aa08:	0e 94 49 66 	call	0xcc92	; 0xcc92 <_ZN11class_Timer10getElapsedERm>
    aa0c:	63 33       	cpi	r22, 0x33	; 51
    aa0e:	71 05       	cpc	r23, r1
    aa10:	81 05       	cpc	r24, r1
    aa12:	91 05       	cpc	r25, r1
    aa14:	50 f0       	brcs	.+20     	; 0xaa2a <_Z14COBRA_MainGamev+0x1a4>
    aa16:	6c 89       	ldd	r22, Y+20	; 0x14
    aa18:	7d 89       	ldd	r23, Y+21	; 0x15
    aa1a:	8f ea       	ldi	r24, 0xAF	; 175
    aa1c:	97 e0       	ldi	r25, 0x07	; 7
    aa1e:	0e 94 3d 66 	call	0xcc7a	; 0xcc7a <_ZN11class_Timer10setElapsedERm>
    aa22:	81 e0       	ldi	r24, 0x01	; 1
    aa24:	eb 89       	ldd	r30, Y+19	; 0x13
    aa26:	e8 27       	eor	r30, r24
    aa28:	eb 8b       	std	Y+19, r30	; 0x13
    aa2a:	fb 89       	ldd	r31, Y+19	; 0x13
    aa2c:	ff 23       	and	r31, r31
    aa2e:	59 f0       	breq	.+22     	; 0xaa46 <_Z14COBRA_MainGamev+0x1c0>
    aa30:	69 89       	ldd	r22, Y+17	; 0x11
    aa32:	06 2e       	mov	r0, r22
    aa34:	00 0c       	add	r0, r0
    aa36:	77 0b       	sbc	r23, r23
    aa38:	8a 89       	ldd	r24, Y+18	; 0x12
    aa3a:	41 e0       	ldi	r20, 0x01	; 1
    aa3c:	08 2e       	mov	r0, r24
    aa3e:	00 0c       	add	r0, r0
    aa40:	99 0b       	sbc	r25, r25
    aa42:	0e 94 f9 42 	call	0x85f2	; 0x85f2 <_ZN9class_LED8setPixelEii5Color>
    aa46:	63 2d       	mov	r22, r3
    aa48:	72 2d       	mov	r23, r2
    aa4a:	8f ea       	ldi	r24, 0xAF	; 175
    aa4c:	97 e0       	ldi	r25, 0x07	; 7
    aa4e:	0e 94 49 66 	call	0xcc92	; 0xcc92 <_ZN11class_Timer10getElapsedERm>
    aa52:	69 39       	cpi	r22, 0x99	; 153
    aa54:	7a 43       	sbci	r23, 0x3A	; 58
    aa56:	81 05       	cpc	r24, r1
    aa58:	91 05       	cpc	r25, r1
    aa5a:	18 f4       	brcc	.+6      	; 0xaa62 <_Z14COBRA_MainGamev+0x1dc>
    aa5c:	aa 20       	and	r10, r10
    aa5e:	09 f4       	brne	.+2      	; 0xaa62 <_Z14COBRA_MainGamev+0x1dc>
    aa60:	42 c0       	rjmp	.+132    	; 0xaae6 <_Z14COBRA_MainGamev+0x260>
    aa62:	8d ea       	ldi	r24, 0xAD	; 173
    aa64:	97 e0       	ldi	r25, 0x07	; 7
    aa66:	0e 94 bc 41 	call	0x8378	; 0x8378 <_ZN9class_KBD14waitKbdReleaseEv>
    aa6a:	0b ef       	ldi	r16, 0xFB	; 251
    aa6c:	11 e0       	ldi	r17, 0x01	; 1
    aa6e:	8d ef       	ldi	r24, 0xFD	; 253
    aa70:	e8 2e       	mov	r14, r24
    aa72:	86 e0       	ldi	r24, 0x06	; 6
    aa74:	f8 2e       	mov	r15, r24
    aa76:	80 e0       	ldi	r24, 0x00	; 0
    aa78:	0e 94 46 42 	call	0x848c	; 0x848c <_ZN9class_LED3clsEb>
    aa7c:	60 e0       	ldi	r22, 0x00	; 0
    aa7e:	70 e0       	ldi	r23, 0x00	; 0
    aa80:	82 e0       	ldi	r24, 0x02	; 2
    aa82:	90 e0       	ldi	r25, 0x00	; 0
    aa84:	0e 94 2f 45 	call	0x8a5e	; 0x8a5e <_ZN9class_LED6moveToEii>
    aa88:	61 e0       	ldi	r22, 0x01	; 1
    aa8a:	85 ef       	ldi	r24, 0xF5	; 245
    aa8c:	91 e0       	ldi	r25, 0x01	; 1
    aa8e:	0e 94 90 47 	call	0x8f20	; 0x8f20 <_ZN9class_LED4putSEPKc5Color>
    aa92:	69 e0       	ldi	r22, 0x09	; 9
    aa94:	70 e0       	ldi	r23, 0x00	; 0
    aa96:	82 e0       	ldi	r24, 0x02	; 2
    aa98:	90 e0       	ldi	r25, 0x00	; 0
    aa9a:	0e 94 2f 45 	call	0x8a5e	; 0x8a5e <_ZN9class_LED6moveToEii>
    aa9e:	7f 92       	push	r7
    aaa0:	6f 92       	push	r6
    aaa2:	1f 93       	push	r17
    aaa4:	0f 93       	push	r16
    aaa6:	ff 92       	push	r15
    aaa8:	ef 92       	push	r14
    aaaa:	0e 94 6b 6a 	call	0xd4d6	; 0xd4d6 <sprintf>
    aaae:	61 e0       	ldi	r22, 0x01	; 1
    aab0:	8d ef       	ldi	r24, 0xFD	; 253
    aab2:	96 e0       	ldi	r25, 0x06	; 6
    aab4:	0e 94 90 47 	call	0x8f20	; 0x8f20 <_ZN9class_LED4putSEPKc5Color>
    aab8:	0e 94 77 43 	call	0x86ee	; 0x86ee <_ZN9class_LED7refreshEv>
    aabc:	8d ea       	ldi	r24, 0xAD	; 173
    aabe:	97 e0       	ldi	r25, 0x07	; 7
    aac0:	0e 94 85 41 	call	0x830a	; 0x830a <_ZN9class_KBD11getKbdStateEv>
    aac4:	0f 90       	pop	r0
    aac6:	0f 90       	pop	r0
    aac8:	0f 90       	pop	r0
    aaca:	0f 90       	pop	r0
    aacc:	0f 90       	pop	r0
    aace:	0f 90       	pop	r0
    aad0:	80 34       	cpi	r24, 0x40	; 64
    aad2:	09 f4       	brne	.+2      	; 0xaad6 <_Z14COBRA_MainGamev+0x250>
    aad4:	d4 c1       	rjmp	.+936    	; 0xae7e <_Z14COBRA_MainGamev+0x5f8>
    aad6:	8d ea       	ldi	r24, 0xAD	; 173
    aad8:	97 e0       	ldi	r25, 0x07	; 7
    aada:	0e 94 85 41 	call	0x830a	; 0x830a <_ZN9class_KBD11getKbdStateEv>
    aade:	82 30       	cpi	r24, 0x02	; 2
    aae0:	09 f0       	breq	.+2      	; 0xaae4 <_Z14COBRA_MainGamev+0x25e>
    aae2:	f1 c1       	rjmp	.+994    	; 0xaec6 <_Z14COBRA_MainGamev+0x640>
    aae4:	cc c1       	rjmp	.+920    	; 0xae7e <_Z14COBRA_MainGamev+0x5f8>
    aae6:	be 01       	movw	r22, r28
    aae8:	6b 5f       	subi	r22, 0xFB	; 251
    aaea:	7f 4f       	sbci	r23, 0xFF	; 255
    aaec:	8f ea       	ldi	r24, 0xAF	; 175
    aaee:	97 e0       	ldi	r25, 0x07	; 7
    aaf0:	0e 94 49 66 	call	0xcc92	; 0xcc92 <_ZN11class_Timer10getElapsedERm>
    aaf4:	63 33       	cpi	r22, 0x33	; 51
    aaf6:	71 05       	cpc	r23, r1
    aaf8:	81 05       	cpc	r24, r1
    aafa:	91 05       	cpc	r25, r1
    aafc:	08 f4       	brcc	.+2      	; 0xab00 <_Z14COBRA_MainGamev+0x27a>
    aafe:	3d c0       	rjmp	.+122    	; 0xab7a <_Z14COBRA_MainGamev+0x2f4>
    ab00:	be 01       	movw	r22, r28
    ab02:	6b 5f       	subi	r22, 0xFB	; 251
    ab04:	7f 4f       	sbci	r23, 0xFF	; 255
    ab06:	8f ea       	ldi	r24, 0xAF	; 175
    ab08:	97 e0       	ldi	r25, 0x07	; 7
    ab0a:	0e 94 3d 66 	call	0xcc7a	; 0xcc7a <_ZN11class_Timer10setElapsedERm>
    ab0e:	8d ea       	ldi	r24, 0xAD	; 173
    ab10:	97 e0       	ldi	r25, 0x07	; 7
    ab12:	0e 94 85 41 	call	0x830a	; 0x830a <_ZN9class_KBD11getKbdStateEv>
    ab16:	08 2f       	mov	r16, r24
    ab18:	88 30       	cpi	r24, 0x08	; 8
    ab1a:	29 f4       	brne	.+10     	; 0xab26 <_Z14COBRA_MainGamev+0x2a0>
    ab1c:	31 e0       	ldi	r19, 0x01	; 1
    ab1e:	b3 16       	cp	r11, r19
    ab20:	31 f0       	breq	.+12     	; 0xab2e <_Z14COBRA_MainGamev+0x2a8>
    ab22:	10 e0       	ldi	r17, 0x00	; 0
    ab24:	04 c0       	rjmp	.+8      	; 0xab2e <_Z14COBRA_MainGamev+0x2a8>
    ab26:	80 31       	cpi	r24, 0x10	; 16
    ab28:	49 f4       	brne	.+18     	; 0xab3c <_Z14COBRA_MainGamev+0x2b6>
    ab2a:	b1 10       	cpse	r11, r1
    ab2c:	11 e0       	ldi	r17, 0x01	; 1
    ab2e:	63 2d       	mov	r22, r3
    ab30:	72 2d       	mov	r23, r2
    ab32:	8f ea       	ldi	r24, 0xAF	; 175
    ab34:	97 e0       	ldi	r25, 0x07	; 7
    ab36:	0e 94 3d 66 	call	0xcc7a	; 0xcc7a <_ZN11class_Timer10setElapsedERm>
    ab3a:	13 c0       	rjmp	.+38     	; 0xab62 <_Z14COBRA_MainGamev+0x2dc>
    ab3c:	81 30       	cpi	r24, 0x01	; 1
    ab3e:	29 f4       	brne	.+10     	; 0xab4a <_Z14COBRA_MainGamev+0x2c4>
    ab40:	83 e0       	ldi	r24, 0x03	; 3
    ab42:	b8 16       	cp	r11, r24
    ab44:	39 f0       	breq	.+14     	; 0xab54 <_Z14COBRA_MainGamev+0x2ce>
    ab46:	12 e0       	ldi	r17, 0x02	; 2
    ab48:	05 c0       	rjmp	.+10     	; 0xab54 <_Z14COBRA_MainGamev+0x2ce>
    ab4a:	84 30       	cpi	r24, 0x04	; 4
    ab4c:	51 f4       	brne	.+20     	; 0xab62 <_Z14COBRA_MainGamev+0x2dc>
    ab4e:	92 e0       	ldi	r25, 0x02	; 2
    ab50:	b9 12       	cpse	r11, r25
    ab52:	13 e0       	ldi	r17, 0x03	; 3
    ab54:	63 2d       	mov	r22, r3
    ab56:	72 2d       	mov	r23, r2
    ab58:	8f ea       	ldi	r24, 0xAF	; 175
    ab5a:	97 e0       	ldi	r25, 0x07	; 7
    ab5c:	0e 94 3d 66 	call	0xcc7a	; 0xcc7a <_ZN11class_Timer10setElapsedERm>
    ab60:	05 c0       	rjmp	.+10     	; 0xab6c <_Z14COBRA_MainGamev+0x2e6>
    ab62:	aa 24       	eor	r10, r10
    ab64:	a3 94       	inc	r10
    ab66:	00 34       	cpi	r16, 0x40	; 64
    ab68:	09 f0       	breq	.+2      	; 0xab6c <_Z14COBRA_MainGamev+0x2e6>
    ab6a:	a1 2c       	mov	r10, r1
    ab6c:	b1 16       	cp	r11, r17
    ab6e:	29 f0       	breq	.+10     	; 0xab7a <_Z14COBRA_MainGamev+0x2f4>
    ab70:	60 e0       	ldi	r22, 0x00	; 0
    ab72:	80 e0       	ldi	r24, 0x00	; 0
    ab74:	0e 94 ac 68 	call	0xd158	; 0xd158 <_ZN10class_Wave4PlayE11WaveChannel8PlayMode>
    ab78:	b1 2e       	mov	r11, r17
    ab7a:	be 01       	movw	r22, r28
    ab7c:	63 5f       	subi	r22, 0xF3	; 243
    ab7e:	7f 4f       	sbci	r23, 0xFF	; 255
    ab80:	8f ea       	ldi	r24, 0xAF	; 175
    ab82:	97 e0       	ldi	r25, 0x07	; 7
    ab84:	0e 94 49 66 	call	0xcc92	; 0xcc92 <_ZN11class_Timer10getElapsedERm>
    ab88:	69 3c       	cpi	r22, 0xC9	; 201
    ab8a:	71 05       	cpc	r23, r1
    ab8c:	81 05       	cpc	r24, r1
    ab8e:	91 05       	cpc	r25, r1
    ab90:	08 f4       	brcc	.+2      	; 0xab94 <_Z14COBRA_MainGamev+0x30e>
    ab92:	72 c1       	rjmp	.+740    	; 0xae78 <_Z14COBRA_MainGamev+0x5f2>
    ab94:	be 01       	movw	r22, r28
    ab96:	63 5f       	subi	r22, 0xF3	; 243
    ab98:	7f 4f       	sbci	r23, 0xFF	; 255
    ab9a:	8f ea       	ldi	r24, 0xAF	; 175
    ab9c:	97 e0       	ldi	r25, 0x07	; 7
    ab9e:	0e 94 3d 66 	call	0xcc7a	; 0xcc7a <_ZN11class_Timer10setElapsedERm>
    aba2:	11 30       	cpi	r17, 0x01	; 1
    aba4:	a1 f0       	breq	.+40     	; 0xabce <_Z14COBRA_MainGamev+0x348>
    aba6:	28 f0       	brcs	.+10     	; 0xabb2 <_Z14COBRA_MainGamev+0x32c>
    aba8:	12 30       	cpi	r17, 0x02	; 2
    abaa:	01 f1       	breq	.+64     	; 0xabec <_Z14COBRA_MainGamev+0x366>
    abac:	13 30       	cpi	r17, 0x03	; 3
    abae:	61 f1       	breq	.+88     	; 0xac08 <_Z14COBRA_MainGamev+0x382>
    abb0:	39 c0       	rjmp	.+114    	; 0xac24 <_Z14COBRA_MainGamev+0x39e>
    abb2:	a1 e0       	ldi	r26, 0x01	; 1
    abb4:	ea 1a       	sub	r14, r26
    abb6:	f1 08       	sbc	r15, r1
    abb8:	1e 14       	cp	r1, r14
    abba:	1f 04       	cpc	r1, r15
    abbc:	9c f1       	brlt	.+102    	; 0xac24 <_Z14COBRA_MainGamev+0x39e>
    abbe:	60 e0       	ldi	r22, 0x00	; 0
    abc0:	82 e0       	ldi	r24, 0x02	; 2
    abc2:	0e 94 ac 68 	call	0xd158	; 0xd158 <_ZN10class_Wave4PlayE11WaveChannel8PlayMode>
    abc6:	fe e0       	ldi	r31, 0x0E	; 14
    abc8:	ef 2e       	mov	r14, r31
    abca:	f1 2c       	mov	r15, r1
    abcc:	2b c0       	rjmp	.+86     	; 0xac24 <_Z14COBRA_MainGamev+0x39e>
    abce:	bf ef       	ldi	r27, 0xFF	; 255
    abd0:	eb 1a       	sub	r14, r27
    abd2:	fb 0a       	sbc	r15, r27
    abd4:	ef e0       	ldi	r30, 0x0F	; 15
    abd6:	ee 16       	cp	r14, r30
    abd8:	f1 04       	cpc	r15, r1
    abda:	24 f1       	brlt	.+72     	; 0xac24 <_Z14COBRA_MainGamev+0x39e>
    abdc:	60 e0       	ldi	r22, 0x00	; 0
    abde:	82 e0       	ldi	r24, 0x02	; 2
    abe0:	0e 94 ac 68 	call	0xd158	; 0xd158 <_ZN10class_Wave4PlayE11WaveChannel8PlayMode>
    abe4:	ee 24       	eor	r14, r14
    abe6:	e3 94       	inc	r14
    abe8:	f1 2c       	mov	r15, r1
    abea:	1c c0       	rjmp	.+56     	; 0xac24 <_Z14COBRA_MainGamev+0x39e>
    abec:	f1 e0       	ldi	r31, 0x01	; 1
    abee:	4f 1a       	sub	r4, r31
    abf0:	51 08       	sbc	r5, r1
    abf2:	14 14       	cp	r1, r4
    abf4:	15 04       	cpc	r1, r5
    abf6:	b4 f0       	brlt	.+44     	; 0xac24 <_Z14COBRA_MainGamev+0x39e>
    abf8:	60 e0       	ldi	r22, 0x00	; 0
    abfa:	82 e0       	ldi	r24, 0x02	; 2
    abfc:	0e 94 ac 68 	call	0xd158	; 0xd158 <_ZN10class_Wave4PlayE11WaveChannel8PlayMode>
    ac00:	76 e1       	ldi	r23, 0x16	; 22
    ac02:	47 2e       	mov	r4, r23
    ac04:	51 2c       	mov	r5, r1
    ac06:	0e c0       	rjmp	.+28     	; 0xac24 <_Z14COBRA_MainGamev+0x39e>
    ac08:	2f ef       	ldi	r18, 0xFF	; 255
    ac0a:	42 1a       	sub	r4, r18
    ac0c:	52 0a       	sbc	r5, r18
    ac0e:	37 e1       	ldi	r19, 0x17	; 23
    ac10:	43 16       	cp	r4, r19
    ac12:	51 04       	cpc	r5, r1
    ac14:	3c f0       	brlt	.+14     	; 0xac24 <_Z14COBRA_MainGamev+0x39e>
    ac16:	60 e0       	ldi	r22, 0x00	; 0
    ac18:	82 e0       	ldi	r24, 0x02	; 2
    ac1a:	0e 94 ac 68 	call	0xd158	; 0xd158 <_ZN10class_Wave4PlayE11WaveChannel8PlayMode>
    ac1e:	44 24       	eor	r4, r4
    ac20:	43 94       	inc	r4
    ac22:	51 2c       	mov	r5, r1
    ac24:	80 91 78 04 	lds	r24, 0x0478	; 0x800478 <_cobra+0x100>
    ac28:	81 50       	subi	r24, 0x01	; 1
    ac2a:	89 f0       	breq	.+34     	; 0xac4e <_Z14COBRA_MainGamev+0x3c8>
    ac2c:	28 2f       	mov	r18, r24
    ac2e:	30 e0       	ldi	r19, 0x00	; 0
    ac30:	d9 01       	movw	r26, r18
    ac32:	aa 0f       	add	r26, r26
    ac34:	bb 1f       	adc	r27, r27
    ac36:	a8 58       	subi	r26, 0x88	; 136
    ac38:	bc 4f       	sbci	r27, 0xFC	; 252
    ac3a:	22 0f       	add	r18, r18
    ac3c:	33 1f       	adc	r19, r19
    ac3e:	f9 01       	movw	r30, r18
    ac40:	ea 58       	subi	r30, 0x8A	; 138
    ac42:	fc 4f       	sbci	r31, 0xFC	; 252
    ac44:	20 81       	ld	r18, Z
    ac46:	31 81       	ldd	r19, Z+1	; 0x01
    ac48:	2d 93       	st	X+, r18
    ac4a:	3c 93       	st	X, r19
    ac4c:	ed cf       	rjmp	.-38     	; 0xac28 <_Z14COBRA_MainGamev+0x3a2>
    ac4e:	40 92 78 03 	sts	0x0378, r4	; 0x800378 <_cobra>
    ac52:	e0 92 79 03 	sts	0x0379, r14	; 0x800379 <_cobra+0x1>
    ac56:	8a 89       	ldd	r24, Y+18	; 0x12
    ac58:	08 2e       	mov	r0, r24
    ac5a:	00 0c       	add	r0, r0
    ac5c:	99 0b       	sbc	r25, r25
    ac5e:	48 16       	cp	r4, r24
    ac60:	59 06       	cpc	r5, r25
    ac62:	09 f0       	breq	.+2      	; 0xac66 <_Z14COBRA_MainGamev+0x3e0>
    ac64:	89 c0       	rjmp	.+274    	; 0xad78 <_Z14COBRA_MainGamev+0x4f2>
    ac66:	89 89       	ldd	r24, Y+17	; 0x11
    ac68:	08 2e       	mov	r0, r24
    ac6a:	00 0c       	add	r0, r0
    ac6c:	99 0b       	sbc	r25, r25
    ac6e:	e8 16       	cp	r14, r24
    ac70:	f9 06       	cpc	r15, r25
    ac72:	09 f0       	breq	.+2      	; 0xac76 <_Z14COBRA_MainGamev+0x3f0>
    ac74:	81 c0       	rjmp	.+258    	; 0xad78 <_Z14COBRA_MainGamev+0x4f2>
    ac76:	60 e0       	ldi	r22, 0x00	; 0
    ac78:	81 e0       	ldi	r24, 0x01	; 1
    ac7a:	0e 94 ac 68 	call	0xd158	; 0xd158 <_ZN10class_Wave4PlayE11WaveChannel8PlayMode>
    ac7e:	80 91 78 04 	lds	r24, 0x0478	; 0x800478 <_cobra+0x100>
    ac82:	90 91 79 04 	lds	r25, 0x0479	; 0x800479 <_cobra+0x101>
    ac86:	01 96       	adiw	r24, 0x01	; 1
    ac88:	90 93 79 04 	sts	0x0479, r25	; 0x800479 <_cobra+0x101>
    ac8c:	80 93 78 04 	sts	0x0478, r24	; 0x800478 <_cobra+0x100>
    ac90:	be 01       	movw	r22, r28
    ac92:	6f 5e       	subi	r22, 0xEF	; 239
    ac94:	7f 4f       	sbci	r23, 0xFF	; 255
    ac96:	ce 01       	movw	r24, r28
    ac98:	42 96       	adiw	r24, 0x12	; 18
    ac9a:	0e 94 01 54 	call	0xa802	; 0xa802 <_Z16COBRA_plotNewDotRaS_>
    ac9e:	85 e0       	ldi	r24, 0x05	; 5
    aca0:	68 0e       	add	r6, r24
    aca2:	71 1c       	adc	r7, r1
    aca4:	7f 92       	push	r7
    aca6:	6f 92       	push	r6
    aca8:	af ef       	ldi	r26, 0xFF	; 255
    acaa:	b1 e0       	ldi	r27, 0x01	; 1
    acac:	bf 93       	push	r27
    acae:	af 93       	push	r26
    acb0:	2d ef       	ldi	r18, 0xFD	; 253
    acb2:	36 e0       	ldi	r19, 0x06	; 6
    acb4:	3f 93       	push	r19
    acb6:	2f 93       	push	r18
    acb8:	0e 94 6b 6a 	call	0xd4d6	; 0xd4d6 <sprintf>
    acbc:	0f 90       	pop	r0
    acbe:	0f 90       	pop	r0
    acc0:	0f 90       	pop	r0
    acc2:	0f 90       	pop	r0
    acc4:	0f 90       	pop	r0
    acc6:	0f 90       	pop	r0
    acc8:	32 e0       	ldi	r19, 0x02	; 2
    acca:	d3 2e       	mov	r13, r19
    accc:	8a ea       	ldi	r24, 0xAA	; 170
    acce:	90 e0       	ldi	r25, 0x00	; 0
    acd0:	0e 94 93 43 	call	0x8726	; 0x8726 <_ZN9class_LED6setPenE8enum_Pen>
    acd4:	01 e0       	ldi	r16, 0x01	; 1
    acd6:	20 e1       	ldi	r18, 0x10	; 16
    acd8:	30 e0       	ldi	r19, 0x00	; 0
    acda:	48 e1       	ldi	r20, 0x18	; 24
    acdc:	50 e0       	ldi	r21, 0x00	; 0
    acde:	60 e0       	ldi	r22, 0x00	; 0
    ace0:	70 e0       	ldi	r23, 0x00	; 0
    ace2:	80 e0       	ldi	r24, 0x00	; 0
    ace4:	90 e0       	ldi	r25, 0x00	; 0
    ace6:	0e 94 91 45 	call	0x8b22	; 0x8b22 <_ZN9class_LED9rectangleEiiii5Color>
    acea:	60 91 79 03 	lds	r22, 0x0379	; 0x800379 <_cobra+0x1>
    acee:	06 2e       	mov	r0, r22
    acf0:	00 0c       	add	r0, r0
    acf2:	77 0b       	sbc	r23, r23
    acf4:	80 91 78 03 	lds	r24, 0x0378	; 0x800378 <_cobra>
    acf8:	41 e0       	ldi	r20, 0x01	; 1
    acfa:	08 2e       	mov	r0, r24
    acfc:	00 0c       	add	r0, r0
    acfe:	99 0b       	sbc	r25, r25
    ad00:	0e 94 f9 42 	call	0x85f2	; 0x85f2 <_ZN9class_LED8setPixelEii5Color>
    ad04:	0e 94 77 43 	call	0x86ee	; 0x86ee <_ZN9class_LED7refreshEv>
    ad08:	60 e0       	ldi	r22, 0x00	; 0
    ad0a:	81 e0       	ldi	r24, 0x01	; 1
    ad0c:	0e 94 ac 68 	call	0xd158	; 0xd158 <_ZN10class_Wave4PlayE11WaveChannel8PlayMode>
    ad10:	42 e3       	ldi	r20, 0x32	; 50
    ad12:	50 e0       	ldi	r21, 0x00	; 0
    ad14:	60 e0       	ldi	r22, 0x00	; 0
    ad16:	70 e0       	ldi	r23, 0x00	; 0
    ad18:	8f ea       	ldi	r24, 0xAF	; 175
    ad1a:	97 e0       	ldi	r25, 0x07	; 7
    ad1c:	0e 94 5d 66 	call	0xccba	; 0xccba <_ZN11class_Timer17delayMillisecondsEm>
    ad20:	85 e5       	ldi	r24, 0x55	; 85
    ad22:	90 e0       	ldi	r25, 0x00	; 0
    ad24:	0e 94 93 43 	call	0x8726	; 0x8726 <_ZN9class_LED6setPenE8enum_Pen>
    ad28:	20 e1       	ldi	r18, 0x10	; 16
    ad2a:	30 e0       	ldi	r19, 0x00	; 0
    ad2c:	48 e1       	ldi	r20, 0x18	; 24
    ad2e:	50 e0       	ldi	r21, 0x00	; 0
    ad30:	60 e0       	ldi	r22, 0x00	; 0
    ad32:	70 e0       	ldi	r23, 0x00	; 0
    ad34:	80 e0       	ldi	r24, 0x00	; 0
    ad36:	90 e0       	ldi	r25, 0x00	; 0
    ad38:	0e 94 91 45 	call	0x8b22	; 0x8b22 <_ZN9class_LED9rectangleEiiii5Color>
    ad3c:	60 91 79 03 	lds	r22, 0x0379	; 0x800379 <_cobra+0x1>
    ad40:	06 2e       	mov	r0, r22
    ad42:	00 0c       	add	r0, r0
    ad44:	77 0b       	sbc	r23, r23
    ad46:	80 91 78 03 	lds	r24, 0x0378	; 0x800378 <_cobra>
    ad4a:	40 e0       	ldi	r20, 0x00	; 0
    ad4c:	08 2e       	mov	r0, r24
    ad4e:	00 0c       	add	r0, r0
    ad50:	99 0b       	sbc	r25, r25
    ad52:	0e 94 f9 42 	call	0x85f2	; 0x85f2 <_ZN9class_LED8setPixelEii5Color>
    ad56:	0e 94 77 43 	call	0x86ee	; 0x86ee <_ZN9class_LED7refreshEv>
    ad5a:	42 e3       	ldi	r20, 0x32	; 50
    ad5c:	50 e0       	ldi	r21, 0x00	; 0
    ad5e:	60 e0       	ldi	r22, 0x00	; 0
    ad60:	70 e0       	ldi	r23, 0x00	; 0
    ad62:	8f ea       	ldi	r24, 0xAF	; 175
    ad64:	97 e0       	ldi	r25, 0x07	; 7
    ad66:	0e 94 5d 66 	call	0xccba	; 0xccba <_ZN11class_Timer17delayMillisecondsEm>
    ad6a:	da 94       	dec	r13
    ad6c:	d1 10       	cpse	r13, r1
    ad6e:	ae cf       	rjmp	.-164    	; 0xaccc <_Z14COBRA_MainGamev+0x446>
    ad70:	8f ef       	ldi	r24, 0xFF	; 255
    ad72:	90 e0       	ldi	r25, 0x00	; 0
    ad74:	0e 94 93 43 	call	0x8726	; 0x8726 <_ZN9class_LED6setPenE8enum_Pen>
    ad78:	01 e0       	ldi	r16, 0x01	; 1
    ad7a:	c0 2e       	mov	r12, r16
    ad7c:	d1 2c       	mov	r13, r1
    ad7e:	80 91 78 04 	lds	r24, 0x0478	; 0x800478 <_cobra+0x100>
    ad82:	90 91 79 04 	lds	r25, 0x0479	; 0x800479 <_cobra+0x101>
    ad86:	c8 16       	cp	r12, r24
    ad88:	d9 06       	cpc	r13, r25
    ad8a:	0c f0       	brlt	.+2      	; 0xad8e <_Z14COBRA_MainGamev+0x508>
    ad8c:	75 c0       	rjmp	.+234    	; 0xae78 <_Z14COBRA_MainGamev+0x5f2>
    ad8e:	c6 01       	movw	r24, r12
    ad90:	88 0f       	add	r24, r24
    ad92:	99 1f       	adc	r25, r25
    ad94:	dc 01       	movw	r26, r24
    ad96:	a8 58       	subi	r26, 0x88	; 136
    ad98:	bc 4f       	sbci	r27, 0xFC	; 252
    ad9a:	6d 01       	movw	r12, r26
    ad9c:	90 91 78 03 	lds	r25, 0x0378	; 0x800378 <_cobra>
    ada0:	8c 91       	ld	r24, X
    ada2:	98 13       	cpse	r25, r24
    ada4:	67 c0       	rjmp	.+206    	; 0xae74 <_Z14COBRA_MainGamev+0x5ee>
    ada6:	4d 01       	movw	r8, r26
    ada8:	bf ef       	ldi	r27, 0xFF	; 255
    adaa:	8b 1a       	sub	r8, r27
    adac:	9b 0a       	sbc	r9, r27
    adae:	90 91 79 03 	lds	r25, 0x0379	; 0x800379 <_cobra+0x1>
    adb2:	f6 01       	movw	r30, r12
    adb4:	81 81       	ldd	r24, Z+1	; 0x01
    adb6:	98 13       	cpse	r25, r24
    adb8:	5d c0       	rjmp	.+186    	; 0xae74 <_Z14COBRA_MainGamev+0x5ee>
    adba:	81 e0       	ldi	r24, 0x01	; 1
    adbc:	0e 94 8a 43 	call	0x8714	; 0x8714 <_ZN9class_LED11setFillModeEb>
    adc0:	95 e0       	ldi	r25, 0x05	; 5
    adc2:	a9 2e       	mov	r10, r25
    adc4:	60 91 79 03 	lds	r22, 0x0379	; 0x800379 <_cobra+0x1>
    adc8:	06 2e       	mov	r0, r22
    adca:	00 0c       	add	r0, r0
    adcc:	77 0b       	sbc	r23, r23
    adce:	80 91 78 03 	lds	r24, 0x0378	; 0x800378 <_cobra>
    add2:	41 e0       	ldi	r20, 0x01	; 1
    add4:	08 2e       	mov	r0, r24
    add6:	00 0c       	add	r0, r0
    add8:	99 0b       	sbc	r25, r25
    adda:	0e 94 f9 42 	call	0x85f2	; 0x85f2 <_ZN9class_LED8setPixelEii5Color>
    adde:	d4 01       	movw	r26, r8
    ade0:	6c 91       	ld	r22, X
    ade2:	06 2e       	mov	r0, r22
    ade4:	00 0c       	add	r0, r0
    ade6:	77 0b       	sbc	r23, r23
    ade8:	f6 01       	movw	r30, r12
    adea:	80 81       	ld	r24, Z
    adec:	21 e0       	ldi	r18, 0x01	; 1
    adee:	42 e0       	ldi	r20, 0x02	; 2
    adf0:	50 e0       	ldi	r21, 0x00	; 0
    adf2:	08 2e       	mov	r0, r24
    adf4:	00 0c       	add	r0, r0
    adf6:	99 0b       	sbc	r25, r25
    adf8:	0e 94 36 45 	call	0x8a6c	; 0x8a6c <_ZN9class_LED6circleEiii5Color>
    adfc:	0e 94 77 43 	call	0x86ee	; 0x86ee <_ZN9class_LED7refreshEv>
    ae00:	60 e0       	ldi	r22, 0x00	; 0
    ae02:	82 e0       	ldi	r24, 0x02	; 2
    ae04:	0e 94 ac 68 	call	0xd158	; 0xd158 <_ZN10class_Wave4PlayE11WaveChannel8PlayMode>
    ae08:	44 e6       	ldi	r20, 0x64	; 100
    ae0a:	50 e0       	ldi	r21, 0x00	; 0
    ae0c:	60 e0       	ldi	r22, 0x00	; 0
    ae0e:	70 e0       	ldi	r23, 0x00	; 0
    ae10:	8f ea       	ldi	r24, 0xAF	; 175
    ae12:	97 e0       	ldi	r25, 0x07	; 7
    ae14:	0e 94 5d 66 	call	0xccba	; 0xccba <_ZN11class_Timer17delayMillisecondsEm>
    ae18:	60 91 79 03 	lds	r22, 0x0379	; 0x800379 <_cobra+0x1>
    ae1c:	06 2e       	mov	r0, r22
    ae1e:	00 0c       	add	r0, r0
    ae20:	77 0b       	sbc	r23, r23
    ae22:	80 91 78 03 	lds	r24, 0x0378	; 0x800378 <_cobra>
    ae26:	40 e0       	ldi	r20, 0x00	; 0
    ae28:	08 2e       	mov	r0, r24
    ae2a:	00 0c       	add	r0, r0
    ae2c:	99 0b       	sbc	r25, r25
    ae2e:	0e 94 f9 42 	call	0x85f2	; 0x85f2 <_ZN9class_LED8setPixelEii5Color>
    ae32:	d4 01       	movw	r26, r8
    ae34:	6c 91       	ld	r22, X
    ae36:	06 2e       	mov	r0, r22
    ae38:	00 0c       	add	r0, r0
    ae3a:	77 0b       	sbc	r23, r23
    ae3c:	f6 01       	movw	r30, r12
    ae3e:	80 81       	ld	r24, Z
    ae40:	20 e0       	ldi	r18, 0x00	; 0
    ae42:	42 e0       	ldi	r20, 0x02	; 2
    ae44:	50 e0       	ldi	r21, 0x00	; 0
    ae46:	08 2e       	mov	r0, r24
    ae48:	00 0c       	add	r0, r0
    ae4a:	99 0b       	sbc	r25, r25
    ae4c:	0e 94 36 45 	call	0x8a6c	; 0x8a6c <_ZN9class_LED6circleEiii5Color>
    ae50:	0e 94 77 43 	call	0x86ee	; 0x86ee <_ZN9class_LED7refreshEv>
    ae54:	44 e6       	ldi	r20, 0x64	; 100
    ae56:	50 e0       	ldi	r21, 0x00	; 0
    ae58:	60 e0       	ldi	r22, 0x00	; 0
    ae5a:	70 e0       	ldi	r23, 0x00	; 0
    ae5c:	8f ea       	ldi	r24, 0xAF	; 175
    ae5e:	97 e0       	ldi	r25, 0x07	; 7
    ae60:	0e 94 5d 66 	call	0xccba	; 0xccba <_ZN11class_Timer17delayMillisecondsEm>
    ae64:	aa 94       	dec	r10
    ae66:	a1 10       	cpse	r10, r1
    ae68:	ad cf       	rjmp	.-166    	; 0xadc4 <_Z14COBRA_MainGamev+0x53e>
    ae6a:	80 e0       	ldi	r24, 0x00	; 0
    ae6c:	0e 94 8a 43 	call	0x8714	; 0x8714 <_ZN9class_LED11setFillModeEb>
    ae70:	aa 24       	eor	r10, r10
    ae72:	a3 94       	inc	r10
    ae74:	0f 5f       	subi	r16, 0xFF	; 255
    ae76:	81 cf       	rjmp	.-254    	; 0xad7a <_Z14COBRA_MainGamev+0x4f4>
    ae78:	0e 94 77 43 	call	0x86ee	; 0x86ee <_ZN9class_LED7refreshEv>
    ae7c:	98 cd       	rjmp	.-1232   	; 0xa9ae <_Z14COBRA_MainGamev+0x128>
    ae7e:	60 e0       	ldi	r22, 0x00	; 0
    ae80:	83 e0       	ldi	r24, 0x03	; 3
    ae82:	0e 94 ac 68 	call	0xd158	; 0xd158 <_ZN10class_Wave4PlayE11WaveChannel8PlayMode>
    ae86:	8e 89       	ldd	r24, Y+22	; 0x16
    ae88:	0e 94 f6 45 	call	0x8bec	; 0x8bec <_ZN9class_LED7setFontE8CharFont>
    ae8c:	8d ea       	ldi	r24, 0xAD	; 173
    ae8e:	97 e0       	ldi	r25, 0x07	; 7
    ae90:	0e 94 bc 41 	call	0x8378	; 0x8378 <_ZN9class_KBD14waitKbdReleaseEv>
    ae94:	66 96       	adiw	r28, 0x16	; 22
    ae96:	0f b6       	in	r0, 0x3f	; 63
    ae98:	f8 94       	cli
    ae9a:	de bf       	out	0x3e, r29	; 62
    ae9c:	0f be       	out	0x3f, r0	; 63
    ae9e:	cd bf       	out	0x3d, r28	; 61
    aea0:	df 91       	pop	r29
    aea2:	cf 91       	pop	r28
    aea4:	1f 91       	pop	r17
    aea6:	0f 91       	pop	r16
    aea8:	ff 90       	pop	r15
    aeaa:	ef 90       	pop	r14
    aeac:	df 90       	pop	r13
    aeae:	cf 90       	pop	r12
    aeb0:	bf 90       	pop	r11
    aeb2:	af 90       	pop	r10
    aeb4:	9f 90       	pop	r9
    aeb6:	8f 90       	pop	r8
    aeb8:	7f 90       	pop	r7
    aeba:	6f 90       	pop	r6
    aebc:	5f 90       	pop	r5
    aebe:	4f 90       	pop	r4
    aec0:	3f 90       	pop	r3
    aec2:	2f 90       	pop	r2
    aec4:	08 95       	ret
    aec6:	44 e1       	ldi	r20, 0x14	; 20
    aec8:	50 e0       	ldi	r21, 0x00	; 0
    aeca:	60 e0       	ldi	r22, 0x00	; 0
    aecc:	70 e0       	ldi	r23, 0x00	; 0
    aece:	8f ea       	ldi	r24, 0xAF	; 175
    aed0:	97 e0       	ldi	r25, 0x07	; 7
    aed2:	0e 94 5d 66 	call	0xccba	; 0xccba <_ZN11class_Timer17delayMillisecondsEm>
    aed6:	cf cd       	rjmp	.-1122   	; 0xaa76 <_Z14COBRA_MainGamev+0x1f0>

0000aed8 <_Z13TEAD_MainGameb>:
    aed8:	2f 92       	push	r2
    aeda:	3f 92       	push	r3
    aedc:	4f 92       	push	r4
    aede:	5f 92       	push	r5
    aee0:	6f 92       	push	r6
    aee2:	7f 92       	push	r7
    aee4:	8f 92       	push	r8
    aee6:	9f 92       	push	r9
    aee8:	af 92       	push	r10
    aeea:	bf 92       	push	r11
    aeec:	cf 92       	push	r12
    aeee:	df 92       	push	r13
    aef0:	ef 92       	push	r14
    aef2:	ff 92       	push	r15
    aef4:	0f 93       	push	r16
    aef6:	1f 93       	push	r17
    aef8:	cf 93       	push	r28
    aefa:	df 93       	push	r29
    aefc:	cd b7       	in	r28, 0x3d	; 61
    aefe:	de b7       	in	r29, 0x3e	; 62
    af00:	63 97       	sbiw	r28, 0x13	; 19
    af02:	0f b6       	in	r0, 0x3f	; 63
    af04:	f8 94       	cli
    af06:	de bf       	out	0x3e, r29	; 62
    af08:	0f be       	out	0x3f, r0	; 63
    af0a:	cd bf       	out	0x3d, r28	; 61
    af0c:	68 2e       	mov	r6, r24
    af0e:	80 93 7e 07 	sts	0x077E, r24	; 0x80077e <_tead+0x304>
    af12:	8a ea       	ldi	r24, 0xAA	; 170
    af14:	97 e0       	ldi	r25, 0x07	; 7
    af16:	0e 94 fc 3f 	call	0x7ff8	; 0x7ff8 <_ZN9class_ADC9calibrateEv>
    af1a:	8d ea       	ldi	r24, 0xAD	; 173
    af1c:	97 e0       	ldi	r25, 0x07	; 7
    af1e:	0e 94 85 41 	call	0x830a	; 0x830a <_ZN9class_KBD11getKbdStateEv>
    af22:	82 30       	cpi	r24, 0x02	; 2
    af24:	f1 f0       	breq	.+60     	; 0xaf62 <_Z13TEAD_MainGameb+0x8a>
    af26:	80 34       	cpi	r24, 0x40	; 64
    af28:	09 f0       	breq	.+2      	; 0xaf2c <_Z13TEAD_MainGameb+0x54>
    af2a:	6d c0       	rjmp	.+218    	; 0xb006 <_Z13TEAD_MainGameb+0x12e>
    af2c:	81 e0       	ldi	r24, 0x01	; 1
    af2e:	0e 94 f6 45 	call	0x8bec	; 0x8bec <_ZN9class_LED7setFontE8CharFont>
    af32:	81 e0       	ldi	r24, 0x01	; 1
    af34:	0e 94 8a 43 	call	0x8714	; 0x8714 <_ZN9class_LED11setFillModeEb>
    af38:	01 e0       	ldi	r16, 0x01	; 1
    af3a:	20 e1       	ldi	r18, 0x10	; 16
    af3c:	30 e0       	ldi	r19, 0x00	; 0
    af3e:	48 e1       	ldi	r20, 0x18	; 24
    af40:	50 e0       	ldi	r21, 0x00	; 0
    af42:	60 e0       	ldi	r22, 0x00	; 0
    af44:	70 e0       	ldi	r23, 0x00	; 0
    af46:	80 e0       	ldi	r24, 0x00	; 0
    af48:	90 e0       	ldi	r25, 0x00	; 0
    af4a:	0e 94 91 45 	call	0x8b22	; 0x8b22 <_ZN9class_LED9rectangleEiiii5Color>
    af4e:	0e 94 77 43 	call	0x86ee	; 0x86ee <_ZN9class_LED7refreshEv>
    af52:	8d ea       	ldi	r24, 0xAD	; 173
    af54:	97 e0       	ldi	r25, 0x07	; 7
    af56:	0e 94 bc 41 	call	0x8378	; 0x8378 <_ZN9class_KBD14waitKbdReleaseEv>
    af5a:	81 e0       	ldi	r24, 0x01	; 1
    af5c:	0e 94 f6 45 	call	0x8bec	; 0x8bec <_ZN9class_LED7setFontE8CharFont>
    af60:	4f c0       	rjmp	.+158    	; 0xb000 <_Z13TEAD_MainGameb+0x128>
    af62:	60 e0       	ldi	r22, 0x00	; 0
    af64:	70 e0       	ldi	r23, 0x00	; 0
    af66:	84 e0       	ldi	r24, 0x04	; 4
    af68:	92 e0       	ldi	r25, 0x02	; 2
    af6a:	0e 94 5b 4a 	call	0x94b6	; 0x94b6 <_ZL13scrollMessagePKcii.constprop.10>
    af6e:	68 e0       	ldi	r22, 0x08	; 8
    af70:	70 e0       	ldi	r23, 0x00	; 0
    af72:	8e e2       	ldi	r24, 0x2E	; 46
    af74:	92 e0       	ldi	r25, 0x02	; 2
    af76:	0e 94 5b 4a 	call	0x94b6	; 0x94b6 <_ZL13scrollMessagePKcii.constprop.10>
    af7a:	60 e0       	ldi	r22, 0x00	; 0
    af7c:	70 e0       	ldi	r23, 0x00	; 0
    af7e:	8b e4       	ldi	r24, 0x4B	; 75
    af80:	92 e0       	ldi	r25, 0x02	; 2
    af82:	0e 94 5b 4a 	call	0x94b6	; 0x94b6 <_ZL13scrollMessagePKcii.constprop.10>
    af86:	68 e0       	ldi	r22, 0x08	; 8
    af88:	70 e0       	ldi	r23, 0x00	; 0
    af8a:	85 e5       	ldi	r24, 0x55	; 85
    af8c:	92 e0       	ldi	r25, 0x02	; 2
    af8e:	0e 94 5b 4a 	call	0x94b6	; 0x94b6 <_ZL13scrollMessagePKcii.constprop.10>
    af92:	60 e0       	ldi	r22, 0x00	; 0
    af94:	70 e0       	ldi	r23, 0x00	; 0
    af96:	8d e5       	ldi	r24, 0x5D	; 93
    af98:	92 e0       	ldi	r25, 0x02	; 2
    af9a:	0e 94 5b 4a 	call	0x94b6	; 0x94b6 <_ZL13scrollMessagePKcii.constprop.10>
    af9e:	68 e0       	ldi	r22, 0x08	; 8
    afa0:	70 e0       	ldi	r23, 0x00	; 0
    afa2:	87 e6       	ldi	r24, 0x67	; 103
    afa4:	92 e0       	ldi	r25, 0x02	; 2
    afa6:	0e 94 5b 4a 	call	0x94b6	; 0x94b6 <_ZL13scrollMessagePKcii.constprop.10>
    afaa:	60 e0       	ldi	r22, 0x00	; 0
    afac:	70 e0       	ldi	r23, 0x00	; 0
    afae:	8b e6       	ldi	r24, 0x6B	; 107
    afb0:	92 e0       	ldi	r25, 0x02	; 2
    afb2:	0e 94 5b 4a 	call	0x94b6	; 0x94b6 <_ZL13scrollMessagePKcii.constprop.10>
    afb6:	68 e0       	ldi	r22, 0x08	; 8
    afb8:	70 e0       	ldi	r23, 0x00	; 0
    afba:	8a e7       	ldi	r24, 0x7A	; 122
    afbc:	92 e0       	ldi	r25, 0x02	; 2
    afbe:	0e 94 5b 4a 	call	0x94b6	; 0x94b6 <_ZL13scrollMessagePKcii.constprop.10>
    afc2:	60 e0       	ldi	r22, 0x00	; 0
    afc4:	70 e0       	ldi	r23, 0x00	; 0
    afc6:	85 e8       	ldi	r24, 0x85	; 133
    afc8:	92 e0       	ldi	r25, 0x02	; 2
    afca:	0e 94 5b 4a 	call	0x94b6	; 0x94b6 <_ZL13scrollMessagePKcii.constprop.10>
    afce:	c9 cf       	rjmp	.-110    	; 0xaf62 <_Z13TEAD_MainGameb+0x8a>
    afd0:	2f ef       	ldi	r18, 0xFF	; 255
    afd2:	e2 1a       	sub	r14, r18
    afd4:	f2 0a       	sbc	r15, r18
    afd6:	31 ea       	ldi	r19, 0xA1	; 161
    afd8:	e3 16       	cp	r14, r19
    afda:	3f e0       	ldi	r19, 0x0F	; 15
    afdc:	f3 06       	cpc	r15, r19
    afde:	14 f0       	brlt	.+4      	; 0xafe4 <_Z13TEAD_MainGameb+0x10c>
    afe0:	0e 94 0c 49 	call	0x9218	; 0x9218 <_ZL5Resetv>
    afe4:	41 e0       	ldi	r20, 0x01	; 1
    afe6:	50 e0       	ldi	r21, 0x00	; 0
    afe8:	60 e0       	ldi	r22, 0x00	; 0
    afea:	70 e0       	ldi	r23, 0x00	; 0
    afec:	8f ea       	ldi	r24, 0xAF	; 175
    afee:	97 e0       	ldi	r25, 0x07	; 7
    aff0:	0e 94 5d 66 	call	0xccba	; 0xccba <_ZN11class_Timer17delayMillisecondsEm>
    aff4:	8d ea       	ldi	r24, 0xAD	; 173
    aff6:	97 e0       	ldi	r25, 0x07	; 7
    aff8:	0e 94 85 41 	call	0x830a	; 0x830a <_ZN9class_KBD11getKbdStateEv>
    affc:	80 34       	cpi	r24, 0x40	; 64
    affe:	41 f3       	breq	.-48     	; 0xafd0 <_Z13TEAD_MainGameb+0xf8>
    b000:	e1 2c       	mov	r14, r1
    b002:	f1 2c       	mov	r15, r1
    b004:	ef cf       	rjmp	.-34     	; 0xafe4 <_Z13TEAD_MainGameb+0x10c>
    b006:	41 e0       	ldi	r20, 0x01	; 1
    b008:	61 e0       	ldi	r22, 0x01	; 1
    b00a:	81 e0       	ldi	r24, 0x01	; 1
    b00c:	0e 94 fd 4d 	call	0x9bfa	; 0x9bfa <_Z19TEAD_initializeGamebbb>
    b010:	61 10       	cpse	r6, r1
    b012:	03 c0       	rjmp	.+6      	; 0xb01a <_Z13TEAD_MainGameb+0x142>
    b014:	80 e0       	ldi	r24, 0x00	; 0
    b016:	0e 94 d8 5b 	call	0xb7b0	; 0xb7b0 <_Z28TEAD_showGameOverAndMessagesb>
    b01a:	be 01       	movw	r22, r28
    b01c:	67 5f       	subi	r22, 0xF7	; 247
    b01e:	7f 4f       	sbci	r23, 0xFF	; 255
    b020:	8f ea       	ldi	r24, 0xAF	; 175
    b022:	97 e0       	ldi	r25, 0x07	; 7
    b024:	0e 94 3d 66 	call	0xcc7a	; 0xcc7a <_ZN11class_Timer10setElapsedERm>
    b028:	4d ef       	ldi	r20, 0xFD	; 253
    b02a:	a4 2e       	mov	r10, r20
    b02c:	46 e0       	ldi	r20, 0x06	; 6
    b02e:	b4 2e       	mov	r11, r20
    b030:	5f ea       	ldi	r21, 0xAF	; 175
    b032:	85 2e       	mov	r8, r21
    b034:	52 e0       	ldi	r21, 0x02	; 2
    b036:	95 2e       	mov	r9, r21
    b038:	0e 94 a9 53 	call	0xa752	; 0xa752 <_Z35TEAD_processMotherShipAppearAndMovev>
    b03c:	0e 94 d8 4c 	call	0x99b0	; 0x99b0 <_Z22TEAD_processCannonMovev>
    b040:	0e 94 db 5e 	call	0xbdb6	; 0xbdb6 <_Z21TEAD_processShipsMovev>
    b044:	0e 94 dc 4f 	call	0x9fb8	; 0x9fb8 <_Z26TEAD_processFireFromCannonv>
    b048:	0e 94 5d 60 	call	0xc0ba	; 0xc0ba <_Z25TEAD_processFireFromShipsv>
    b04c:	0e 94 6e 53 	call	0xa6dc	; 0xa6dc <_Z28TEAD_processShipsHitBarriersv>
    b050:	0e 94 1f 60 	call	0xc03e	; 0xc03e <_Z26TEAD_processShipsHitCannonv>
    b054:	0e 94 fc 52 	call	0xa5f8	; 0xa5f8 <_Z19TEAD_getShipsAlivesv>
    b058:	0e 94 ca 4d 	call	0x9b94	; 0x9b94 <_Z17TEAD_updateScreenv>
    b05c:	8d ea       	ldi	r24, 0xAD	; 173
    b05e:	97 e0       	ldi	r25, 0x07	; 7
    b060:	0e 94 85 41 	call	0x830a	; 0x830a <_ZN9class_KBD11getKbdStateEv>
    b064:	80 34       	cpi	r24, 0x40	; 64
    b066:	09 f0       	breq	.+2      	; 0xb06a <_Z13TEAD_MainGameb+0x192>
    b068:	4d c3       	rjmp	.+1690   	; 0xb704 <_Z13TEAD_MainGameb+0x82c>
    b06a:	8d ea       	ldi	r24, 0xAD	; 173
    b06c:	97 e0       	ldi	r25, 0x07	; 7
    b06e:	0e 94 bc 41 	call	0x8378	; 0x8378 <_ZN9class_KBD14waitKbdReleaseEv>
    b072:	0e 94 f9 45 	call	0x8bf2	; 0x8bf2 <_ZN9class_LED7getFontEv>
    b076:	48 2e       	mov	r4, r24
    b078:	0e 94 f6 45 	call	0x8bec	; 0x8bec <_ZN9class_LED7setFontE8CharFont>
    b07c:	be 01       	movw	r22, r28
    b07e:	6b 5f       	subi	r22, 0xFB	; 251
    b080:	7f 4f       	sbci	r23, 0xFF	; 255
    b082:	8f ea       	ldi	r24, 0xAF	; 175
    b084:	97 e0       	ldi	r25, 0x07	; 7
    b086:	0e 94 3d 66 	call	0xcc7a	; 0xcc7a <_ZN11class_Timer10setElapsedERm>
    b08a:	71 2c       	mov	r7, r1
    b08c:	c1 2c       	mov	r12, r1
    b08e:	d1 2c       	mov	r13, r1
    b090:	e1 2c       	mov	r14, r1
    b092:	f1 2c       	mov	r15, r1
    b094:	80 e0       	ldi	r24, 0x00	; 0
    b096:	0e 94 46 42 	call	0x848c	; 0x848c <_ZN9class_LED3clsEb>
    b09a:	20 e0       	ldi	r18, 0x00	; 0
    b09c:	4f e7       	ldi	r20, 0x7F	; 127
    b09e:	5d e7       	ldi	r21, 0x7D	; 125
    b0a0:	60 e0       	ldi	r22, 0x00	; 0
    b0a2:	70 e0       	ldi	r23, 0x00	; 0
    b0a4:	80 e0       	ldi	r24, 0x00	; 0
    b0a6:	90 e0       	ldi	r25, 0x00	; 0
    b0a8:	0e 94 f2 47 	call	0x8fe4	; 0x8fe4 <_ZN9class_LED3bmpEiiPKhb>
    b0ac:	20 e0       	ldi	r18, 0x00	; 0
    b0ae:	45 e6       	ldi	r20, 0x65	; 101
    b0b0:	5d e7       	ldi	r21, 0x7D	; 125
    b0b2:	60 e0       	ldi	r22, 0x00	; 0
    b0b4:	70 e0       	ldi	r23, 0x00	; 0
    b0b6:	88 e0       	ldi	r24, 0x08	; 8
    b0b8:	90 e0       	ldi	r25, 0x00	; 0
    b0ba:	0e 94 f2 47 	call	0x8fe4	; 0x8fe4 <_ZN9class_LED3bmpEiiPKhb>
    b0be:	20 e0       	ldi	r18, 0x00	; 0
    b0c0:	4b e4       	ldi	r20, 0x4B	; 75
    b0c2:	5d e7       	ldi	r21, 0x7D	; 125
    b0c4:	60 e0       	ldi	r22, 0x00	; 0
    b0c6:	70 e0       	ldi	r23, 0x00	; 0
    b0c8:	80 e1       	ldi	r24, 0x10	; 16
    b0ca:	90 e0       	ldi	r25, 0x00	; 0
    b0cc:	0e 94 f2 47 	call	0x8fe4	; 0x8fe4 <_ZN9class_LED3bmpEiiPKhb>
    b0d0:	20 e0       	ldi	r18, 0x00	; 0
    b0d2:	43 eb       	ldi	r20, 0xB3	; 179
    b0d4:	5d e7       	ldi	r21, 0x7D	; 125
    b0d6:	68 e0       	ldi	r22, 0x08	; 8
    b0d8:	70 e0       	ldi	r23, 0x00	; 0
    b0da:	80 e0       	ldi	r24, 0x00	; 0
    b0dc:	90 e0       	ldi	r25, 0x00	; 0
    b0de:	0e 94 f2 47 	call	0x8fe4	; 0x8fe4 <_ZN9class_LED3bmpEiiPKhb>
    b0e2:	20 e0       	ldi	r18, 0x00	; 0
    b0e4:	49 e9       	ldi	r20, 0x99	; 153
    b0e6:	5d e7       	ldi	r21, 0x7D	; 125
    b0e8:	68 e0       	ldi	r22, 0x08	; 8
    b0ea:	70 e0       	ldi	r23, 0x00	; 0
    b0ec:	88 e0       	ldi	r24, 0x08	; 8
    b0ee:	90 e0       	ldi	r25, 0x00	; 0
    b0f0:	0e 94 f2 47 	call	0x8fe4	; 0x8fe4 <_ZN9class_LED3bmpEiiPKhb>
    b0f4:	20 e0       	ldi	r18, 0x00	; 0
    b0f6:	41 e3       	ldi	r20, 0x31	; 49
    b0f8:	5d e7       	ldi	r21, 0x7D	; 125
    b0fa:	68 e0       	ldi	r22, 0x08	; 8
    b0fc:	70 e0       	ldi	r23, 0x00	; 0
    b0fe:	80 e1       	ldi	r24, 0x10	; 16
    b100:	90 e0       	ldi	r25, 0x00	; 0
    b102:	0e 94 f2 47 	call	0x8fe4	; 0x8fe4 <_ZN9class_LED3bmpEiiPKhb>
    b106:	be 01       	movw	r22, r28
    b108:	6b 5f       	subi	r22, 0xFB	; 251
    b10a:	7f 4f       	sbci	r23, 0xFF	; 255
    b10c:	8f ea       	ldi	r24, 0xAF	; 175
    b10e:	97 e0       	ldi	r25, 0x07	; 7
    b110:	0e 94 49 66 	call	0xcc92	; 0xcc92 <_ZN11class_Timer10getElapsedERm>
    b114:	6b 3f       	cpi	r22, 0xFB	; 251
    b116:	71 05       	cpc	r23, r1
    b118:	81 05       	cpc	r24, r1
    b11a:	91 05       	cpc	r25, r1
    b11c:	48 f0       	brcs	.+18     	; 0xb130 <_Z13TEAD_MainGameb+0x258>
    b11e:	be 01       	movw	r22, r28
    b120:	6b 5f       	subi	r22, 0xFB	; 251
    b122:	7f 4f       	sbci	r23, 0xFF	; 255
    b124:	8f ea       	ldi	r24, 0xAF	; 175
    b126:	97 e0       	ldi	r25, 0x07	; 7
    b128:	0e 94 3d 66 	call	0xcc7a	; 0xcc7a <_ZN11class_Timer10setElapsedERm>
    b12c:	81 e0       	ldi	r24, 0x01	; 1
    b12e:	78 26       	eor	r7, r24
    b130:	77 20       	and	r7, r7
    b132:	79 f0       	breq	.+30     	; 0xb152 <_Z13TEAD_MainGameb+0x27a>
    b134:	81 e0       	ldi	r24, 0x01	; 1
    b136:	0e 94 8a 43 	call	0x8714	; 0x8714 <_ZN9class_LED11setFillModeEb>
    b13a:	00 e0       	ldi	r16, 0x00	; 0
    b13c:	28 e0       	ldi	r18, 0x08	; 8
    b13e:	30 e0       	ldi	r19, 0x00	; 0
    b140:	48 e0       	ldi	r20, 0x08	; 8
    b142:	50 e0       	ldi	r21, 0x00	; 0
    b144:	b6 01       	movw	r22, r12
    b146:	c7 01       	movw	r24, r14
    b148:	0e 94 91 45 	call	0x8b22	; 0x8b22 <_ZN9class_LED9rectangleEiiii5Color>
    b14c:	80 e0       	ldi	r24, 0x00	; 0
    b14e:	0e 94 8a 43 	call	0x8714	; 0x8714 <_ZN9class_LED11setFillModeEb>
    b152:	0e 94 77 43 	call	0x86ee	; 0x86ee <_ZN9class_LED7refreshEv>
    b156:	8d ea       	ldi	r24, 0xAD	; 173
    b158:	97 e0       	ldi	r25, 0x07	; 7
    b15a:	0e 94 85 41 	call	0x830a	; 0x830a <_ZN9class_KBD11getKbdStateEv>
    b15e:	88 30       	cpi	r24, 0x08	; 8
    b160:	29 f1       	breq	.+74     	; 0xb1ac <_Z13TEAD_MainGameb+0x2d4>
    b162:	48 f4       	brcc	.+18     	; 0xb176 <_Z13TEAD_MainGameb+0x29e>
    b164:	82 30       	cpi	r24, 0x02	; 2
    b166:	09 f4       	brne	.+2      	; 0xb16a <_Z13TEAD_MainGameb+0x292>
    b168:	47 c0       	rjmp	.+142    	; 0xb1f8 <_Z13TEAD_MainGameb+0x320>
    b16a:	84 30       	cpi	r24, 0x04	; 4
    b16c:	99 f1       	breq	.+102    	; 0xb1d4 <_Z13TEAD_MainGameb+0x2fc>
    b16e:	81 30       	cpi	r24, 0x01	; 1
    b170:	09 f0       	breq	.+2      	; 0xb174 <_Z13TEAD_MainGameb+0x29c>
    b172:	90 cf       	rjmp	.-224    	; 0xb094 <_Z13TEAD_MainGameb+0x1bc>
    b174:	26 c0       	rjmp	.+76     	; 0xb1c2 <_Z13TEAD_MainGameb+0x2ea>
    b176:	80 32       	cpi	r24, 0x20	; 32
    b178:	89 f0       	breq	.+34     	; 0xb19c <_Z13TEAD_MainGameb+0x2c4>
    b17a:	80 34       	cpi	r24, 0x40	; 64
    b17c:	79 f0       	breq	.+30     	; 0xb19c <_Z13TEAD_MainGameb+0x2c4>
    b17e:	80 31       	cpi	r24, 0x10	; 16
    b180:	09 f0       	breq	.+2      	; 0xb184 <_Z13TEAD_MainGameb+0x2ac>
    b182:	88 cf       	rjmp	.-240    	; 0xb094 <_Z13TEAD_MainGameb+0x1bc>
    b184:	60 e0       	ldi	r22, 0x00	; 0
    b186:	85 e0       	ldi	r24, 0x05	; 5
    b188:	0e 94 ac 68 	call	0xd158	; 0xd158 <_ZN10class_Wave4PlayE11WaveChannel8PlayMode>
    b18c:	8d ea       	ldi	r24, 0xAD	; 173
    b18e:	97 e0       	ldi	r25, 0x07	; 7
    b190:	0e 94 bc 41 	call	0x8378	; 0x8378 <_ZN9class_KBD14waitKbdReleaseEv>
    b194:	38 e0       	ldi	r19, 0x08	; 8
    b196:	c3 2e       	mov	r12, r19
    b198:	d1 2c       	mov	r13, r1
    b19a:	7c cf       	rjmp	.-264    	; 0xb094 <_Z13TEAD_MainGameb+0x1bc>
    b19c:	84 2d       	mov	r24, r4
    b19e:	0e 94 f6 45 	call	0x8bec	; 0x8bec <_ZN9class_LED7setFontE8CharFont>
    b1a2:	8d ea       	ldi	r24, 0xAD	; 173
    b1a4:	97 e0       	ldi	r25, 0x07	; 7
    b1a6:	0e 94 bc 41 	call	0x8378	; 0x8378 <_ZN9class_KBD14waitKbdReleaseEv>
    b1aa:	ac c2       	rjmp	.+1368   	; 0xb704 <_Z13TEAD_MainGameb+0x82c>
    b1ac:	60 e0       	ldi	r22, 0x00	; 0
    b1ae:	85 e0       	ldi	r24, 0x05	; 5
    b1b0:	0e 94 ac 68 	call	0xd158	; 0xd158 <_ZN10class_Wave4PlayE11WaveChannel8PlayMode>
    b1b4:	8d ea       	ldi	r24, 0xAD	; 173
    b1b6:	97 e0       	ldi	r25, 0x07	; 7
    b1b8:	0e 94 bc 41 	call	0x8378	; 0x8378 <_ZN9class_KBD14waitKbdReleaseEv>
    b1bc:	c1 2c       	mov	r12, r1
    b1be:	d1 2c       	mov	r13, r1
    b1c0:	69 cf       	rjmp	.-302    	; 0xb094 <_Z13TEAD_MainGameb+0x1bc>
    b1c2:	88 e0       	ldi	r24, 0x08	; 8
    b1c4:	e8 1a       	sub	r14, r24
    b1c6:	f1 08       	sbc	r15, r1
    b1c8:	f7 fe       	sbrs	r15, 7
    b1ca:	0d c0       	rjmp	.+26     	; 0xb1e6 <_Z13TEAD_MainGameb+0x30e>
    b1cc:	20 e1       	ldi	r18, 0x10	; 16
    b1ce:	e2 2e       	mov	r14, r18
    b1d0:	f1 2c       	mov	r15, r1
    b1d2:	09 c0       	rjmp	.+18     	; 0xb1e6 <_Z13TEAD_MainGameb+0x30e>
    b1d4:	98 e0       	ldi	r25, 0x08	; 8
    b1d6:	e9 0e       	add	r14, r25
    b1d8:	f1 1c       	adc	r15, r1
    b1da:	21 e1       	ldi	r18, 0x11	; 17
    b1dc:	e2 16       	cp	r14, r18
    b1de:	f1 04       	cpc	r15, r1
    b1e0:	14 f0       	brlt	.+4      	; 0xb1e6 <_Z13TEAD_MainGameb+0x30e>
    b1e2:	e1 2c       	mov	r14, r1
    b1e4:	f1 2c       	mov	r15, r1
    b1e6:	60 e0       	ldi	r22, 0x00	; 0
    b1e8:	85 e0       	ldi	r24, 0x05	; 5
    b1ea:	0e 94 ac 68 	call	0xd158	; 0xd158 <_ZN10class_Wave4PlayE11WaveChannel8PlayMode>
    b1ee:	8d ea       	ldi	r24, 0xAD	; 173
    b1f0:	97 e0       	ldi	r25, 0x07	; 7
    b1f2:	0e 94 bc 41 	call	0x8378	; 0x8378 <_ZN9class_KBD14waitKbdReleaseEv>
    b1f6:	4e cf       	rjmp	.-356    	; 0xb094 <_Z13TEAD_MainGameb+0x1bc>
    b1f8:	e1 14       	cp	r14, r1
    b1fa:	f1 04       	cpc	r15, r1
    b1fc:	09 f0       	breq	.+2      	; 0xb200 <_Z13TEAD_MainGameb+0x328>
    b1fe:	19 c1       	rjmp	.+562    	; 0xb432 <_Z13TEAD_MainGameb+0x55a>
    b200:	c1 14       	cp	r12, r1
    b202:	d1 04       	cpc	r13, r1
    b204:	09 f0       	breq	.+2      	; 0xb208 <_Z13TEAD_MainGameb+0x330>
    b206:	c4 c2       	rjmp	.+1416   	; 0xb790 <_Z13TEAD_MainGameb+0x8b8>
    b208:	60 e0       	ldi	r22, 0x00	; 0
    b20a:	81 e0       	ldi	r24, 0x01	; 1
    b20c:	0e 94 ac 68 	call	0xd158	; 0xd158 <_ZN10class_Wave4PlayE11WaveChannel8PlayMode>
    b210:	80 e0       	ldi	r24, 0x00	; 0
    b212:	0e 94 46 42 	call	0x848c	; 0x848c <_ZN9class_LED3clsEb>
    b216:	0e 94 f9 45 	call	0x8bf2	; 0x8bf2 <_ZN9class_LED7getFontEv>
    b21a:	38 2e       	mov	r3, r24
    b21c:	80 e0       	ldi	r24, 0x00	; 0
    b21e:	0e 94 46 42 	call	0x848c	; 0x848c <_ZN9class_LED3clsEb>
    b222:	0e 94 77 43 	call	0x86ee	; 0x86ee <_ZN9class_LED7refreshEv>
    b226:	82 e0       	ldi	r24, 0x02	; 2
    b228:	0e 94 f6 45 	call	0x8bec	; 0x8bec <_ZN9class_LED7setFontE8CharFont>
    b22c:	01 e0       	ldi	r16, 0x01	; 1
    b22e:	9e 01       	movw	r18, r28
    b230:	20 5f       	subi	r18, 0xF0	; 240
    b232:	3f 4f       	sbci	r19, 0xFF	; 255
    b234:	ae 01       	movw	r20, r28
    b236:	4d 5e       	subi	r20, 0xED	; 237
    b238:	5f 4f       	sbci	r21, 0xFF	; 255
    b23a:	be 01       	movw	r22, r28
    b23c:	6e 5e       	subi	r22, 0xEE	; 238
    b23e:	7f 4f       	sbci	r23, 0xFF	; 255
    b240:	ce 01       	movw	r24, r28
    b242:	41 96       	adiw	r24, 0x11	; 17
    b244:	0e 94 72 65 	call	0xcae4	; 0xcae4 <_ZN9class_RTC7GetDateERhS0_S0_S0_b>
    b248:	21 e0       	ldi	r18, 0x01	; 1
    b24a:	ae 01       	movw	r20, r28
    b24c:	43 5f       	subi	r20, 0xF3	; 243
    b24e:	5f 4f       	sbci	r21, 0xFF	; 255
    b250:	be 01       	movw	r22, r28
    b252:	62 5f       	subi	r22, 0xF2	; 242
    b254:	7f 4f       	sbci	r23, 0xFF	; 255
    b256:	ce 01       	movw	r24, r28
    b258:	0f 96       	adiw	r24, 0x0f	; 15
    b25a:	0e 94 7e 64 	call	0xc8fc	; 0xc8fc <_ZN9class_RTC7GetTimeERhS0_S0_b>
    b25e:	8d ea       	ldi	r24, 0xAD	; 173
    b260:	97 e0       	ldi	r25, 0x07	; 7
    b262:	0e 94 bc 41 	call	0x8378	; 0x8378 <_ZN9class_KBD14waitKbdReleaseEv>
    b266:	be 01       	movw	r22, r28
    b268:	6f 5f       	subi	r22, 0xFF	; 255
    b26a:	7f 4f       	sbci	r23, 0xFF	; 255
    b26c:	8f ea       	ldi	r24, 0xAF	; 175
    b26e:	97 e0       	ldi	r25, 0x07	; 7
    b270:	0e 94 3d 66 	call	0xcc7a	; 0xcc7a <_ZN11class_Timer10setElapsedERm>
    b274:	51 2c       	mov	r5, r1
    b276:	10 e0       	ldi	r17, 0x00	; 0
    b278:	9b e3       	ldi	r25, 0x3B	; 59
    b27a:	29 2e       	mov	r2, r25
    b27c:	80 e0       	ldi	r24, 0x00	; 0
    b27e:	0e 94 46 42 	call	0x848c	; 0x848c <_ZN9class_LED3clsEb>
    b282:	20 e0       	ldi	r18, 0x00	; 0
    b284:	43 eb       	ldi	r20, 0xB3	; 179
    b286:	5d e7       	ldi	r21, 0x7D	; 125
    b288:	68 e0       	ldi	r22, 0x08	; 8
    b28a:	70 e0       	ldi	r23, 0x00	; 0
    b28c:	80 e1       	ldi	r24, 0x10	; 16
    b28e:	90 e0       	ldi	r25, 0x00	; 0
    b290:	0e 94 f2 47 	call	0x8fe4	; 0x8fe4 <_ZN9class_LED3bmpEiiPKhb>
    b294:	60 e0       	ldi	r22, 0x00	; 0
    b296:	70 e0       	ldi	r23, 0x00	; 0
    b298:	80 e0       	ldi	r24, 0x00	; 0
    b29a:	90 e0       	ldi	r25, 0x00	; 0
    b29c:	0e 94 2f 45 	call	0x8a5e	; 0x8a5e <_ZN9class_LED6moveToEii>
    b2a0:	8d 85       	ldd	r24, Y+13	; 0x0d
    b2a2:	1f 92       	push	r1
    b2a4:	8f 93       	push	r24
    b2a6:	8e 85       	ldd	r24, Y+14	; 0x0e
    b2a8:	1f 92       	push	r1
    b2aa:	8f 93       	push	r24
    b2ac:	8f 85       	ldd	r24, Y+15	; 0x0f
    b2ae:	1f 92       	push	r1
    b2b0:	8f 93       	push	r24
    b2b2:	9f 92       	push	r9
    b2b4:	8f 92       	push	r8
    b2b6:	bf 92       	push	r11
    b2b8:	af 92       	push	r10
    b2ba:	0e 94 6b 6a 	call	0xd4d6	; 0xd4d6 <sprintf>
    b2be:	61 e0       	ldi	r22, 0x01	; 1
    b2c0:	8d ef       	ldi	r24, 0xFD	; 253
    b2c2:	96 e0       	ldi	r25, 0x06	; 6
    b2c4:	0e 94 90 47 	call	0x8f20	; 0x8f20 <_ZN9class_LED4putSEPKc5Color>
    b2c8:	be 01       	movw	r22, r28
    b2ca:	6f 5f       	subi	r22, 0xFF	; 255
    b2cc:	7f 4f       	sbci	r23, 0xFF	; 255
    b2ce:	8f ea       	ldi	r24, 0xAF	; 175
    b2d0:	97 e0       	ldi	r25, 0x07	; 7
    b2d2:	0e 94 49 66 	call	0xcc92	; 0xcc92 <_ZN11class_Timer10getElapsedERm>
    b2d6:	0f b6       	in	r0, 0x3f	; 63
    b2d8:	f8 94       	cli
    b2da:	de bf       	out	0x3e, r29	; 62
    b2dc:	0f be       	out	0x3f, r0	; 63
    b2de:	cd bf       	out	0x3d, r28	; 61
    b2e0:	6b 3f       	cpi	r22, 0xFB	; 251
    b2e2:	71 05       	cpc	r23, r1
    b2e4:	81 05       	cpc	r24, r1
    b2e6:	91 05       	cpc	r25, r1
    b2e8:	48 f0       	brcs	.+18     	; 0xb2fc <_Z13TEAD_MainGameb+0x424>
    b2ea:	be 01       	movw	r22, r28
    b2ec:	6f 5f       	subi	r22, 0xFF	; 255
    b2ee:	7f 4f       	sbci	r23, 0xFF	; 255
    b2f0:	8f ea       	ldi	r24, 0xAF	; 175
    b2f2:	97 e0       	ldi	r25, 0x07	; 7
    b2f4:	0e 94 3d 66 	call	0xcc7a	; 0xcc7a <_ZN11class_Timer10setElapsedERm>
    b2f8:	81 e0       	ldi	r24, 0x01	; 1
    b2fa:	58 26       	eor	r5, r24
    b2fc:	55 20       	and	r5, r5
    b2fe:	19 f1       	breq	.+70     	; 0xb346 <_Z13TEAD_MainGameb+0x46e>
    b300:	11 30       	cpi	r17, 0x01	; 1
    b302:	61 f0       	breq	.+24     	; 0xb31c <_Z13TEAD_MainGameb+0x444>
    b304:	12 30       	cpi	r17, 0x02	; 2
    b306:	a1 f0       	breq	.+40     	; 0xb330 <_Z13TEAD_MainGameb+0x458>
    b308:	11 11       	cpse	r17, r1
    b30a:	1d c0       	rjmp	.+58     	; 0xb346 <_Z13TEAD_MainGameb+0x46e>
    b30c:	01 e0       	ldi	r16, 0x01	; 1
    b30e:	21 e0       	ldi	r18, 0x01	; 1
    b310:	30 e0       	ldi	r19, 0x00	; 0
    b312:	4c e0       	ldi	r20, 0x0C	; 12
    b314:	50 e0       	ldi	r21, 0x00	; 0
    b316:	67 e0       	ldi	r22, 0x07	; 7
    b318:	70 e0       	ldi	r23, 0x00	; 0
    b31a:	11 c0       	rjmp	.+34     	; 0xb33e <_Z13TEAD_MainGameb+0x466>
    b31c:	01 e0       	ldi	r16, 0x01	; 1
    b31e:	21 e0       	ldi	r18, 0x01	; 1
    b320:	30 e0       	ldi	r19, 0x00	; 0
    b322:	4c e0       	ldi	r20, 0x0C	; 12
    b324:	50 e0       	ldi	r21, 0x00	; 0
    b326:	67 e0       	ldi	r22, 0x07	; 7
    b328:	70 e0       	ldi	r23, 0x00	; 0
    b32a:	8c e0       	ldi	r24, 0x0C	; 12
    b32c:	90 e0       	ldi	r25, 0x00	; 0
    b32e:	09 c0       	rjmp	.+18     	; 0xb342 <_Z13TEAD_MainGameb+0x46a>
    b330:	01 e0       	ldi	r16, 0x01	; 1
    b332:	21 e0       	ldi	r18, 0x01	; 1
    b334:	30 e0       	ldi	r19, 0x00	; 0
    b336:	4c e0       	ldi	r20, 0x0C	; 12
    b338:	50 e0       	ldi	r21, 0x00	; 0
    b33a:	6f e0       	ldi	r22, 0x0F	; 15
    b33c:	70 e0       	ldi	r23, 0x00	; 0
    b33e:	80 e0       	ldi	r24, 0x00	; 0
    b340:	90 e0       	ldi	r25, 0x00	; 0
    b342:	0e 94 91 45 	call	0x8b22	; 0x8b22 <_ZN9class_LED9rectangleEiiii5Color>
    b346:	0e 94 77 43 	call	0x86ee	; 0x86ee <_ZN9class_LED7refreshEv>
    b34a:	8d ea       	ldi	r24, 0xAD	; 173
    b34c:	97 e0       	ldi	r25, 0x07	; 7
    b34e:	0e 94 85 41 	call	0x830a	; 0x830a <_ZN9class_KBD11getKbdStateEv>
    b352:	84 30       	cpi	r24, 0x04	; 4
    b354:	09 f4       	brne	.+2      	; 0xb358 <_Z13TEAD_MainGameb+0x480>
    b356:	60 c0       	rjmp	.+192    	; 0xb418 <_Z13TEAD_MainGameb+0x540>
    b358:	68 f4       	brcc	.+26     	; 0xb374 <_Z13TEAD_MainGameb+0x49c>
    b35a:	81 30       	cpi	r24, 0x01	; 1
    b35c:	09 f4       	brne	.+2      	; 0xb360 <_Z13TEAD_MainGameb+0x488>
    b35e:	58 c0       	rjmp	.+176    	; 0xb410 <_Z13TEAD_MainGameb+0x538>
    b360:	82 30       	cpi	r24, 0x02	; 2
    b362:	09 f0       	breq	.+2      	; 0xb366 <_Z13TEAD_MainGameb+0x48e>
    b364:	8b cf       	rjmp	.-234    	; 0xb27c <_Z13TEAD_MainGameb+0x3a4>
    b366:	21 e0       	ldi	r18, 0x01	; 1
    b368:	4d 85       	ldd	r20, Y+13	; 0x0d
    b36a:	6e 85       	ldd	r22, Y+14	; 0x0e
    b36c:	8f 85       	ldd	r24, Y+15	; 0x0f
    b36e:	0e 94 df 63 	call	0xc7be	; 0xc7be <_ZN9class_RTC7SetTimeEhhhb>
    b372:	03 c1       	rjmp	.+518    	; 0xb57a <_Z13TEAD_MainGameb+0x6a2>
    b374:	80 31       	cpi	r24, 0x10	; 16
    b376:	09 f1       	breq	.+66     	; 0xb3ba <_Z13TEAD_MainGameb+0x4e2>
    b378:	80 34       	cpi	r24, 0x40	; 64
    b37a:	09 f4       	brne	.+2      	; 0xb37e <_Z13TEAD_MainGameb+0x4a6>
    b37c:	af c1       	rjmp	.+862    	; 0xb6dc <_Z13TEAD_MainGameb+0x804>
    b37e:	88 30       	cpi	r24, 0x08	; 8
    b380:	09 f0       	breq	.+2      	; 0xb384 <_Z13TEAD_MainGameb+0x4ac>
    b382:	7c cf       	rjmp	.-264    	; 0xb27c <_Z13TEAD_MainGameb+0x3a4>
    b384:	11 30       	cpi	r17, 0x01	; 1
    b386:	59 f0       	breq	.+22     	; 0xb39e <_Z13TEAD_MainGameb+0x4c6>
    b388:	12 30       	cpi	r17, 0x02	; 2
    b38a:	81 f0       	breq	.+32     	; 0xb3ac <_Z13TEAD_MainGameb+0x4d4>
    b38c:	11 11       	cpse	r17, r1
    b38e:	33 c0       	rjmp	.+102    	; 0xb3f6 <_Z13TEAD_MainGameb+0x51e>
    b390:	8f 85       	ldd	r24, Y+15	; 0x0f
    b392:	8f 5f       	subi	r24, 0xFF	; 255
    b394:	8f 87       	std	Y+15, r24	; 0x0f
    b396:	88 31       	cpi	r24, 0x18	; 24
    b398:	70 f1       	brcs	.+92     	; 0xb3f6 <_Z13TEAD_MainGameb+0x51e>
    b39a:	1f 86       	std	Y+15, r1	; 0x0f
    b39c:	2c c0       	rjmp	.+88     	; 0xb3f6 <_Z13TEAD_MainGameb+0x51e>
    b39e:	8e 85       	ldd	r24, Y+14	; 0x0e
    b3a0:	8f 5f       	subi	r24, 0xFF	; 255
    b3a2:	8e 87       	std	Y+14, r24	; 0x0e
    b3a4:	8c 33       	cpi	r24, 0x3C	; 60
    b3a6:	38 f1       	brcs	.+78     	; 0xb3f6 <_Z13TEAD_MainGameb+0x51e>
    b3a8:	1e 86       	std	Y+14, r1	; 0x0e
    b3aa:	25 c0       	rjmp	.+74     	; 0xb3f6 <_Z13TEAD_MainGameb+0x51e>
    b3ac:	8d 85       	ldd	r24, Y+13	; 0x0d
    b3ae:	8f 5f       	subi	r24, 0xFF	; 255
    b3b0:	8d 87       	std	Y+13, r24	; 0x0d
    b3b2:	8c 33       	cpi	r24, 0x3C	; 60
    b3b4:	00 f1       	brcs	.+64     	; 0xb3f6 <_Z13TEAD_MainGameb+0x51e>
    b3b6:	1d 86       	std	Y+13, r1	; 0x0d
    b3b8:	1e c0       	rjmp	.+60     	; 0xb3f6 <_Z13TEAD_MainGameb+0x51e>
    b3ba:	11 30       	cpi	r17, 0x01	; 1
    b3bc:	69 f0       	breq	.+26     	; 0xb3d8 <_Z13TEAD_MainGameb+0x500>
    b3be:	12 30       	cpi	r17, 0x02	; 2
    b3c0:	99 f0       	breq	.+38     	; 0xb3e8 <_Z13TEAD_MainGameb+0x510>
    b3c2:	11 11       	cpse	r17, r1
    b3c4:	18 c0       	rjmp	.+48     	; 0xb3f6 <_Z13TEAD_MainGameb+0x51e>
    b3c6:	8f 85       	ldd	r24, Y+15	; 0x0f
    b3c8:	88 23       	and	r24, r24
    b3ca:	19 f0       	breq	.+6      	; 0xb3d2 <_Z13TEAD_MainGameb+0x4fa>
    b3cc:	81 50       	subi	r24, 0x01	; 1
    b3ce:	8f 87       	std	Y+15, r24	; 0x0f
    b3d0:	12 c0       	rjmp	.+36     	; 0xb3f6 <_Z13TEAD_MainGameb+0x51e>
    b3d2:	37 e1       	ldi	r19, 0x17	; 23
    b3d4:	3f 87       	std	Y+15, r19	; 0x0f
    b3d6:	0f c0       	rjmp	.+30     	; 0xb3f6 <_Z13TEAD_MainGameb+0x51e>
    b3d8:	8e 85       	ldd	r24, Y+14	; 0x0e
    b3da:	88 23       	and	r24, r24
    b3dc:	19 f0       	breq	.+6      	; 0xb3e4 <_Z13TEAD_MainGameb+0x50c>
    b3de:	81 50       	subi	r24, 0x01	; 1
    b3e0:	8e 87       	std	Y+14, r24	; 0x0e
    b3e2:	09 c0       	rjmp	.+18     	; 0xb3f6 <_Z13TEAD_MainGameb+0x51e>
    b3e4:	2e 86       	std	Y+14, r2	; 0x0e
    b3e6:	07 c0       	rjmp	.+14     	; 0xb3f6 <_Z13TEAD_MainGameb+0x51e>
    b3e8:	8d 85       	ldd	r24, Y+13	; 0x0d
    b3ea:	88 23       	and	r24, r24
    b3ec:	19 f0       	breq	.+6      	; 0xb3f4 <_Z13TEAD_MainGameb+0x51c>
    b3ee:	81 50       	subi	r24, 0x01	; 1
    b3f0:	8d 87       	std	Y+13, r24	; 0x0d
    b3f2:	01 c0       	rjmp	.+2      	; 0xb3f6 <_Z13TEAD_MainGameb+0x51e>
    b3f4:	2d 86       	std	Y+13, r2	; 0x0d
    b3f6:	60 e0       	ldi	r22, 0x00	; 0
    b3f8:	85 e0       	ldi	r24, 0x05	; 5
    b3fa:	0e 94 ac 68 	call	0xd158	; 0xd158 <_ZN10class_Wave4PlayE11WaveChannel8PlayMode>
    b3fe:	4a ef       	ldi	r20, 0xFA	; 250
    b400:	50 e0       	ldi	r21, 0x00	; 0
    b402:	60 e0       	ldi	r22, 0x00	; 0
    b404:	70 e0       	ldi	r23, 0x00	; 0
    b406:	8f ea       	ldi	r24, 0xAF	; 175
    b408:	97 e0       	ldi	r25, 0x07	; 7
    b40a:	0e 94 5d 66 	call	0xccba	; 0xccba <_ZN11class_Timer17delayMillisecondsEm>
    b40e:	36 cf       	rjmp	.-404    	; 0xb27c <_Z13TEAD_MainGameb+0x3a4>
    b410:	11 50       	subi	r17, 0x01	; 1
    b412:	30 f4       	brcc	.+12     	; 0xb420 <_Z13TEAD_MainGameb+0x548>
    b414:	12 e0       	ldi	r17, 0x02	; 2
    b416:	04 c0       	rjmp	.+8      	; 0xb420 <_Z13TEAD_MainGameb+0x548>
    b418:	1f 5f       	subi	r17, 0xFF	; 255
    b41a:	13 30       	cpi	r17, 0x03	; 3
    b41c:	08 f0       	brcs	.+2      	; 0xb420 <_Z13TEAD_MainGameb+0x548>
    b41e:	10 e0       	ldi	r17, 0x00	; 0
    b420:	60 e0       	ldi	r22, 0x00	; 0
    b422:	85 e0       	ldi	r24, 0x05	; 5
    b424:	0e 94 ac 68 	call	0xd158	; 0xd158 <_ZN10class_Wave4PlayE11WaveChannel8PlayMode>
    b428:	8d ea       	ldi	r24, 0xAD	; 173
    b42a:	97 e0       	ldi	r25, 0x07	; 7
    b42c:	0e 94 bc 41 	call	0x8378	; 0x8378 <_ZN9class_KBD14waitKbdReleaseEv>
    b430:	25 cf       	rjmp	.-438    	; 0xb27c <_Z13TEAD_MainGameb+0x3a4>
    b432:	88 e0       	ldi	r24, 0x08	; 8
    b434:	e8 16       	cp	r14, r24
    b436:	f1 04       	cpc	r15, r1
    b438:	09 f0       	breq	.+2      	; 0xb43c <_Z13TEAD_MainGameb+0x564>
    b43a:	97 c1       	rjmp	.+814    	; 0xb76a <_Z13TEAD_MainGameb+0x892>
    b43c:	c1 14       	cp	r12, r1
    b43e:	d1 04       	cpc	r13, r1
    b440:	09 f0       	breq	.+2      	; 0xb444 <_Z13TEAD_MainGameb+0x56c>
    b442:	ad c1       	rjmp	.+858    	; 0xb79e <_Z13TEAD_MainGameb+0x8c6>
    b444:	60 e0       	ldi	r22, 0x00	; 0
    b446:	81 e0       	ldi	r24, 0x01	; 1
    b448:	0e 94 ac 68 	call	0xd158	; 0xd158 <_ZN10class_Wave4PlayE11WaveChannel8PlayMode>
    b44c:	80 e0       	ldi	r24, 0x00	; 0
    b44e:	0e 94 46 42 	call	0x848c	; 0x848c <_ZN9class_LED3clsEb>
    b452:	0e 94 f9 45 	call	0x8bf2	; 0x8bf2 <_ZN9class_LED7getFontEv>
    b456:	38 2e       	mov	r3, r24
    b458:	80 e0       	ldi	r24, 0x00	; 0
    b45a:	0e 94 46 42 	call	0x848c	; 0x848c <_ZN9class_LED3clsEb>
    b45e:	0e 94 77 43 	call	0x86ee	; 0x86ee <_ZN9class_LED7refreshEv>
    b462:	82 e0       	ldi	r24, 0x02	; 2
    b464:	0e 94 f6 45 	call	0x8bec	; 0x8bec <_ZN9class_LED7setFontE8CharFont>
    b468:	01 e0       	ldi	r16, 0x01	; 1
    b46a:	9e 01       	movw	r18, r28
    b46c:	20 5f       	subi	r18, 0xF0	; 240
    b46e:	3f 4f       	sbci	r19, 0xFF	; 255
    b470:	ae 01       	movw	r20, r28
    b472:	4d 5e       	subi	r20, 0xED	; 237
    b474:	5f 4f       	sbci	r21, 0xFF	; 255
    b476:	be 01       	movw	r22, r28
    b478:	6e 5e       	subi	r22, 0xEE	; 238
    b47a:	7f 4f       	sbci	r23, 0xFF	; 255
    b47c:	ce 01       	movw	r24, r28
    b47e:	41 96       	adiw	r24, 0x11	; 17
    b480:	0e 94 72 65 	call	0xcae4	; 0xcae4 <_ZN9class_RTC7GetDateERhS0_S0_S0_b>
    b484:	21 e0       	ldi	r18, 0x01	; 1
    b486:	ae 01       	movw	r20, r28
    b488:	43 5f       	subi	r20, 0xF3	; 243
    b48a:	5f 4f       	sbci	r21, 0xFF	; 255
    b48c:	be 01       	movw	r22, r28
    b48e:	62 5f       	subi	r22, 0xF2	; 242
    b490:	7f 4f       	sbci	r23, 0xFF	; 255
    b492:	ce 01       	movw	r24, r28
    b494:	0f 96       	adiw	r24, 0x0f	; 15
    b496:	0e 94 7e 64 	call	0xc8fc	; 0xc8fc <_ZN9class_RTC7GetTimeERhS0_S0_b>
    b49a:	8d ea       	ldi	r24, 0xAD	; 173
    b49c:	97 e0       	ldi	r25, 0x07	; 7
    b49e:	0e 94 bc 41 	call	0x8378	; 0x8378 <_ZN9class_KBD14waitKbdReleaseEv>
    b4a2:	be 01       	movw	r22, r28
    b4a4:	6f 5f       	subi	r22, 0xFF	; 255
    b4a6:	7f 4f       	sbci	r23, 0xFF	; 255
    b4a8:	8f ea       	ldi	r24, 0xAF	; 175
    b4aa:	97 e0       	ldi	r25, 0x07	; 7
    b4ac:	0e 94 3d 66 	call	0xcc7a	; 0xcc7a <_ZN11class_Timer10setElapsedERm>
    b4b0:	51 2c       	mov	r5, r1
    b4b2:	10 e0       	ldi	r17, 0x00	; 0
    b4b4:	83 e6       	ldi	r24, 0x63	; 99
    b4b6:	28 2e       	mov	r2, r24
    b4b8:	80 e0       	ldi	r24, 0x00	; 0
    b4ba:	0e 94 46 42 	call	0x848c	; 0x848c <_ZN9class_LED3clsEb>
    b4be:	60 e0       	ldi	r22, 0x00	; 0
    b4c0:	70 e0       	ldi	r23, 0x00	; 0
    b4c2:	80 e0       	ldi	r24, 0x00	; 0
    b4c4:	90 e0       	ldi	r25, 0x00	; 0
    b4c6:	0e 94 2f 45 	call	0x8a5e	; 0x8a5e <_ZN9class_LED6moveToEii>
    b4ca:	e8 89       	ldd	r30, Y+16	; 0x10
    b4cc:	f0 e0       	ldi	r31, 0x00	; 0
    b4ce:	e8 52       	subi	r30, 0x28	; 40
    b4d0:	fd 4f       	sbci	r31, 0xFD	; 253
    b4d2:	80 81       	ld	r24, Z
    b4d4:	1f 92       	push	r1
    b4d6:	8f 93       	push	r24
    b4d8:	8b 89       	ldd	r24, Y+19	; 0x13
    b4da:	1f 92       	push	r1
    b4dc:	8f 93       	push	r24
    b4de:	8a 89       	ldd	r24, Y+18	; 0x12
    b4e0:	1f 92       	push	r1
    b4e2:	8f 93       	push	r24
    b4e4:	89 89       	ldd	r24, Y+17	; 0x11
    b4e6:	1f 92       	push	r1
    b4e8:	8f 93       	push	r24
    b4ea:	2e eb       	ldi	r18, 0xBE	; 190
    b4ec:	32 e0       	ldi	r19, 0x02	; 2
    b4ee:	3f 93       	push	r19
    b4f0:	2f 93       	push	r18
    b4f2:	bf 92       	push	r11
    b4f4:	af 92       	push	r10
    b4f6:	0e 94 6b 6a 	call	0xd4d6	; 0xd4d6 <sprintf>
    b4fa:	61 e0       	ldi	r22, 0x01	; 1
    b4fc:	8d ef       	ldi	r24, 0xFD	; 253
    b4fe:	96 e0       	ldi	r25, 0x06	; 6
    b500:	0e 94 90 47 	call	0x8f20	; 0x8f20 <_ZN9class_LED4putSEPKc5Color>
    b504:	be 01       	movw	r22, r28
    b506:	6f 5f       	subi	r22, 0xFF	; 255
    b508:	7f 4f       	sbci	r23, 0xFF	; 255
    b50a:	8f ea       	ldi	r24, 0xAF	; 175
    b50c:	97 e0       	ldi	r25, 0x07	; 7
    b50e:	0e 94 49 66 	call	0xcc92	; 0xcc92 <_ZN11class_Timer10getElapsedERm>
    b512:	0f b6       	in	r0, 0x3f	; 63
    b514:	f8 94       	cli
    b516:	de bf       	out	0x3e, r29	; 62
    b518:	0f be       	out	0x3f, r0	; 63
    b51a:	cd bf       	out	0x3d, r28	; 61
    b51c:	6b 3f       	cpi	r22, 0xFB	; 251
    b51e:	71 05       	cpc	r23, r1
    b520:	81 05       	cpc	r24, r1
    b522:	91 05       	cpc	r25, r1
    b524:	48 f0       	brcs	.+18     	; 0xb538 <_Z13TEAD_MainGameb+0x660>
    b526:	be 01       	movw	r22, r28
    b528:	6f 5f       	subi	r22, 0xFF	; 255
    b52a:	7f 4f       	sbci	r23, 0xFF	; 255
    b52c:	8f ea       	ldi	r24, 0xAF	; 175
    b52e:	97 e0       	ldi	r25, 0x07	; 7
    b530:	0e 94 3d 66 	call	0xcc7a	; 0xcc7a <_ZN11class_Timer10setElapsedERm>
    b534:	81 e0       	ldi	r24, 0x01	; 1
    b536:	58 26       	eor	r5, r24
    b538:	51 10       	cpse	r5, r1
    b53a:	29 c0       	rjmp	.+82     	; 0xb58e <_Z13TEAD_MainGameb+0x6b6>
    b53c:	0e 94 77 43 	call	0x86ee	; 0x86ee <_ZN9class_LED7refreshEv>
    b540:	89 89       	ldd	r24, Y+17	; 0x11
    b542:	83 70       	andi	r24, 0x03	; 3
    b544:	09 f0       	breq	.+2      	; 0xb548 <_Z13TEAD_MainGameb+0x670>
    b546:	54 c0       	rjmp	.+168    	; 0xb5f0 <_Z13TEAD_MainGameb+0x718>
    b548:	3d e1       	ldi	r19, 0x1D	; 29
    b54a:	30 93 09 01 	sts	0x0109, r19	; 0x800109 <dayOfMonth+0x2>
    b54e:	8d ea       	ldi	r24, 0xAD	; 173
    b550:	97 e0       	ldi	r25, 0x07	; 7
    b552:	0e 94 85 41 	call	0x830a	; 0x830a <_ZN9class_KBD11getKbdStateEv>
    b556:	84 30       	cpi	r24, 0x04	; 4
    b558:	09 f4       	brne	.+2      	; 0xb55c <_Z13TEAD_MainGameb+0x684>
    b55a:	c7 c0       	rjmp	.+398    	; 0xb6ea <_Z13TEAD_MainGameb+0x812>
    b55c:	08 f0       	brcs	.+2      	; 0xb560 <_Z13TEAD_MainGameb+0x688>
    b55e:	4c c0       	rjmp	.+152    	; 0xb5f8 <_Z13TEAD_MainGameb+0x720>
    b560:	81 30       	cpi	r24, 0x01	; 1
    b562:	09 f4       	brne	.+2      	; 0xb566 <_Z13TEAD_MainGameb+0x68e>
    b564:	be c0       	rjmp	.+380    	; 0xb6e2 <_Z13TEAD_MainGameb+0x80a>
    b566:	82 30       	cpi	r24, 0x02	; 2
    b568:	09 f0       	breq	.+2      	; 0xb56c <_Z13TEAD_MainGameb+0x694>
    b56a:	a6 cf       	rjmp	.-180    	; 0xb4b8 <_Z13TEAD_MainGameb+0x5e0>
    b56c:	01 e0       	ldi	r16, 0x01	; 1
    b56e:	28 89       	ldd	r18, Y+16	; 0x10
    b570:	4b 89       	ldd	r20, Y+19	; 0x13
    b572:	6a 89       	ldd	r22, Y+18	; 0x12
    b574:	89 89       	ldd	r24, Y+17	; 0x11
    b576:	0e 94 35 65 	call	0xca6a	; 0xca6a <_ZN9class_RTC7setDateEhhhhb>
    b57a:	0e 94 03 49 	call	0x9206	; 0x9206 <_ZL6playOkv>
    b57e:	8d ea       	ldi	r24, 0xAD	; 173
    b580:	97 e0       	ldi	r25, 0x07	; 7
    b582:	0e 94 bc 41 	call	0x8378	; 0x8378 <_ZN9class_KBD14waitKbdReleaseEv>
    b586:	83 2d       	mov	r24, r3
    b588:	0e 94 f6 45 	call	0x8bec	; 0x8bec <_ZN9class_LED7setFontE8CharFont>
    b58c:	83 cd       	rjmp	.-1274   	; 0xb094 <_Z13TEAD_MainGameb+0x1bc>
    b58e:	11 30       	cpi	r17, 0x01	; 1
    b590:	c9 f0       	breq	.+50     	; 0xb5c4 <_Z13TEAD_MainGameb+0x6ec>
    b592:	54 f4       	brge	.+20     	; 0xb5a8 <_Z13TEAD_MainGameb+0x6d0>
    b594:	11 11       	cpse	r17, r1
    b596:	d2 cf       	rjmp	.-92     	; 0xb53c <_Z13TEAD_MainGameb+0x664>
    b598:	01 e0       	ldi	r16, 0x01	; 1
    b59a:	21 e0       	ldi	r18, 0x01	; 1
    b59c:	30 e0       	ldi	r19, 0x00	; 0
    b59e:	4c e0       	ldi	r20, 0x0C	; 12
    b5a0:	50 e0       	ldi	r21, 0x00	; 0
    b5a2:	67 e0       	ldi	r22, 0x07	; 7
    b5a4:	70 e0       	ldi	r23, 0x00	; 0
    b5a6:	1f c0       	rjmp	.+62     	; 0xb5e6 <_Z13TEAD_MainGameb+0x70e>
    b5a8:	12 30       	cpi	r17, 0x02	; 2
    b5aa:	b1 f0       	breq	.+44     	; 0xb5d8 <_Z13TEAD_MainGameb+0x700>
    b5ac:	13 30       	cpi	r17, 0x03	; 3
    b5ae:	31 f6       	brne	.-116    	; 0xb53c <_Z13TEAD_MainGameb+0x664>
    b5b0:	01 e0       	ldi	r16, 0x01	; 1
    b5b2:	21 e0       	ldi	r18, 0x01	; 1
    b5b4:	30 e0       	ldi	r19, 0x00	; 0
    b5b6:	48 e0       	ldi	r20, 0x08	; 8
    b5b8:	50 e0       	ldi	r21, 0x00	; 0
    b5ba:	6f e0       	ldi	r22, 0x0F	; 15
    b5bc:	70 e0       	ldi	r23, 0x00	; 0
    b5be:	80 e1       	ldi	r24, 0x10	; 16
    b5c0:	90 e0       	ldi	r25, 0x00	; 0
    b5c2:	13 c0       	rjmp	.+38     	; 0xb5ea <_Z13TEAD_MainGameb+0x712>
    b5c4:	01 e0       	ldi	r16, 0x01	; 1
    b5c6:	21 e0       	ldi	r18, 0x01	; 1
    b5c8:	30 e0       	ldi	r19, 0x00	; 0
    b5ca:	4c e0       	ldi	r20, 0x0C	; 12
    b5cc:	50 e0       	ldi	r21, 0x00	; 0
    b5ce:	67 e0       	ldi	r22, 0x07	; 7
    b5d0:	70 e0       	ldi	r23, 0x00	; 0
    b5d2:	8c e0       	ldi	r24, 0x0C	; 12
    b5d4:	90 e0       	ldi	r25, 0x00	; 0
    b5d6:	09 c0       	rjmp	.+18     	; 0xb5ea <_Z13TEAD_MainGameb+0x712>
    b5d8:	01 e0       	ldi	r16, 0x01	; 1
    b5da:	21 e0       	ldi	r18, 0x01	; 1
    b5dc:	30 e0       	ldi	r19, 0x00	; 0
    b5de:	4c e0       	ldi	r20, 0x0C	; 12
    b5e0:	50 e0       	ldi	r21, 0x00	; 0
    b5e2:	6f e0       	ldi	r22, 0x0F	; 15
    b5e4:	70 e0       	ldi	r23, 0x00	; 0
    b5e6:	80 e0       	ldi	r24, 0x00	; 0
    b5e8:	90 e0       	ldi	r25, 0x00	; 0
    b5ea:	0e 94 91 45 	call	0x8b22	; 0x8b22 <_ZN9class_LED9rectangleEiiii5Color>
    b5ee:	a6 cf       	rjmp	.-180    	; 0xb53c <_Z13TEAD_MainGameb+0x664>
    b5f0:	8c e1       	ldi	r24, 0x1C	; 28
    b5f2:	80 93 09 01 	sts	0x0109, r24	; 0x800109 <dayOfMonth+0x2>
    b5f6:	ab cf       	rjmp	.-170    	; 0xb54e <_Z13TEAD_MainGameb+0x676>
    b5f8:	80 31       	cpi	r24, 0x10	; 16
    b5fa:	a9 f1       	breq	.+106    	; 0xb666 <_Z13TEAD_MainGameb+0x78e>
    b5fc:	80 34       	cpi	r24, 0x40	; 64
    b5fe:	09 f4       	brne	.+2      	; 0xb602 <_Z13TEAD_MainGameb+0x72a>
    b600:	6d c0       	rjmp	.+218    	; 0xb6dc <_Z13TEAD_MainGameb+0x804>
    b602:	88 30       	cpi	r24, 0x08	; 8
    b604:	09 f0       	breq	.+2      	; 0xb608 <_Z13TEAD_MainGameb+0x730>
    b606:	58 cf       	rjmp	.-336    	; 0xb4b8 <_Z13TEAD_MainGameb+0x5e0>
    b608:	11 30       	cpi	r17, 0x01	; 1
    b60a:	89 f0       	breq	.+34     	; 0xb62e <_Z13TEAD_MainGameb+0x756>
    b60c:	1c f4       	brge	.+6      	; 0xb614 <_Z13TEAD_MainGameb+0x73c>
    b60e:	11 23       	and	r17, r17
    b610:	31 f0       	breq	.+12     	; 0xb61e <_Z13TEAD_MainGameb+0x746>
    b612:	57 c0       	rjmp	.+174    	; 0xb6c2 <_Z13TEAD_MainGameb+0x7ea>
    b614:	12 30       	cpi	r17, 0x02	; 2
    b616:	99 f0       	breq	.+38     	; 0xb63e <_Z13TEAD_MainGameb+0x766>
    b618:	13 30       	cpi	r17, 0x03	; 3
    b61a:	e9 f0       	breq	.+58     	; 0xb656 <_Z13TEAD_MainGameb+0x77e>
    b61c:	52 c0       	rjmp	.+164    	; 0xb6c2 <_Z13TEAD_MainGameb+0x7ea>
    b61e:	89 89       	ldd	r24, Y+17	; 0x11
    b620:	8f 5f       	subi	r24, 0xFF	; 255
    b622:	89 8b       	std	Y+17, r24	; 0x11
    b624:	84 36       	cpi	r24, 0x64	; 100
    b626:	08 f4       	brcc	.+2      	; 0xb62a <_Z13TEAD_MainGameb+0x752>
    b628:	4c c0       	rjmp	.+152    	; 0xb6c2 <_Z13TEAD_MainGameb+0x7ea>
    b62a:	19 8a       	std	Y+17, r1	; 0x11
    b62c:	4a c0       	rjmp	.+148    	; 0xb6c2 <_Z13TEAD_MainGameb+0x7ea>
    b62e:	8a 89       	ldd	r24, Y+18	; 0x12
    b630:	8f 5f       	subi	r24, 0xFF	; 255
    b632:	8a 8b       	std	Y+18, r24	; 0x12
    b634:	8d 30       	cpi	r24, 0x0D	; 13
    b636:	08 f4       	brcc	.+2      	; 0xb63a <_Z13TEAD_MainGameb+0x762>
    b638:	44 c0       	rjmp	.+136    	; 0xb6c2 <_Z13TEAD_MainGameb+0x7ea>
    b63a:	1a 8b       	std	Y+18, r17	; 0x12
    b63c:	42 c0       	rjmp	.+132    	; 0xb6c2 <_Z13TEAD_MainGameb+0x7ea>
    b63e:	8b 89       	ldd	r24, Y+19	; 0x13
    b640:	8f 5f       	subi	r24, 0xFF	; 255
    b642:	8b 8b       	std	Y+19, r24	; 0x13
    b644:	ea 89       	ldd	r30, Y+18	; 0x12
    b646:	f0 e0       	ldi	r31, 0x00	; 0
    b648:	e9 5f       	subi	r30, 0xF9	; 249
    b64a:	fe 4f       	sbci	r31, 0xFE	; 254
    b64c:	90 81       	ld	r25, Z
    b64e:	98 17       	cp	r25, r24
    b650:	c0 f5       	brcc	.+112    	; 0xb6c2 <_Z13TEAD_MainGameb+0x7ea>
    b652:	81 e0       	ldi	r24, 0x01	; 1
    b654:	2d c0       	rjmp	.+90     	; 0xb6b0 <_Z13TEAD_MainGameb+0x7d8>
    b656:	88 89       	ldd	r24, Y+16	; 0x10
    b658:	8f 5f       	subi	r24, 0xFF	; 255
    b65a:	88 8b       	std	Y+16, r24	; 0x10
    b65c:	88 30       	cpi	r24, 0x08	; 8
    b65e:	88 f1       	brcs	.+98     	; 0xb6c2 <_Z13TEAD_MainGameb+0x7ea>
    b660:	81 e0       	ldi	r24, 0x01	; 1
    b662:	88 8b       	std	Y+16, r24	; 0x10
    b664:	2e c0       	rjmp	.+92     	; 0xb6c2 <_Z13TEAD_MainGameb+0x7ea>
    b666:	11 30       	cpi	r17, 0x01	; 1
    b668:	89 f0       	breq	.+34     	; 0xb68c <_Z13TEAD_MainGameb+0x7b4>
    b66a:	1c f4       	brge	.+6      	; 0xb672 <_Z13TEAD_MainGameb+0x79a>
    b66c:	11 23       	and	r17, r17
    b66e:	31 f0       	breq	.+12     	; 0xb67c <_Z13TEAD_MainGameb+0x7a4>
    b670:	28 c0       	rjmp	.+80     	; 0xb6c2 <_Z13TEAD_MainGameb+0x7ea>
    b672:	12 30       	cpi	r17, 0x02	; 2
    b674:	99 f0       	breq	.+38     	; 0xb69c <_Z13TEAD_MainGameb+0x7c4>
    b676:	13 30       	cpi	r17, 0x03	; 3
    b678:	e9 f0       	breq	.+58     	; 0xb6b4 <_Z13TEAD_MainGameb+0x7dc>
    b67a:	23 c0       	rjmp	.+70     	; 0xb6c2 <_Z13TEAD_MainGameb+0x7ea>
    b67c:	89 89       	ldd	r24, Y+17	; 0x11
    b67e:	88 23       	and	r24, r24
    b680:	19 f0       	breq	.+6      	; 0xb688 <_Z13TEAD_MainGameb+0x7b0>
    b682:	81 50       	subi	r24, 0x01	; 1
    b684:	89 8b       	std	Y+17, r24	; 0x11
    b686:	1d c0       	rjmp	.+58     	; 0xb6c2 <_Z13TEAD_MainGameb+0x7ea>
    b688:	29 8a       	std	Y+17, r2	; 0x11
    b68a:	1b c0       	rjmp	.+54     	; 0xb6c2 <_Z13TEAD_MainGameb+0x7ea>
    b68c:	8a 89       	ldd	r24, Y+18	; 0x12
    b68e:	81 50       	subi	r24, 0x01	; 1
    b690:	8a 8b       	std	Y+18, r24	; 0x12
    b692:	81 11       	cpse	r24, r1
    b694:	16 c0       	rjmp	.+44     	; 0xb6c2 <_Z13TEAD_MainGameb+0x7ea>
    b696:	9c e0       	ldi	r25, 0x0C	; 12
    b698:	9a 8b       	std	Y+18, r25	; 0x12
    b69a:	13 c0       	rjmp	.+38     	; 0xb6c2 <_Z13TEAD_MainGameb+0x7ea>
    b69c:	8b 89       	ldd	r24, Y+19	; 0x13
    b69e:	81 50       	subi	r24, 0x01	; 1
    b6a0:	8b 8b       	std	Y+19, r24	; 0x13
    b6a2:	81 11       	cpse	r24, r1
    b6a4:	0e c0       	rjmp	.+28     	; 0xb6c2 <_Z13TEAD_MainGameb+0x7ea>
    b6a6:	ea 89       	ldd	r30, Y+18	; 0x12
    b6a8:	f0 e0       	ldi	r31, 0x00	; 0
    b6aa:	e9 5f       	subi	r30, 0xF9	; 249
    b6ac:	fe 4f       	sbci	r31, 0xFE	; 254
    b6ae:	80 81       	ld	r24, Z
    b6b0:	8b 8b       	std	Y+19, r24	; 0x13
    b6b2:	07 c0       	rjmp	.+14     	; 0xb6c2 <_Z13TEAD_MainGameb+0x7ea>
    b6b4:	88 89       	ldd	r24, Y+16	; 0x10
    b6b6:	81 50       	subi	r24, 0x01	; 1
    b6b8:	88 8b       	std	Y+16, r24	; 0x10
    b6ba:	81 11       	cpse	r24, r1
    b6bc:	02 c0       	rjmp	.+4      	; 0xb6c2 <_Z13TEAD_MainGameb+0x7ea>
    b6be:	27 e0       	ldi	r18, 0x07	; 7
    b6c0:	28 8b       	std	Y+16, r18	; 0x10
    b6c2:	60 e0       	ldi	r22, 0x00	; 0
    b6c4:	85 e0       	ldi	r24, 0x05	; 5
    b6c6:	0e 94 ac 68 	call	0xd158	; 0xd158 <_ZN10class_Wave4PlayE11WaveChannel8PlayMode>
    b6ca:	4a ef       	ldi	r20, 0xFA	; 250
    b6cc:	50 e0       	ldi	r21, 0x00	; 0
    b6ce:	60 e0       	ldi	r22, 0x00	; 0
    b6d0:	70 e0       	ldi	r23, 0x00	; 0
    b6d2:	8f ea       	ldi	r24, 0xAF	; 175
    b6d4:	97 e0       	ldi	r25, 0x07	; 7
    b6d6:	0e 94 5d 66 	call	0xccba	; 0xccba <_ZN11class_Timer17delayMillisecondsEm>
    b6da:	ee ce       	rjmp	.-548    	; 0xb4b8 <_Z13TEAD_MainGameb+0x5e0>
    b6dc:	0e 94 fa 48 	call	0x91f4	; 0x91f4 <_ZL10playCancelv>
    b6e0:	4e cf       	rjmp	.-356    	; 0xb57e <_Z13TEAD_MainGameb+0x6a6>
    b6e2:	11 50       	subi	r17, 0x01	; 1
    b6e4:	30 f4       	brcc	.+12     	; 0xb6f2 <_Z13TEAD_MainGameb+0x81a>
    b6e6:	13 e0       	ldi	r17, 0x03	; 3
    b6e8:	04 c0       	rjmp	.+8      	; 0xb6f2 <_Z13TEAD_MainGameb+0x81a>
    b6ea:	1f 5f       	subi	r17, 0xFF	; 255
    b6ec:	14 30       	cpi	r17, 0x04	; 4
    b6ee:	08 f0       	brcs	.+2      	; 0xb6f2 <_Z13TEAD_MainGameb+0x81a>
    b6f0:	10 e0       	ldi	r17, 0x00	; 0
    b6f2:	60 e0       	ldi	r22, 0x00	; 0
    b6f4:	85 e0       	ldi	r24, 0x05	; 5
    b6f6:	0e 94 ac 68 	call	0xd158	; 0xd158 <_ZN10class_Wave4PlayE11WaveChannel8PlayMode>
    b6fa:	8d ea       	ldi	r24, 0xAD	; 173
    b6fc:	97 e0       	ldi	r25, 0x07	; 7
    b6fe:	0e 94 bc 41 	call	0x8378	; 0x8378 <_ZN9class_KBD14waitKbdReleaseEv>
    b702:	da ce       	rjmp	.-588    	; 0xb4b8 <_Z13TEAD_MainGameb+0x5e0>
    b704:	66 20       	and	r6, r6
    b706:	09 f4       	brne	.+2      	; 0xb70a <_Z13TEAD_MainGameb+0x832>
    b708:	97 cc       	rjmp	.-1746   	; 0xb038 <_Z13TEAD_MainGameb+0x160>
    b70a:	be 01       	movw	r22, r28
    b70c:	67 5f       	subi	r22, 0xF7	; 247
    b70e:	7f 4f       	sbci	r23, 0xFF	; 255
    b710:	8f ea       	ldi	r24, 0xAF	; 175
    b712:	97 e0       	ldi	r25, 0x07	; 7
    b714:	0e 94 49 66 	call	0xcc92	; 0xcc92 <_ZN11class_Timer10getElapsedERm>
    b718:	61 34       	cpi	r22, 0x41	; 65
    b71a:	7c 49       	sbci	r23, 0x9C	; 156
    b71c:	81 05       	cpc	r24, r1
    b71e:	91 05       	cpc	r25, r1
    b720:	d8 f0       	brcs	.+54     	; 0xb758 <_Z13TEAD_MainGameb+0x880>
    b722:	10 92 7e 07 	sts	0x077E, r1	; 0x80077e <_tead+0x304>
    b726:	63 96       	adiw	r28, 0x13	; 19
    b728:	0f b6       	in	r0, 0x3f	; 63
    b72a:	f8 94       	cli
    b72c:	de bf       	out	0x3e, r29	; 62
    b72e:	0f be       	out	0x3f, r0	; 63
    b730:	cd bf       	out	0x3d, r28	; 61
    b732:	df 91       	pop	r29
    b734:	cf 91       	pop	r28
    b736:	1f 91       	pop	r17
    b738:	0f 91       	pop	r16
    b73a:	ff 90       	pop	r15
    b73c:	ef 90       	pop	r14
    b73e:	df 90       	pop	r13
    b740:	cf 90       	pop	r12
    b742:	bf 90       	pop	r11
    b744:	af 90       	pop	r10
    b746:	9f 90       	pop	r9
    b748:	8f 90       	pop	r8
    b74a:	7f 90       	pop	r7
    b74c:	6f 90       	pop	r6
    b74e:	5f 90       	pop	r5
    b750:	4f 90       	pop	r4
    b752:	3f 90       	pop	r3
    b754:	2f 90       	pop	r2
    b756:	08 95       	ret
    b758:	60 e0       	ldi	r22, 0x00	; 0
    b75a:	8d ea       	ldi	r24, 0xAD	; 173
    b75c:	97 e0       	ldi	r25, 0x07	; 7
    b75e:	0e 94 d0 41 	call	0x83a0	; 0x83a0 <_ZN9class_KBD11getKbdASCIIEb>
    b762:	80 32       	cpi	r24, 0x20	; 32
    b764:	09 f4       	brne	.+2      	; 0xb768 <_Z13TEAD_MainGameb+0x890>
    b766:	68 cc       	rjmp	.-1840   	; 0xb038 <_Z13TEAD_MainGameb+0x160>
    b768:	dc cf       	rjmp	.-72     	; 0xb722 <_Z13TEAD_MainGameb+0x84a>
    b76a:	30 e1       	ldi	r19, 0x10	; 16
    b76c:	e3 16       	cp	r14, r19
    b76e:	f1 04       	cpc	r15, r1
    b770:	09 f0       	breq	.+2      	; 0xb774 <_Z13TEAD_MainGameb+0x89c>
    b772:	90 cc       	rjmp	.-1760   	; 0xb094 <_Z13TEAD_MainGameb+0x1bc>
    b774:	c1 14       	cp	r12, r1
    b776:	d1 04       	cpc	r13, r1
    b778:	19 f4       	brne	.+6      	; 0xb780 <_Z13TEAD_MainGameb+0x8a8>
    b77a:	0e 94 43 54 	call	0xa886	; 0xa886 <_Z14COBRA_MainGamev>
    b77e:	8a cc       	rjmp	.-1772   	; 0xb094 <_Z13TEAD_MainGameb+0x1bc>
    b780:	38 e0       	ldi	r19, 0x08	; 8
    b782:	c3 16       	cp	r12, r19
    b784:	d1 04       	cpc	r13, r1
    b786:	09 f0       	breq	.+2      	; 0xb78a <_Z13TEAD_MainGameb+0x8b2>
    b788:	85 cc       	rjmp	.-1782   	; 0xb094 <_Z13TEAD_MainGameb+0x1bc>
    b78a:	0e 94 0c 49 	call	0x9218	; 0x9218 <_ZL5Resetv>
    b78e:	82 cc       	rjmp	.-1788   	; 0xb094 <_Z13TEAD_MainGameb+0x1bc>
    b790:	88 e0       	ldi	r24, 0x08	; 8
    b792:	c8 16       	cp	r12, r24
    b794:	d1 04       	cpc	r13, r1
    b796:	09 f0       	breq	.+2      	; 0xb79a <_Z13TEAD_MainGameb+0x8c2>
    b798:	7d cc       	rjmp	.-1798   	; 0xb094 <_Z13TEAD_MainGameb+0x1bc>
    b79a:	81 e0       	ldi	r24, 0x01	; 1
    b79c:	06 c0       	rjmp	.+12     	; 0xb7aa <_Z13TEAD_MainGameb+0x8d2>
    b79e:	98 e0       	ldi	r25, 0x08	; 8
    b7a0:	c9 16       	cp	r12, r25
    b7a2:	d1 04       	cpc	r13, r1
    b7a4:	09 f0       	breq	.+2      	; 0xb7a8 <_Z13TEAD_MainGameb+0x8d0>
    b7a6:	76 cc       	rjmp	.-1812   	; 0xb094 <_Z13TEAD_MainGameb+0x1bc>
    b7a8:	82 e0       	ldi	r24, 0x02	; 2
    b7aa:	0e 94 48 49 	call	0x9290	; 0x9290 <_ZL9ShowClockh>
    b7ae:	72 cc       	rjmp	.-1820   	; 0xb094 <_Z13TEAD_MainGameb+0x1bc>

0000b7b0 <_Z28TEAD_showGameOverAndMessagesb>:
    b7b0:	2f 92       	push	r2
    b7b2:	3f 92       	push	r3
    b7b4:	4f 92       	push	r4
    b7b6:	5f 92       	push	r5
    b7b8:	6f 92       	push	r6
    b7ba:	7f 92       	push	r7
    b7bc:	8f 92       	push	r8
    b7be:	9f 92       	push	r9
    b7c0:	af 92       	push	r10
    b7c2:	bf 92       	push	r11
    b7c4:	cf 92       	push	r12
    b7c6:	df 92       	push	r13
    b7c8:	ef 92       	push	r14
    b7ca:	ff 92       	push	r15
    b7cc:	0f 93       	push	r16
    b7ce:	1f 93       	push	r17
    b7d0:	cf 93       	push	r28
    b7d2:	df 93       	push	r29
    b7d4:	cd b7       	in	r28, 0x3d	; 61
    b7d6:	de b7       	in	r29, 0x3e	; 62
    b7d8:	6f 97       	sbiw	r28, 0x1f	; 31
    b7da:	0f b6       	in	r0, 0x3f	; 63
    b7dc:	f8 94       	cli
    b7de:	de bf       	out	0x3e, r29	; 62
    b7e0:	0f be       	out	0x3f, r0	; 63
    b7e2:	cd bf       	out	0x3d, r28	; 61
    b7e4:	58 2e       	mov	r5, r24
    b7e6:	0e 94 f9 45 	call	0x8bf2	; 0x8bf2 <_ZN9class_LED7getFontEv>
    b7ea:	48 2e       	mov	r4, r24
    b7ec:	be 01       	movw	r22, r28
    b7ee:	67 5e       	subi	r22, 0xE7	; 231
    b7f0:	7f 4f       	sbci	r23, 0xFF	; 255
    b7f2:	8f ea       	ldi	r24, 0xAF	; 175
    b7f4:	97 e0       	ldi	r25, 0x07	; 7
    b7f6:	0e 94 3d 66 	call	0xcc7a	; 0xcc7a <_ZN11class_Timer10setElapsedERm>
    b7fa:	be 01       	movw	r22, r28
    b7fc:	6b 5e       	subi	r22, 0xEB	; 235
    b7fe:	7f 4f       	sbci	r23, 0xFF	; 255
    b800:	8f ea       	ldi	r24, 0xAF	; 175
    b802:	97 e0       	ldi	r25, 0x07	; 7
    b804:	0e 94 3d 66 	call	0xcc7a	; 0xcc7a <_ZN11class_Timer10setElapsedERm>
    b808:	be 01       	movw	r22, r28
    b80a:	6f 5e       	subi	r22, 0xEF	; 239
    b80c:	7f 4f       	sbci	r23, 0xFF	; 255
    b80e:	8f ea       	ldi	r24, 0xAF	; 175
    b810:	97 e0       	ldi	r25, 0x07	; 7
    b812:	0e 94 3d 66 	call	0xcc7a	; 0xcc7a <_ZN11class_Timer10setElapsedERm>
    b816:	be 01       	movw	r22, r28
    b818:	67 5f       	subi	r22, 0xF7	; 247
    b81a:	7f 4f       	sbci	r23, 0xFF	; 255
    b81c:	8f ea       	ldi	r24, 0xAF	; 175
    b81e:	97 e0       	ldi	r25, 0x07	; 7
    b820:	0e 94 3d 66 	call	0xcc7a	; 0xcc7a <_ZN11class_Timer10setElapsedERm>
    b824:	be 01       	movw	r22, r28
    b826:	6b 5f       	subi	r22, 0xFB	; 251
    b828:	7f 4f       	sbci	r23, 0xFF	; 255
    b82a:	8f ea       	ldi	r24, 0xAF	; 175
    b82c:	97 e0       	ldi	r25, 0x07	; 7
    b82e:	0e 94 3d 66 	call	0xcc7a	; 0xcc7a <_ZN11class_Timer10setElapsedERm>
    b832:	be 01       	movw	r22, r28
    b834:	67 5f       	subi	r22, 0xF7	; 247
    b836:	7f 4f       	sbci	r23, 0xFF	; 255
    b838:	8f ea       	ldi	r24, 0xAF	; 175
    b83a:	97 e0       	ldi	r25, 0x07	; 7
    b83c:	0e 94 3d 66 	call	0xcc7a	; 0xcc7a <_ZN11class_Timer10setElapsedERm>
    b840:	83 e0       	ldi	r24, 0x03	; 3
    b842:	0e 94 f6 45 	call	0x8bec	; 0x8bec <_ZN9class_LED7setFontE8CharFont>
    b846:	80 e0       	ldi	r24, 0x00	; 0
    b848:	0e 94 46 42 	call	0x848c	; 0x848c <_ZN9class_LED3clsEb>
    b84c:	61 2c       	mov	r6, r1
    b84e:	77 24       	eor	r7, r7
    b850:	73 94       	inc	r7
    b852:	98 e1       	ldi	r25, 0x18	; 24
    b854:	e9 2e       	mov	r14, r25
    b856:	f1 2c       	mov	r15, r1
    b858:	17 e1       	ldi	r17, 0x17	; 23
    b85a:	20 ed       	ldi	r18, 0xD0	; 208
    b85c:	a2 2e       	mov	r10, r18
    b85e:	22 e0       	ldi	r18, 0x02	; 2
    b860:	b2 2e       	mov	r11, r18
    b862:	3d ef       	ldi	r19, 0xFD	; 253
    b864:	83 2e       	mov	r8, r19
    b866:	36 e0       	ldi	r19, 0x06	; 6
    b868:	93 2e       	mov	r9, r19
    b86a:	44 e0       	ldi	r20, 0x04	; 4
    b86c:	24 2e       	mov	r2, r20
    b86e:	52 e0       	ldi	r21, 0x02	; 2
    b870:	35 2e       	mov	r3, r21
    b872:	80 91 04 01 	lds	r24, 0x0104	; 0x800104 <_ZZ28TEAD_showGameOverAndMessagesbE5event>
    b876:	82 30       	cpi	r24, 0x02	; 2
    b878:	09 f4       	brne	.+2      	; 0xb87c <_Z28TEAD_showGameOverAndMessagesb+0xcc>
    b87a:	10 c1       	rjmp	.+544    	; 0xba9c <_Z28TEAD_showGameOverAndMessagesb+0x2ec>
    b87c:	34 f4       	brge	.+12     	; 0xb88a <_Z28TEAD_showGameOverAndMessagesb+0xda>
    b87e:	88 23       	and	r24, r24
    b880:	69 f0       	breq	.+26     	; 0xb89c <_Z28TEAD_showGameOverAndMessagesb+0xec>
    b882:	81 30       	cpi	r24, 0x01	; 1
    b884:	09 f4       	brne	.+2      	; 0xb888 <_Z28TEAD_showGameOverAndMessagesb+0xd8>
    b886:	94 c0       	rjmp	.+296    	; 0xb9b0 <_Z28TEAD_showGameOverAndMessagesb+0x200>
    b888:	5e c2       	rjmp	.+1212   	; 0xbd46 <_Z28TEAD_showGameOverAndMessagesb+0x596>
    b88a:	84 30       	cpi	r24, 0x04	; 4
    b88c:	09 f4       	brne	.+2      	; 0xb890 <_Z28TEAD_showGameOverAndMessagesb+0xe0>
    b88e:	a3 c1       	rjmp	.+838    	; 0xbbd6 <_Z28TEAD_showGameOverAndMessagesb+0x426>
    b890:	0c f4       	brge	.+2      	; 0xb894 <_Z28TEAD_showGameOverAndMessagesb+0xe4>
    b892:	54 c1       	rjmp	.+680    	; 0xbb3c <_Z28TEAD_showGameOverAndMessagesb+0x38c>
    b894:	85 30       	cpi	r24, 0x05	; 5
    b896:	09 f4       	brne	.+2      	; 0xb89a <_Z28TEAD_showGameOverAndMessagesb+0xea>
    b898:	3a c2       	rjmp	.+1140   	; 0xbd0e <_Z28TEAD_showGameOverAndMessagesb+0x55e>
    b89a:	55 c2       	rjmp	.+1194   	; 0xbd46 <_Z28TEAD_showGameOverAndMessagesb+0x596>
    b89c:	80 e0       	ldi	r24, 0x00	; 0
    b89e:	0e 94 46 42 	call	0x848c	; 0x848c <_ZN9class_LED3clsEb>
    b8a2:	81 e0       	ldi	r24, 0x01	; 1
    b8a4:	0e 94 f6 45 	call	0x8bec	; 0x8bec <_ZN9class_LED7setFontE8CharFont>
    b8a8:	c1 2e       	mov	r12, r17
    b8aa:	01 2e       	mov	r0, r17
    b8ac:	00 0c       	add	r0, r0
    b8ae:	dd 08       	sbc	r13, r13
    b8b0:	55 20       	and	r5, r5
    b8b2:	a9 f0       	breq	.+42     	; 0xb8de <_Z28TEAD_showGameOverAndMessagesb+0x12e>
    b8b4:	b6 01       	movw	r22, r12
    b8b6:	6f 5f       	subi	r22, 0xFF	; 255
    b8b8:	7f 4f       	sbci	r23, 0xFF	; 255
    b8ba:	80 e0       	ldi	r24, 0x00	; 0
    b8bc:	90 e0       	ldi	r25, 0x00	; 0
    b8be:	0e 94 2f 45 	call	0x8a5e	; 0x8a5e <_ZN9class_LED6moveToEii>
    b8c2:	89 ea       	ldi	r24, 0xA9	; 169
    b8c4:	94 e0       	ldi	r25, 0x04	; 4
    b8c6:	0e 94 be 47 	call	0x8f7c	; 0x8f7c <_ZN9class_LED5putSFEPKc>
    b8ca:	b6 01       	movw	r22, r12
    b8cc:	67 5f       	subi	r22, 0xF7	; 247
    b8ce:	7f 4f       	sbci	r23, 0xFF	; 255
    b8d0:	82 e0       	ldi	r24, 0x02	; 2
    b8d2:	90 e0       	ldi	r25, 0x00	; 0
    b8d4:	0e 94 2f 45 	call	0x8a5e	; 0x8a5e <_ZN9class_LED6moveToEii>
    b8d8:	83 ea       	ldi	r24, 0xA3	; 163
    b8da:	94 e0       	ldi	r25, 0x04	; 4
    b8dc:	30 c0       	rjmp	.+96     	; 0xb93e <_Z28TEAD_showGameOverAndMessagesb+0x18e>
    b8de:	63 94       	inc	r6
    b8e0:	2c e0       	ldi	r18, 0x0C	; 12
    b8e2:	62 12       	cpse	r6, r18
    b8e4:	08 c0       	rjmp	.+16     	; 0xb8f6 <_Z28TEAD_showGameOverAndMessagesb+0x146>
    b8e6:	80 91 7b 07 	lds	r24, 0x077B	; 0x80077b <_tead+0x301>
    b8ea:	88 23       	and	r24, r24
    b8ec:	a1 f0       	breq	.+40     	; 0xb916 <_Z28TEAD_showGameOverAndMessagesb+0x166>
    b8ee:	66 e0       	ldi	r22, 0x06	; 6
    b8f0:	81 e5       	ldi	r24, 0x51	; 81
    b8f2:	98 e5       	ldi	r25, 0x58	; 88
    b8f4:	0a c0       	rjmp	.+20     	; 0xb90a <_Z28TEAD_showGameOverAndMessagesb+0x15a>
    b8f6:	82 e1       	ldi	r24, 0x12	; 18
    b8f8:	68 12       	cpse	r6, r24
    b8fa:	0d c0       	rjmp	.+26     	; 0xb916 <_Z28TEAD_showGameOverAndMessagesb+0x166>
    b8fc:	80 91 7b 07 	lds	r24, 0x077B	; 0x80077b <_tead+0x301>
    b900:	88 23       	and	r24, r24
    b902:	49 f0       	breq	.+18     	; 0xb916 <_Z28TEAD_showGameOverAndMessagesb+0x166>
    b904:	66 e0       	ldi	r22, 0x06	; 6
    b906:	85 e6       	ldi	r24, 0x65	; 101
    b908:	91 e5       	ldi	r25, 0x51	; 81
    b90a:	0e 94 12 68 	call	0xd024	; 0xd024 <_ZN10class_Wave7PrepareEPKh11WaveChannel>
    b90e:	60 e0       	ldi	r22, 0x00	; 0
    b910:	86 e0       	ldi	r24, 0x06	; 6
    b912:	0e 94 ac 68 	call	0xd158	; 0xd158 <_ZN10class_Wave4PlayE11WaveChannel8PlayMode>
    b916:	b6 01       	movw	r22, r12
    b918:	6f 5f       	subi	r22, 0xFF	; 255
    b91a:	7f 4f       	sbci	r23, 0xFF	; 255
    b91c:	80 e0       	ldi	r24, 0x00	; 0
    b91e:	90 e0       	ldi	r25, 0x00	; 0
    b920:	0e 94 2f 45 	call	0x8a5e	; 0x8a5e <_ZN9class_LED6moveToEii>
    b924:	8d e9       	ldi	r24, 0x9D	; 157
    b926:	94 e0       	ldi	r25, 0x04	; 4
    b928:	0e 94 be 47 	call	0x8f7c	; 0x8f7c <_ZN9class_LED5putSFEPKc>
    b92c:	b6 01       	movw	r22, r12
    b92e:	67 5f       	subi	r22, 0xF7	; 247
    b930:	7f 4f       	sbci	r23, 0xFF	; 255
    b932:	80 e0       	ldi	r24, 0x00	; 0
    b934:	90 e0       	ldi	r25, 0x00	; 0
    b936:	0e 94 2f 45 	call	0x8a5e	; 0x8a5e <_ZN9class_LED6moveToEii>
    b93a:	87 e9       	ldi	r24, 0x97	; 151
    b93c:	94 e0       	ldi	r25, 0x04	; 4
    b93e:	0e 94 be 47 	call	0x8f7c	; 0x8f7c <_ZN9class_LED5putSFEPKc>
    b942:	46 e4       	ldi	r20, 0x46	; 70
    b944:	50 e0       	ldi	r21, 0x00	; 0
    b946:	60 e0       	ldi	r22, 0x00	; 0
    b948:	70 e0       	ldi	r23, 0x00	; 0
    b94a:	8f ea       	ldi	r24, 0xAF	; 175
    b94c:	97 e0       	ldi	r25, 0x07	; 7
    b94e:	0e 94 5d 66 	call	0xccba	; 0xccba <_ZN11class_Timer17delayMillisecondsEm>
    b952:	11 50       	subi	r17, 0x01	; 1
    b954:	80 91 7b 07 	lds	r24, 0x077B	; 0x80077b <_tead+0x301>
    b958:	88 23       	and	r24, r24
    b95a:	81 f0       	breq	.+32     	; 0xb97c <_Z28TEAD_showGameOverAndMessagesb+0x1cc>
    b95c:	11 16       	cp	r1, r17
    b95e:	74 f4       	brge	.+28     	; 0xb97c <_Z28TEAD_showGameOverAndMessagesb+0x1cc>
    b960:	92 e3       	ldi	r25, 0x32	; 50
    b962:	19 02       	muls	r17, r25
    b964:	b0 01       	movw	r22, r0
    b966:	11 24       	eor	r1, r1
    b968:	68 51       	subi	r22, 0x18	; 24
    b96a:	7c 4f       	sbci	r23, 0xFC	; 252
    b96c:	23 e0       	ldi	r18, 0x03	; 3
    b96e:	46 e4       	ldi	r20, 0x46	; 70
    b970:	50 e0       	ldi	r21, 0x00	; 0
    b972:	8c ea       	ldi	r24, 0xAC	; 172
    b974:	97 e0       	ldi	r25, 0x07	; 7
    b976:	0e 94 45 69 	call	0xd28a	; 0xd28a <_ZN10class_Wave10setToneGenEjjh>
    b97a:	02 c0       	rjmp	.+4      	; 0xb980 <_Z28TEAD_showGameOverAndMessagesb+0x1d0>
    b97c:	17 fd       	sbrc	r17, 7
    b97e:	10 e0       	ldi	r17, 0x00	; 0
    b980:	be 01       	movw	r22, r28
    b982:	67 5e       	subi	r22, 0xE7	; 231
    b984:	7f 4f       	sbci	r23, 0xFF	; 255
    b986:	8f ea       	ldi	r24, 0xAF	; 175
    b988:	97 e0       	ldi	r25, 0x07	; 7
    b98a:	0e 94 49 66 	call	0xcc92	; 0xcc92 <_ZN11class_Timer10getElapsedERm>
    b98e:	61 3a       	cpi	r22, 0xA1	; 161
    b990:	7f 40       	sbci	r23, 0x0F	; 15
    b992:	81 05       	cpc	r24, r1
    b994:	91 05       	cpc	r25, r1
    b996:	08 f4       	brcc	.+2      	; 0xb99a <_Z28TEAD_showGameOverAndMessagesb+0x1ea>
    b998:	d6 c1       	rjmp	.+940    	; 0xbd46 <_Z28TEAD_showGameOverAndMessagesb+0x596>
    b99a:	be 01       	movw	r22, r28
    b99c:	6b 5e       	subi	r22, 0xEB	; 235
    b99e:	7f 4f       	sbci	r23, 0xFF	; 255
    b9a0:	8f ea       	ldi	r24, 0xAF	; 175
    b9a2:	97 e0       	ldi	r25, 0x07	; 7
    b9a4:	0e 94 3d 66 	call	0xcc7a	; 0xcc7a <_ZN11class_Timer10setElapsedERm>
    b9a8:	81 e0       	ldi	r24, 0x01	; 1
    b9aa:	80 93 04 01 	sts	0x0104, r24	; 0x800104 <_ZZ28TEAD_showGameOverAndMessagesbE5event>
    b9ae:	cb c1       	rjmp	.+918    	; 0xbd46 <_Z28TEAD_showGameOverAndMessagesb+0x596>
    b9b0:	80 e0       	ldi	r24, 0x00	; 0
    b9b2:	0e 94 46 42 	call	0x848c	; 0x848c <_ZN9class_LED3clsEb>
    b9b6:	81 e0       	ldi	r24, 0x01	; 1
    b9b8:	0e 94 f6 45 	call	0x8bec	; 0x8bec <_ZN9class_LED7setFontE8CharFont>
    b9bc:	c1 2e       	mov	r12, r17
    b9be:	01 2e       	mov	r0, r17
    b9c0:	00 0c       	add	r0, r0
    b9c2:	dd 08       	sbc	r13, r13
    b9c4:	b6 01       	movw	r22, r12
    b9c6:	6f 5f       	subi	r22, 0xFF	; 255
    b9c8:	7f 4f       	sbci	r23, 0xFF	; 255
    b9ca:	80 e0       	ldi	r24, 0x00	; 0
    b9cc:	90 e0       	ldi	r25, 0x00	; 0
    b9ce:	55 20       	and	r5, r5
    b9d0:	81 f0       	breq	.+32     	; 0xb9f2 <_Z28TEAD_showGameOverAndMessagesb+0x242>
    b9d2:	0e 94 2f 45 	call	0x8a5e	; 0x8a5e <_ZN9class_LED6moveToEii>
    b9d6:	81 e9       	ldi	r24, 0x91	; 145
    b9d8:	94 e0       	ldi	r25, 0x04	; 4
    b9da:	0e 94 be 47 	call	0x8f7c	; 0x8f7c <_ZN9class_LED5putSFEPKc>
    b9de:	b6 01       	movw	r22, r12
    b9e0:	67 5f       	subi	r22, 0xF7	; 247
    b9e2:	7f 4f       	sbci	r23, 0xFF	; 255
    b9e4:	82 e0       	ldi	r24, 0x02	; 2
    b9e6:	90 e0       	ldi	r25, 0x00	; 0
    b9e8:	0e 94 2f 45 	call	0x8a5e	; 0x8a5e <_ZN9class_LED6moveToEii>
    b9ec:	8b e8       	ldi	r24, 0x8B	; 139
    b9ee:	94 e0       	ldi	r25, 0x04	; 4
    b9f0:	0f c0       	rjmp	.+30     	; 0xba10 <_Z28TEAD_showGameOverAndMessagesb+0x260>
    b9f2:	0e 94 2f 45 	call	0x8a5e	; 0x8a5e <_ZN9class_LED6moveToEii>
    b9f6:	85 e8       	ldi	r24, 0x85	; 133
    b9f8:	94 e0       	ldi	r25, 0x04	; 4
    b9fa:	0e 94 be 47 	call	0x8f7c	; 0x8f7c <_ZN9class_LED5putSFEPKc>
    b9fe:	b6 01       	movw	r22, r12
    ba00:	67 5f       	subi	r22, 0xF7	; 247
    ba02:	7f 4f       	sbci	r23, 0xFF	; 255
    ba04:	80 e0       	ldi	r24, 0x00	; 0
    ba06:	90 e0       	ldi	r25, 0x00	; 0
    ba08:	0e 94 2f 45 	call	0x8a5e	; 0x8a5e <_ZN9class_LED6moveToEii>
    ba0c:	8f e7       	ldi	r24, 0x7F	; 127
    ba0e:	94 e0       	ldi	r25, 0x04	; 4
    ba10:	0e 94 be 47 	call	0x8f7c	; 0x8f7c <_ZN9class_LED5putSFEPKc>
    ba14:	46 e4       	ldi	r20, 0x46	; 70
    ba16:	50 e0       	ldi	r21, 0x00	; 0
    ba18:	60 e0       	ldi	r22, 0x00	; 0
    ba1a:	70 e0       	ldi	r23, 0x00	; 0
    ba1c:	8f ea       	ldi	r24, 0xAF	; 175
    ba1e:	97 e0       	ldi	r25, 0x07	; 7
    ba20:	0e 94 5d 66 	call	0xccba	; 0xccba <_ZN11class_Timer17delayMillisecondsEm>
    ba24:	1f 5f       	subi	r17, 0xFF	; 255
    ba26:	80 91 7b 07 	lds	r24, 0x077B	; 0x80077b <_tead+0x301>
    ba2a:	88 23       	and	r24, r24
    ba2c:	79 f0       	breq	.+30     	; 0xba4c <_Z28TEAD_showGameOverAndMessagesb+0x29c>
    ba2e:	11 16       	cp	r1, r17
    ba30:	84 f4       	brge	.+32     	; 0xba52 <_Z28TEAD_showGameOverAndMessagesb+0x2a2>
    ba32:	82 e3       	ldi	r24, 0x32	; 50
    ba34:	18 02       	muls	r17, r24
    ba36:	b0 01       	movw	r22, r0
    ba38:	11 24       	eor	r1, r1
    ba3a:	68 51       	subi	r22, 0x18	; 24
    ba3c:	7c 4f       	sbci	r23, 0xFC	; 252
    ba3e:	23 e0       	ldi	r18, 0x03	; 3
    ba40:	46 e4       	ldi	r20, 0x46	; 70
    ba42:	50 e0       	ldi	r21, 0x00	; 0
    ba44:	8c ea       	ldi	r24, 0xAC	; 172
    ba46:	97 e0       	ldi	r25, 0x07	; 7
    ba48:	0e 94 45 69 	call	0xd28a	; 0xd28a <_ZN10class_Wave10setToneGenEjjh>
    ba4c:	18 31       	cpi	r17, 0x18	; 24
    ba4e:	09 f4       	brne	.+2      	; 0xba52 <_Z28TEAD_showGameOverAndMessagesb+0x2a2>
    ba50:	17 e1       	ldi	r17, 0x17	; 23
    ba52:	be 01       	movw	r22, r28
    ba54:	6b 5e       	subi	r22, 0xEB	; 235
    ba56:	7f 4f       	sbci	r23, 0xFF	; 255
    ba58:	8f ea       	ldi	r24, 0xAF	; 175
    ba5a:	97 e0       	ldi	r25, 0x07	; 7
    ba5c:	0e 94 49 66 	call	0xcc92	; 0xcc92 <_ZN11class_Timer10getElapsedERm>
    ba60:	6d 3d       	cpi	r22, 0xDD	; 221
    ba62:	75 40       	sbci	r23, 0x05	; 5
    ba64:	81 05       	cpc	r24, r1
    ba66:	91 05       	cpc	r25, r1
    ba68:	08 f4       	brcc	.+2      	; 0xba6c <_Z28TEAD_showGameOverAndMessagesb+0x2bc>
    ba6a:	6d c1       	rjmp	.+730    	; 0xbd46 <_Z28TEAD_showGameOverAndMessagesb+0x596>
    ba6c:	be 01       	movw	r22, r28
    ba6e:	6f 5e       	subi	r22, 0xEF	; 239
    ba70:	7f 4f       	sbci	r23, 0xFF	; 255
    ba72:	8f ea       	ldi	r24, 0xAF	; 175
    ba74:	97 e0       	ldi	r25, 0x07	; 7
    ba76:	0e 94 3d 66 	call	0xcc7a	; 0xcc7a <_ZN11class_Timer10setElapsedERm>
    ba7a:	30 92 04 01 	sts	0x0104, r3	; 0x800104 <_ZZ28TEAD_showGameOverAndMessagesbE5event>
    ba7e:	80 91 7b 07 	lds	r24, 0x077B	; 0x80077b <_tead+0x301>
    ba82:	88 23       	and	r24, r24
    ba84:	09 f4       	brne	.+2      	; 0xba88 <_Z28TEAD_showGameOverAndMessagesb+0x2d8>
    ba86:	5f c1       	rjmp	.+702    	; 0xbd46 <_Z28TEAD_showGameOverAndMessagesb+0x596>
    ba88:	23 e0       	ldi	r18, 0x03	; 3
    ba8a:	44 ef       	ldi	r20, 0xF4	; 244
    ba8c:	51 e0       	ldi	r21, 0x01	; 1
    ba8e:	64 ec       	ldi	r22, 0xC4	; 196
    ba90:	79 e0       	ldi	r23, 0x09	; 9
    ba92:	8c ea       	ldi	r24, 0xAC	; 172
    ba94:	97 e0       	ldi	r25, 0x07	; 7
    ba96:	0e 94 45 69 	call	0xd28a	; 0xd28a <_ZN10class_Wave10setToneGenEjjh>
    ba9a:	55 c1       	rjmp	.+682    	; 0xbd46 <_Z28TEAD_showGameOverAndMessagesb+0x596>
    ba9c:	80 e0       	ldi	r24, 0x00	; 0
    ba9e:	0e 94 46 42 	call	0x848c	; 0x848c <_ZN9class_LED3clsEb>
    baa2:	81 e0       	ldi	r24, 0x01	; 1
    baa4:	0e 94 f6 45 	call	0x8bec	; 0x8bec <_ZN9class_LED7setFontE8CharFont>
    baa8:	55 20       	and	r5, r5
    baaa:	a9 f0       	breq	.+42     	; 0xbad6 <_Z28TEAD_showGameOverAndMessagesb+0x326>
    baac:	61 e0       	ldi	r22, 0x01	; 1
    baae:	70 e0       	ldi	r23, 0x00	; 0
    bab0:	82 e0       	ldi	r24, 0x02	; 2
    bab2:	90 e0       	ldi	r25, 0x00	; 0
    bab4:	0e 94 2f 45 	call	0x8a5e	; 0x8a5e <_ZN9class_LED6moveToEii>
    bab8:	89 e7       	ldi	r24, 0x79	; 121
    baba:	94 e0       	ldi	r25, 0x04	; 4
    babc:	0e 94 be 47 	call	0x8f7c	; 0x8f7c <_ZN9class_LED5putSFEPKc>
    bac0:	69 e0       	ldi	r22, 0x09	; 9
    bac2:	70 e0       	ldi	r23, 0x00	; 0
    bac4:	84 e0       	ldi	r24, 0x04	; 4
    bac6:	90 e0       	ldi	r25, 0x00	; 0
    bac8:	0e 94 2f 45 	call	0x8a5e	; 0x8a5e <_ZN9class_LED6moveToEii>
    bacc:	84 e7       	ldi	r24, 0x74	; 116
    bace:	94 e0       	ldi	r25, 0x04	; 4
    bad0:	0e 94 be 47 	call	0x8f7c	; 0x8f7c <_ZN9class_LED5putSFEPKc>
    bad4:	02 c0       	rjmp	.+4      	; 0xbada <_Z28TEAD_showGameOverAndMessagesb+0x32a>
    bad6:	0e 94 0e 52 	call	0xa41c	; 0xa41c <_Z24TEAD_showScoresAnimationv>
    bada:	46 e4       	ldi	r20, 0x46	; 70
    badc:	50 e0       	ldi	r21, 0x00	; 0
    bade:	60 e0       	ldi	r22, 0x00	; 0
    bae0:	70 e0       	ldi	r23, 0x00	; 0
    bae2:	8f ea       	ldi	r24, 0xAF	; 175
    bae4:	97 e0       	ldi	r25, 0x07	; 7
    bae6:	0e 94 5d 66 	call	0xccba	; 0xccba <_ZN11class_Timer17delayMillisecondsEm>
    baea:	be 01       	movw	r22, r28
    baec:	6f 5e       	subi	r22, 0xEF	; 239
    baee:	7f 4f       	sbci	r23, 0xFF	; 255
    baf0:	8f ea       	ldi	r24, 0xAF	; 175
    baf2:	97 e0       	ldi	r25, 0x07	; 7
    baf4:	0e 94 49 66 	call	0xcc92	; 0xcc92 <_ZN11class_Timer10getElapsedERm>
    baf8:	61 3a       	cpi	r22, 0xA1	; 161
    bafa:	7f 40       	sbci	r23, 0x0F	; 15
    bafc:	81 05       	cpc	r24, r1
    bafe:	91 05       	cpc	r25, r1
    bb00:	08 f4       	brcc	.+2      	; 0xbb04 <_Z28TEAD_showGameOverAndMessagesb+0x354>
    bb02:	21 c1       	rjmp	.+578    	; 0xbd46 <_Z28TEAD_showGameOverAndMessagesb+0x596>
    bb04:	80 e0       	ldi	r24, 0x00	; 0
    bb06:	0e 94 46 42 	call	0x848c	; 0x848c <_ZN9class_LED3clsEb>
    bb0a:	be 01       	movw	r22, r28
    bb0c:	63 5f       	subi	r22, 0xF3	; 243
    bb0e:	7f 4f       	sbci	r23, 0xFF	; 255
    bb10:	8f ea       	ldi	r24, 0xAF	; 175
    bb12:	97 e0       	ldi	r25, 0x07	; 7
    bb14:	0e 94 3d 66 	call	0xcc7a	; 0xcc7a <_ZN11class_Timer10setElapsedERm>
    bb18:	83 e0       	ldi	r24, 0x03	; 3
    bb1a:	80 93 04 01 	sts	0x0104, r24	; 0x800104 <_ZZ28TEAD_showGameOverAndMessagesbE5event>
    bb1e:	80 91 7b 07 	lds	r24, 0x077B	; 0x80077b <_tead+0x301>
    bb22:	88 23       	and	r24, r24
    bb24:	09 f4       	brne	.+2      	; 0xbb28 <_Z28TEAD_showGameOverAndMessagesb+0x378>
    bb26:	0c c1       	rjmp	.+536    	; 0xbd40 <_Z28TEAD_showGameOverAndMessagesb+0x590>
    bb28:	23 e0       	ldi	r18, 0x03	; 3
    bb2a:	44 ef       	ldi	r20, 0xF4	; 244
    bb2c:	51 e0       	ldi	r21, 0x01	; 1
    bb2e:	60 e7       	ldi	r22, 0x70	; 112
    bb30:	73 e0       	ldi	r23, 0x03	; 3
    bb32:	8c ea       	ldi	r24, 0xAC	; 172
    bb34:	97 e0       	ldi	r25, 0x07	; 7
    bb36:	0e 94 45 69 	call	0xd28a	; 0xd28a <_ZN10class_Wave10setToneGenEjjh>
    bb3a:	02 c1       	rjmp	.+516    	; 0xbd40 <_Z28TEAD_showGameOverAndMessagesb+0x590>
    bb3c:	80 e0       	ldi	r24, 0x00	; 0
    bb3e:	0e 94 46 42 	call	0x848c	; 0x848c <_ZN9class_LED3clsEb>
    bb42:	83 e0       	ldi	r24, 0x03	; 3
    bb44:	0e 94 f6 45 	call	0x8bec	; 0x8bec <_ZN9class_LED7setFontE8CharFont>
    bb48:	e1 14       	cp	r14, r1
    bb4a:	f1 04       	cpc	r15, r1
    bb4c:	49 f4       	brne	.+18     	; 0xbb60 <_Z28TEAD_showGameOverAndMessagesb+0x3b0>
    bb4e:	67 e0       	ldi	r22, 0x07	; 7
    bb50:	8f ea       	ldi	r24, 0xAF	; 175
    bb52:	94 e0       	ldi	r25, 0x04	; 4
    bb54:	0e 94 12 68 	call	0xd024	; 0xd024 <_ZN10class_Wave7PrepareEPKh11WaveChannel>
    bb58:	60 e0       	ldi	r22, 0x00	; 0
    bb5a:	87 e0       	ldi	r24, 0x07	; 7
    bb5c:	0e 94 ac 68 	call	0xd158	; 0xd158 <_ZN10class_Wave4PlayE11WaveChannel8PlayMode>
    bb60:	61 e0       	ldi	r22, 0x01	; 1
    bb62:	70 e0       	ldi	r23, 0x00	; 0
    bb64:	c7 01       	movw	r24, r14
    bb66:	0e 94 2f 45 	call	0x8a5e	; 0x8a5e <_ZN9class_LED6moveToEii>
    bb6a:	61 e0       	ldi	r22, 0x01	; 1
    bb6c:	8f e2       	ldi	r24, 0x2F	; 47
    bb6e:	97 e0       	ldi	r25, 0x07	; 7
    bb70:	0e 94 90 47 	call	0x8f20	; 0x8f20 <_ZN9class_LED4putSEPKc5Color>
    bb74:	4a e0       	ldi	r20, 0x0A	; 10
    bb76:	50 e0       	ldi	r21, 0x00	; 0
    bb78:	60 e0       	ldi	r22, 0x00	; 0
    bb7a:	70 e0       	ldi	r23, 0x00	; 0
    bb7c:	8f ea       	ldi	r24, 0xAF	; 175
    bb7e:	97 e0       	ldi	r25, 0x07	; 7
    bb80:	0e 94 5d 66 	call	0xccba	; 0xccba <_ZN11class_Timer17delayMillisecondsEm>
    bb84:	91 e0       	ldi	r25, 0x01	; 1
    bb86:	e9 1a       	sub	r14, r25
    bb88:	f1 08       	sbc	r15, r1
    bb8a:	80 91 61 07 	lds	r24, 0x0761	; 0x800761 <_tead+0x2e7>
    bb8e:	90 91 62 07 	lds	r25, 0x0762	; 0x800762 <_tead+0x2e8>
    bb92:	91 95       	neg	r25
    bb94:	81 95       	neg	r24
    bb96:	91 09       	sbc	r25, r1
    bb98:	e8 16       	cp	r14, r24
    bb9a:	f9 06       	cpc	r15, r25
    bb9c:	0c f0       	brlt	.+2      	; 0xbba0 <_Z28TEAD_showGameOverAndMessagesb+0x3f0>
    bb9e:	d3 c0       	rjmp	.+422    	; 0xbd46 <_Z28TEAD_showGameOverAndMessagesb+0x596>
    bba0:	be 01       	movw	r22, r28
    bba2:	67 5f       	subi	r22, 0xF7	; 247
    bba4:	7f 4f       	sbci	r23, 0xFF	; 255
    bba6:	8f ea       	ldi	r24, 0xAF	; 175
    bba8:	97 e0       	ldi	r25, 0x07	; 7
    bbaa:	0e 94 3d 66 	call	0xcc7a	; 0xcc7a <_ZN11class_Timer10setElapsedERm>
    bbae:	be 01       	movw	r22, r28
    bbb0:	67 5e       	subi	r22, 0xE7	; 231
    bbb2:	7f 4f       	sbci	r23, 0xFF	; 255
    bbb4:	8f ea       	ldi	r24, 0xAF	; 175
    bbb6:	97 e0       	ldi	r25, 0x07	; 7
    bbb8:	0e 94 3d 66 	call	0xcc7a	; 0xcc7a <_ZN11class_Timer10setElapsedERm>
    bbbc:	be 01       	movw	r22, r28
    bbbe:	6b 5f       	subi	r22, 0xFB	; 251
    bbc0:	7f 4f       	sbci	r23, 0xFF	; 255
    bbc2:	8f ea       	ldi	r24, 0xAF	; 175
    bbc4:	97 e0       	ldi	r25, 0x07	; 7
    bbc6:	0e 94 3d 66 	call	0xcc7a	; 0xcc7a <_ZN11class_Timer10setElapsedERm>
    bbca:	20 92 04 01 	sts	0x0104, r2	; 0x800104 <_ZZ28TEAD_showGameOverAndMessagesbE5event>
    bbce:	80 e0       	ldi	r24, 0x00	; 0
    bbd0:	0e 94 46 42 	call	0x848c	; 0x848c <_ZN9class_LED3clsEb>
    bbd4:	b5 c0       	rjmp	.+362    	; 0xbd40 <_Z28TEAD_showGameOverAndMessagesb+0x590>
    bbd6:	80 e0       	ldi	r24, 0x00	; 0
    bbd8:	0e 94 46 42 	call	0x848c	; 0x848c <_ZN9class_LED3clsEb>
    bbdc:	83 e0       	ldi	r24, 0x03	; 3
    bbde:	0e 94 f6 45 	call	0x8bec	; 0x8bec <_ZN9class_LED7setFontE8CharFont>
    bbe2:	be 01       	movw	r22, r28
    bbe4:	6b 5f       	subi	r22, 0xFB	; 251
    bbe6:	7f 4f       	sbci	r23, 0xFF	; 255
    bbe8:	8f ea       	ldi	r24, 0xAF	; 175
    bbea:	97 e0       	ldi	r25, 0x07	; 7
    bbec:	0e 94 49 66 	call	0xcc92	; 0xcc92 <_ZN11class_Timer10getElapsedERm>
    bbf0:	65 3f       	cpi	r22, 0xF5	; 245
    bbf2:	71 40       	sbci	r23, 0x01	; 1
    bbf4:	81 05       	cpc	r24, r1
    bbf6:	91 05       	cpc	r25, r1
    bbf8:	58 f1       	brcs	.+86     	; 0xbc50 <_Z28TEAD_showGameOverAndMessagesb+0x4a0>
    bbfa:	be 01       	movw	r22, r28
    bbfc:	6b 5f       	subi	r22, 0xFB	; 251
    bbfe:	7f 4f       	sbci	r23, 0xFF	; 255
    bc00:	8f ea       	ldi	r24, 0xAF	; 175
    bc02:	97 e0       	ldi	r25, 0x07	; 7
    bc04:	0e 94 3d 66 	call	0xcc7a	; 0xcc7a <_ZN11class_Timer10setElapsedERm>
    bc08:	77 20       	and	r7, r7
    bc0a:	01 f1       	breq	.+64     	; 0xbc4c <_Z28TEAD_showGameOverAndMessagesb+0x49c>
    bc0c:	01 e0       	ldi	r16, 0x01	; 1
    bc0e:	23 e0       	ldi	r18, 0x03	; 3
    bc10:	30 e0       	ldi	r19, 0x00	; 0
    bc12:	49 e0       	ldi	r20, 0x09	; 9
    bc14:	50 e0       	ldi	r21, 0x00	; 0
    bc16:	62 e0       	ldi	r22, 0x02	; 2
    bc18:	70 e0       	ldi	r23, 0x00	; 0
    bc1a:	89 e0       	ldi	r24, 0x09	; 9
    bc1c:	90 e0       	ldi	r25, 0x00	; 0
    bc1e:	0e 94 98 43 	call	0x8730	; 0x8730 <_ZN9class_LED4lineEiiii5Color>
    bc22:	80 91 7b 07 	lds	r24, 0x077B	; 0x80077b <_tead+0x301>
    bc26:	88 23       	and	r24, r24
    bc28:	89 f0       	breq	.+34     	; 0xbc4c <_Z28TEAD_showGameOverAndMessagesb+0x49c>
    bc2a:	23 e0       	ldi	r18, 0x03	; 3
    bc2c:	4d e7       	ldi	r20, 0x7D	; 125
    bc2e:	50 e0       	ldi	r21, 0x00	; 0
    bc30:	6c ed       	ldi	r22, 0xDC	; 220
    bc32:	75 e0       	ldi	r23, 0x05	; 5
    bc34:	8c ea       	ldi	r24, 0xAC	; 172
    bc36:	97 e0       	ldi	r25, 0x07	; 7
    bc38:	0e 94 45 69 	call	0xd28a	; 0xd28a <_ZN10class_Wave10setToneGenEjjh>
    bc3c:	80 91 7b 07 	lds	r24, 0x077B	; 0x80077b <_tead+0x301>
    bc40:	88 23       	and	r24, r24
    bc42:	21 f0       	breq	.+8      	; 0xbc4c <_Z28TEAD_showGameOverAndMessagesb+0x49c>
    bc44:	60 e0       	ldi	r22, 0x00	; 0
    bc46:	85 e0       	ldi	r24, 0x05	; 5
    bc48:	0e 94 ac 68 	call	0xd158	; 0xd158 <_ZN10class_Wave4PlayE11WaveChannel8PlayMode>
    bc4c:	81 e0       	ldi	r24, 0x01	; 1
    bc4e:	78 26       	eor	r7, r24
    bc50:	20 e0       	ldi	r18, 0x00	; 0
    bc52:	ae 01       	movw	r20, r28
    bc54:	43 5e       	subi	r20, 0xE3	; 227
    bc56:	5f 4f       	sbci	r21, 0xFF	; 255
    bc58:	be 01       	movw	r22, r28
    bc5a:	62 5e       	subi	r22, 0xE2	; 226
    bc5c:	7f 4f       	sbci	r23, 0xFF	; 255
    bc5e:	ce 01       	movw	r24, r28
    bc60:	4f 96       	adiw	r24, 0x1f	; 31
    bc62:	0e 94 7e 64 	call	0xc8fc	; 0xc8fc <_ZN9class_RTC7GetTimeERhS0_S0_b>
    bc66:	8e 8d       	ldd	r24, Y+30	; 0x1e
    bc68:	1f 92       	push	r1
    bc6a:	8f 93       	push	r24
    bc6c:	8f 8d       	ldd	r24, Y+31	; 0x1f
    bc6e:	1f 92       	push	r1
    bc70:	8f 93       	push	r24
    bc72:	bf 92       	push	r11
    bc74:	af 92       	push	r10
    bc76:	9f 92       	push	r9
    bc78:	8f 92       	push	r8
    bc7a:	0e 94 6b 6a 	call	0xd4d6	; 0xd4d6 <sprintf>
    bc7e:	61 e0       	ldi	r22, 0x01	; 1
    bc80:	70 e0       	ldi	r23, 0x00	; 0
    bc82:	80 e0       	ldi	r24, 0x00	; 0
    bc84:	90 e0       	ldi	r25, 0x00	; 0
    bc86:	0e 94 2f 45 	call	0x8a5e	; 0x8a5e <_ZN9class_LED6moveToEii>
    bc8a:	61 e0       	ldi	r22, 0x01	; 1
    bc8c:	8d ef       	ldi	r24, 0xFD	; 253
    bc8e:	96 e0       	ldi	r25, 0x06	; 6
    bc90:	0e 94 90 47 	call	0x8f20	; 0x8f20 <_ZN9class_LED4putSEPKc5Color>
    bc94:	0f b6       	in	r0, 0x3f	; 63
    bc96:	f8 94       	cli
    bc98:	de bf       	out	0x3e, r29	; 62
    bc9a:	0f be       	out	0x3f, r0	; 63
    bc9c:	cd bf       	out	0x3d, r28	; 61
    bc9e:	77 20       	and	r7, r7
    bca0:	a9 f0       	breq	.+42     	; 0xbccc <_Z28TEAD_showGameOverAndMessagesb+0x51c>
    bca2:	01 e0       	ldi	r16, 0x01	; 1
    bca4:	24 e0       	ldi	r18, 0x04	; 4
    bca6:	30 e0       	ldi	r19, 0x00	; 0
    bca8:	4b e0       	ldi	r20, 0x0B	; 11
    bcaa:	50 e0       	ldi	r21, 0x00	; 0
    bcac:	63 e0       	ldi	r22, 0x03	; 3
    bcae:	70 e0       	ldi	r23, 0x00	; 0
    bcb0:	8b e0       	ldi	r24, 0x0B	; 11
    bcb2:	90 e0       	ldi	r25, 0x00	; 0
    bcb4:	0e 94 98 43 	call	0x8730	; 0x8730 <_ZN9class_LED4lineEiiii5Color>
    bcb8:	2c e0       	ldi	r18, 0x0C	; 12
    bcba:	30 e0       	ldi	r19, 0x00	; 0
    bcbc:	4b e0       	ldi	r20, 0x0B	; 11
    bcbe:	50 e0       	ldi	r21, 0x00	; 0
    bcc0:	6b e0       	ldi	r22, 0x0B	; 11
    bcc2:	70 e0       	ldi	r23, 0x00	; 0
    bcc4:	8b e0       	ldi	r24, 0x0B	; 11
    bcc6:	90 e0       	ldi	r25, 0x00	; 0
    bcc8:	0e 94 98 43 	call	0x8730	; 0x8730 <_ZN9class_LED4lineEiiii5Color>
    bccc:	46 e4       	ldi	r20, 0x46	; 70
    bcce:	50 e0       	ldi	r21, 0x00	; 0
    bcd0:	60 e0       	ldi	r22, 0x00	; 0
    bcd2:	70 e0       	ldi	r23, 0x00	; 0
    bcd4:	8f ea       	ldi	r24, 0xAF	; 175
    bcd6:	97 e0       	ldi	r25, 0x07	; 7
    bcd8:	0e 94 5d 66 	call	0xccba	; 0xccba <_ZN11class_Timer17delayMillisecondsEm>
    bcdc:	be 01       	movw	r22, r28
    bcde:	67 5f       	subi	r22, 0xF7	; 247
    bce0:	7f 4f       	sbci	r23, 0xFF	; 255
    bce2:	8f ea       	ldi	r24, 0xAF	; 175
    bce4:	97 e0       	ldi	r25, 0x07	; 7
    bce6:	0e 94 49 66 	call	0xcc92	; 0xcc92 <_ZN11class_Timer10getElapsedERm>
    bcea:	69 39       	cpi	r22, 0x99	; 153
    bcec:	7a 43       	sbci	r23, 0x3A	; 58
    bcee:	81 05       	cpc	r24, r1
    bcf0:	91 05       	cpc	r25, r1
    bcf2:	48 f1       	brcs	.+82     	; 0xbd46 <_Z28TEAD_showGameOverAndMessagesb+0x596>
    bcf4:	be 01       	movw	r22, r28
    bcf6:	6f 5f       	subi	r22, 0xFF	; 255
    bcf8:	7f 4f       	sbci	r23, 0xFF	; 255
    bcfa:	8f ea       	ldi	r24, 0xAF	; 175
    bcfc:	97 e0       	ldi	r25, 0x07	; 7
    bcfe:	0e 94 3d 66 	call	0xcc7a	; 0xcc7a <_ZN11class_Timer10setElapsedERm>
    bd02:	85 e0       	ldi	r24, 0x05	; 5
    bd04:	80 93 04 01 	sts	0x0104, r24	; 0x800104 <_ZZ28TEAD_showGameOverAndMessagesbE5event>
    bd08:	e1 2c       	mov	r14, r1
    bd0a:	f1 2c       	mov	r15, r1
    bd0c:	1c c0       	rjmp	.+56     	; 0xbd46 <_Z28TEAD_showGameOverAndMessagesb+0x596>
    bd0e:	81 e0       	ldi	r24, 0x01	; 1
    bd10:	0e 94 6c 57 	call	0xaed8	; 0xaed8 <_Z13TEAD_MainGameb>
    bd14:	be 01       	movw	r22, r28
    bd16:	6f 5f       	subi	r22, 0xFF	; 255
    bd18:	7f 4f       	sbci	r23, 0xFF	; 255
    bd1a:	8f ea       	ldi	r24, 0xAF	; 175
    bd1c:	97 e0       	ldi	r25, 0x07	; 7
    bd1e:	0e 94 49 66 	call	0xcc92	; 0xcc92 <_ZN11class_Timer10getElapsedERm>
    bd22:	61 34       	cpi	r22, 0x41	; 65
    bd24:	7c 49       	sbci	r23, 0x9C	; 156
    bd26:	81 05       	cpc	r24, r1
    bd28:	91 05       	cpc	r25, r1
    bd2a:	68 f0       	brcs	.+26     	; 0xbd46 <_Z28TEAD_showGameOverAndMessagesb+0x596>
    bd2c:	be 01       	movw	r22, r28
    bd2e:	67 5e       	subi	r22, 0xE7	; 231
    bd30:	7f 4f       	sbci	r23, 0xFF	; 255
    bd32:	8f ea       	ldi	r24, 0xAF	; 175
    bd34:	97 e0       	ldi	r25, 0x07	; 7
    bd36:	0e 94 3d 66 	call	0xcc7a	; 0xcc7a <_ZN11class_Timer10setElapsedERm>
    bd3a:	10 92 04 01 	sts	0x0104, r1	; 0x800104 <_ZZ28TEAD_showGameOverAndMessagesbE5event>
    bd3e:	03 c0       	rjmp	.+6      	; 0xbd46 <_Z28TEAD_showGameOverAndMessagesb+0x596>
    bd40:	87 e1       	ldi	r24, 0x17	; 23
    bd42:	e8 2e       	mov	r14, r24
    bd44:	f1 2c       	mov	r15, r1
    bd46:	60 e0       	ldi	r22, 0x00	; 0
    bd48:	8d ea       	ldi	r24, 0xAD	; 173
    bd4a:	97 e0       	ldi	r25, 0x07	; 7
    bd4c:	0e 94 d0 41 	call	0x83a0	; 0x83a0 <_ZN9class_KBD11getKbdASCIIEb>
    bd50:	80 32       	cpi	r24, 0x20	; 32
    bd52:	31 f1       	breq	.+76     	; 0xbda0 <_Z28TEAD_showGameOverAndMessagesb+0x5f0>
    bd54:	80 e0       	ldi	r24, 0x00	; 0
    bd56:	0e 94 46 42 	call	0x848c	; 0x848c <_ZN9class_LED3clsEb>
    bd5a:	81 e0       	ldi	r24, 0x01	; 1
    bd5c:	0e 94 f6 45 	call	0x8bec	; 0x8bec <_ZN9class_LED7setFontE8CharFont>
    bd60:	8d ea       	ldi	r24, 0xAD	; 173
    bd62:	97 e0       	ldi	r25, 0x07	; 7
    bd64:	0e 94 bc 41 	call	0x8378	; 0x8378 <_ZN9class_KBD14waitKbdReleaseEv>
    bd68:	84 2d       	mov	r24, r4
    bd6a:	0e 94 f6 45 	call	0x8bec	; 0x8bec <_ZN9class_LED7setFontE8CharFont>
    bd6e:	6f 96       	adiw	r28, 0x1f	; 31
    bd70:	0f b6       	in	r0, 0x3f	; 63
    bd72:	f8 94       	cli
    bd74:	de bf       	out	0x3e, r29	; 62
    bd76:	0f be       	out	0x3f, r0	; 63
    bd78:	cd bf       	out	0x3d, r28	; 61
    bd7a:	df 91       	pop	r29
    bd7c:	cf 91       	pop	r28
    bd7e:	1f 91       	pop	r17
    bd80:	0f 91       	pop	r16
    bd82:	ff 90       	pop	r15
    bd84:	ef 90       	pop	r14
    bd86:	df 90       	pop	r13
    bd88:	cf 90       	pop	r12
    bd8a:	bf 90       	pop	r11
    bd8c:	af 90       	pop	r10
    bd8e:	9f 90       	pop	r9
    bd90:	8f 90       	pop	r8
    bd92:	7f 90       	pop	r7
    bd94:	6f 90       	pop	r6
    bd96:	5f 90       	pop	r5
    bd98:	4f 90       	pop	r4
    bd9a:	3f 90       	pop	r3
    bd9c:	2f 90       	pop	r2
    bd9e:	08 95       	ret
    bda0:	4a e0       	ldi	r20, 0x0A	; 10
    bda2:	50 e0       	ldi	r21, 0x00	; 0
    bda4:	60 e0       	ldi	r22, 0x00	; 0
    bda6:	70 e0       	ldi	r23, 0x00	; 0
    bda8:	8f ea       	ldi	r24, 0xAF	; 175
    bdaa:	97 e0       	ldi	r25, 0x07	; 7
    bdac:	0e 94 5d 66 	call	0xccba	; 0xccba <_ZN11class_Timer17delayMillisecondsEm>
    bdb0:	0e 94 77 43 	call	0x86ee	; 0x86ee <_ZN9class_LED7refreshEv>
    bdb4:	5e cd       	rjmp	.-1348   	; 0xb872 <_Z28TEAD_showGameOverAndMessagesb+0xc2>

0000bdb6 <_Z21TEAD_processShipsMovev>:
    bdb6:	0f 93       	push	r16
    bdb8:	1f 93       	push	r17
    bdba:	cf 93       	push	r28
    bdbc:	df 93       	push	r29
    bdbe:	0e 94 fc 52 	call	0xa5f8	; 0xa5f8 <_Z19TEAD_getShipsAlivesv>
    bdc2:	81 30       	cpi	r24, 0x01	; 1
    bdc4:	b9 f4       	brne	.+46     	; 0xbdf4 <_Z21TEAD_processShipsMovev+0x3e>
    bdc6:	20 91 76 07 	lds	r18, 0x0776	; 0x800776 <_tead+0x2fc>
    bdca:	23 33       	cpi	r18, 0x33	; 51
    bdcc:	80 f4       	brcc	.+32     	; 0xbdee <_Z21TEAD_processShipsMovev+0x38>
    bdce:	30 e0       	ldi	r19, 0x00	; 0
    bdd0:	21 50       	subi	r18, 0x01	; 1
    bdd2:	31 09       	sbc	r19, r1
    bdd4:	4e e1       	ldi	r20, 0x1E	; 30
    bdd6:	42 9f       	mul	r20, r18
    bdd8:	c0 01       	movw	r24, r0
    bdda:	43 9f       	mul	r20, r19
    bddc:	90 0d       	add	r25, r0
    bdde:	11 24       	eor	r1, r1
    bde0:	6e ec       	ldi	r22, 0xCE	; 206
    bde2:	7f ef       	ldi	r23, 0xFF	; 255
    bde4:	0e 94 78 69 	call	0xd2f0	; 0xd2f0 <__divmodhi4>
    bde8:	cb 01       	movw	r24, r22
    bdea:	cc 96       	adiw	r24, 0x3c	; 60
    bdec:	1c c0       	rjmp	.+56     	; 0xbe26 <_Z21TEAD_processShipsMovev+0x70>
    bdee:	8e e1       	ldi	r24, 0x1E	; 30
    bdf0:	90 e0       	ldi	r25, 0x00	; 0
    bdf2:	19 c0       	rjmp	.+50     	; 0xbe26 <_Z21TEAD_processShipsMovev+0x70>
    bdf4:	82 30       	cpi	r24, 0x02	; 2
    bdf6:	c9 f4       	brne	.+50     	; 0xbe2a <_Z21TEAD_processShipsMovev+0x74>
    bdf8:	20 91 76 07 	lds	r18, 0x0776	; 0x800776 <_tead+0x2fc>
    bdfc:	23 33       	cpi	r18, 0x33	; 51
    bdfe:	88 f4       	brcc	.+34     	; 0xbe22 <_Z21TEAD_processShipsMovev+0x6c>
    be00:	30 e0       	ldi	r19, 0x00	; 0
    be02:	21 50       	subi	r18, 0x01	; 1
    be04:	31 09       	sbc	r19, r1
    be06:	4e e1       	ldi	r20, 0x1E	; 30
    be08:	42 9f       	mul	r20, r18
    be0a:	c0 01       	movw	r24, r0
    be0c:	43 9f       	mul	r20, r19
    be0e:	90 0d       	add	r25, r0
    be10:	11 24       	eor	r1, r1
    be12:	6e ec       	ldi	r22, 0xCE	; 206
    be14:	7f ef       	ldi	r23, 0xFF	; 255
    be16:	0e 94 78 69 	call	0xd2f0	; 0xd2f0 <__divmodhi4>
    be1a:	cb 01       	movw	r24, r22
    be1c:	86 5a       	subi	r24, 0xA6	; 166
    be1e:	9f 4f       	sbci	r25, 0xFF	; 255
    be20:	02 c0       	rjmp	.+4      	; 0xbe26 <_Z21TEAD_processShipsMovev+0x70>
    be22:	8c e3       	ldi	r24, 0x3C	; 60
    be24:	90 e0       	ldi	r25, 0x00	; 0
    be26:	ec 01       	movw	r28, r24
    be28:	04 c0       	rjmp	.+8      	; 0xbe32 <_Z21TEAD_processShipsMovev+0x7c>
    be2a:	c0 91 fb 06 	lds	r28, 0x06FB	; 0x8006fb <_tead+0x281>
    be2e:	d0 91 fc 06 	lds	r29, 0x06FC	; 0x8006fc <_tead+0x282>
    be32:	63 ee       	ldi	r22, 0xE3	; 227
    be34:	76 e0       	ldi	r23, 0x06	; 6
    be36:	8f ea       	ldi	r24, 0xAF	; 175
    be38:	97 e0       	ldi	r25, 0x07	; 7
    be3a:	0e 94 49 66 	call	0xcc92	; 0xcc92 <_ZN11class_Timer10getElapsedERm>
    be3e:	8e 01       	movw	r16, r28
    be40:	20 e0       	ldi	r18, 0x00	; 0
    be42:	30 e0       	ldi	r19, 0x00	; 0
    be44:	06 17       	cp	r16, r22
    be46:	17 07       	cpc	r17, r23
    be48:	28 07       	cpc	r18, r24
    be4a:	39 07       	cpc	r19, r25
    be4c:	08 f0       	brcs	.+2      	; 0xbe50 <_Z21TEAD_processShipsMovev+0x9a>
    be4e:	99 c0       	rjmp	.+306    	; 0xbf82 <_Z21TEAD_processShipsMovev+0x1cc>
    be50:	63 ee       	ldi	r22, 0xE3	; 227
    be52:	76 e0       	ldi	r23, 0x06	; 6
    be54:	8f ea       	ldi	r24, 0xAF	; 175
    be56:	97 e0       	ldi	r25, 0x07	; 7
    be58:	0e 94 3d 66 	call	0xcc7a	; 0xcc7a <_ZN11class_Timer10setElapsedERm>
    be5c:	90 91 72 03 	lds	r25, 0x0372	; 0x800372 <_ZZ21TEAD_processShipsMovevE10bStepSound>
    be60:	81 e0       	ldi	r24, 0x01	; 1
    be62:	89 27       	eor	r24, r25
    be64:	80 93 72 03 	sts	0x0372, r24	; 0x800372 <_ZZ21TEAD_processShipsMovevE10bStepSound>
    be68:	90 91 7b 07 	lds	r25, 0x077B	; 0x80077b <_tead+0x301>
    be6c:	99 23       	and	r25, r25
    be6e:	a9 f1       	breq	.+106    	; 0xbeda <_Z21TEAD_processShipsMovev+0x124>
    be70:	88 23       	and	r24, r24
    be72:	d1 f0       	breq	.+52     	; 0xbea8 <_Z21TEAD_processShipsMovev+0xf2>
    be74:	20 e0       	ldi	r18, 0x00	; 0
    be76:	49 e1       	ldi	r20, 0x19	; 25
    be78:	50 e0       	ldi	r21, 0x00	; 0
    be7a:	68 eb       	ldi	r22, 0xB8	; 184
    be7c:	71 e0       	ldi	r23, 0x01	; 1
    be7e:	8c ea       	ldi	r24, 0xAC	; 172
    be80:	97 e0       	ldi	r25, 0x07	; 7
    be82:	0e 94 45 69 	call	0xd28a	; 0xd28a <_ZN10class_Wave10setToneGenEjjh>
    be86:	83 e0       	ldi	r24, 0x03	; 3
    be88:	0e 94 e3 68 	call	0xd1c6	; 0xd1c6 <_ZN10class_Wave9UnprepareE11WaveChannel>
    be8c:	63 e0       	ldi	r22, 0x03	; 3
    be8e:	88 e7       	ldi	r24, 0x78	; 120
    be90:	94 e6       	ldi	r25, 0x64	; 100
    be92:	0e 94 12 68 	call	0xd024	; 0xd024 <_ZN10class_Wave7PrepareEPKh11WaveChannel>
    be96:	80 91 7b 07 	lds	r24, 0x077B	; 0x80077b <_tead+0x301>
    be9a:	88 23       	and	r24, r24
    be9c:	f1 f0       	breq	.+60     	; 0xbeda <_Z21TEAD_processShipsMovev+0x124>
    be9e:	60 e0       	ldi	r22, 0x00	; 0
    bea0:	83 e0       	ldi	r24, 0x03	; 3
    bea2:	0e 94 ac 68 	call	0xd158	; 0xd158 <_ZN10class_Wave4PlayE11WaveChannel8PlayMode>
    bea6:	19 c0       	rjmp	.+50     	; 0xbeda <_Z21TEAD_processShipsMovev+0x124>
    bea8:	83 e0       	ldi	r24, 0x03	; 3
    beaa:	0e 94 e3 68 	call	0xd1c6	; 0xd1c6 <_ZN10class_Wave9UnprepareE11WaveChannel>
    beae:	63 e0       	ldi	r22, 0x03	; 3
    beb0:	85 ed       	ldi	r24, 0xD5	; 213
    beb2:	92 e6       	ldi	r25, 0x62	; 98
    beb4:	0e 94 12 68 	call	0xd024	; 0xd024 <_ZN10class_Wave7PrepareEPKh11WaveChannel>
    beb8:	80 91 7b 07 	lds	r24, 0x077B	; 0x80077b <_tead+0x301>
    bebc:	88 23       	and	r24, r24
    bebe:	21 f0       	breq	.+8      	; 0xbec8 <_Z21TEAD_processShipsMovev+0x112>
    bec0:	60 e0       	ldi	r22, 0x00	; 0
    bec2:	83 e0       	ldi	r24, 0x03	; 3
    bec4:	0e 94 ac 68 	call	0xd158	; 0xd158 <_ZN10class_Wave4PlayE11WaveChannel8PlayMode>
    bec8:	20 e0       	ldi	r18, 0x00	; 0
    beca:	49 e1       	ldi	r20, 0x19	; 25
    becc:	50 e0       	ldi	r21, 0x00	; 0
    bece:	60 e7       	ldi	r22, 0x70	; 112
    bed0:	73 e0       	ldi	r23, 0x03	; 3
    bed2:	8c ea       	ldi	r24, 0xAC	; 172
    bed4:	97 e0       	ldi	r25, 0x07	; 7
    bed6:	0e 94 45 69 	call	0xd28a	; 0xd28a <_ZN10class_Wave10setToneGenEjjh>
    beda:	90 91 7d 07 	lds	r25, 0x077D	; 0x80077d <_tead+0x303>
    bede:	81 e0       	ldi	r24, 0x01	; 1
    bee0:	89 27       	eor	r24, r25
    bee2:	80 93 7d 07 	sts	0x077D, r24	; 0x80077d <_tead+0x303>
    bee6:	80 91 83 07 	lds	r24, 0x0783	; 0x800783 <_tead+0x309>
    beea:	88 23       	and	r24, r24
    beec:	51 f0       	breq	.+20     	; 0xbf02 <_Z21TEAD_processShipsMovev+0x14c>
    beee:	81 30       	cpi	r24, 0x01	; 1
    bef0:	09 f0       	breq	.+2      	; 0xbef4 <_Z21TEAD_processShipsMovev+0x13e>
    bef2:	47 c0       	rjmp	.+142    	; 0xbf82 <_Z21TEAD_processShipsMovev+0x1cc>
    bef4:	10 91 a9 07 	lds	r17, 0x07A9	; 0x8007a9 <_tead+0x32f>
    bef8:	ca e7       	ldi	r28, 0x7A	; 122
    befa:	d4 e0       	ldi	r29, 0x04	; 4
    befc:	fe 01       	movw	r30, r28
    befe:	80 e0       	ldi	r24, 0x00	; 0
    bf00:	23 c0       	rjmp	.+70     	; 0xbf48 <_Z21TEAD_processShipsMovev+0x192>
    bf02:	20 91 a9 07 	lds	r18, 0x07A9	; 0x8007a9 <_tead+0x32f>
    bf06:	ea e7       	ldi	r30, 0x7A	; 122
    bf08:	f4 e0       	ldi	r31, 0x04	; 4
    bf0a:	80 e0       	ldi	r24, 0x00	; 0
    bf0c:	28 17       	cp	r18, r24
    bf0e:	31 f0       	breq	.+12     	; 0xbf1c <_Z21TEAD_processShipsMovev+0x166>
    bf10:	91 81       	ldd	r25, Z+1	; 0x01
    bf12:	9f 5f       	subi	r25, 0xFF	; 255
    bf14:	91 83       	std	Z+1, r25	; 0x01
    bf16:	8f 5f       	subi	r24, 0xFF	; 255
    bf18:	3a 96       	adiw	r30, 0x0a	; 10
    bf1a:	f8 cf       	rjmp	.-16     	; 0xbf0c <_Z21TEAD_processShipsMovev+0x156>
    bf1c:	0e 94 81 4d 	call	0x9b02	; 0x9b02 <_Z17TEAD_getShipsMaxXv>
    bf20:	87 31       	cpi	r24, 0x17	; 23
    bf22:	7c f1       	brlt	.+94     	; 0xbf82 <_Z21TEAD_processShipsMovev+0x1cc>
    bf24:	81 e0       	ldi	r24, 0x01	; 1
    bf26:	80 93 83 07 	sts	0x0783, r24	; 0x800783 <_tead+0x309>
    bf2a:	80 91 fb 06 	lds	r24, 0x06FB	; 0x8006fb <_tead+0x281>
    bf2e:	90 91 fc 06 	lds	r25, 0x06FC	; 0x8006fc <_tead+0x282>
    bf32:	06 97       	sbiw	r24, 0x06	; 6
    bf34:	84 36       	cpi	r24, 0x64	; 100
    bf36:	91 05       	cpc	r25, r1
    bf38:	14 f4       	brge	.+4      	; 0xbf3e <_Z21TEAD_processShipsMovev+0x188>
    bf3a:	84 e6       	ldi	r24, 0x64	; 100
    bf3c:	90 e0       	ldi	r25, 0x00	; 0
    bf3e:	90 93 fc 06 	sts	0x06FC, r25	; 0x8006fc <_tead+0x282>
    bf42:	80 93 fb 06 	sts	0x06FB, r24	; 0x8006fb <_tead+0x281>
    bf46:	1d c0       	rjmp	.+58     	; 0xbf82 <_Z21TEAD_processShipsMovev+0x1cc>
    bf48:	18 17       	cp	r17, r24
    bf4a:	31 f0       	breq	.+12     	; 0xbf58 <_Z21TEAD_processShipsMovev+0x1a2>
    bf4c:	91 81       	ldd	r25, Z+1	; 0x01
    bf4e:	91 50       	subi	r25, 0x01	; 1
    bf50:	91 83       	std	Z+1, r25	; 0x01
    bf52:	8f 5f       	subi	r24, 0xFF	; 255
    bf54:	3a 96       	adiw	r30, 0x0a	; 10
    bf56:	f8 cf       	rjmp	.-16     	; 0xbf48 <_Z21TEAD_processShipsMovev+0x192>
    bf58:	0e 94 9d 4d 	call	0x9b3a	; 0x9b3a <_Z17TEAD_getShipsMinXv>
    bf5c:	18 16       	cp	r1, r24
    bf5e:	8c f0       	brlt	.+34     	; 0xbf82 <_Z21TEAD_processShipsMovev+0x1cc>
    bf60:	10 92 83 07 	sts	0x0783, r1	; 0x800783 <_tead+0x309>
    bf64:	80 91 fb 06 	lds	r24, 0x06FB	; 0x8006fb <_tead+0x281>
    bf68:	90 91 fc 06 	lds	r25, 0x06FC	; 0x8006fc <_tead+0x282>
    bf6c:	06 97       	sbiw	r24, 0x06	; 6
    bf6e:	84 36       	cpi	r24, 0x64	; 100
    bf70:	91 05       	cpc	r25, r1
    bf72:	4c f4       	brge	.+18     	; 0xbf86 <_Z21TEAD_processShipsMovev+0x1d0>
    bf74:	84 e6       	ldi	r24, 0x64	; 100
    bf76:	90 e0       	ldi	r25, 0x00	; 0
    bf78:	06 c0       	rjmp	.+12     	; 0xbf86 <_Z21TEAD_processShipsMovev+0x1d0>
    bf7a:	0e 94 51 4d 	call	0x9aa2	; 0x9aa2 <_Z17TEAD_getShipsMaxYv>
    bf7e:	8f 30       	cpi	r24, 0x0F	; 15
    bf80:	79 f0       	breq	.+30     	; 0xbfa0 <_Z21TEAD_processShipsMovev+0x1ea>
    bf82:	80 e0       	ldi	r24, 0x00	; 0
    bf84:	19 c0       	rjmp	.+50     	; 0xbfb8 <_Z21TEAD_processShipsMovev+0x202>
    bf86:	90 93 fc 06 	sts	0x06FC, r25	; 0x8006fc <_tead+0x282>
    bf8a:	80 93 fb 06 	sts	0x06FB, r24	; 0x8006fb <_tead+0x281>
    bf8e:	80 e0       	ldi	r24, 0x00	; 0
    bf90:	18 17       	cp	r17, r24
    bf92:	99 f3       	breq	.-26     	; 0xbf7a <_Z21TEAD_processShipsMovev+0x1c4>
    bf94:	9a 81       	ldd	r25, Y+2	; 0x02
    bf96:	9f 5f       	subi	r25, 0xFF	; 255
    bf98:	9a 83       	std	Y+2, r25	; 0x02
    bf9a:	8f 5f       	subi	r24, 0xFF	; 255
    bf9c:	2a 96       	adiw	r28, 0x0a	; 10
    bf9e:	f8 cf       	rjmp	.-16     	; 0xbf90 <_Z21TEAD_processShipsMovev+0x1da>
    bfa0:	41 e0       	ldi	r20, 0x01	; 1
    bfa2:	61 e0       	ldi	r22, 0x01	; 1
    bfa4:	81 e0       	ldi	r24, 0x01	; 1
    bfa6:	0e 94 fd 4d 	call	0x9bfa	; 0x9bfa <_Z19TEAD_initializeGamebbb>
    bfaa:	80 91 7e 07 	lds	r24, 0x077E	; 0x80077e <_tead+0x304>
    bfae:	81 11       	cpse	r24, r1
    bfb0:	03 c0       	rjmp	.+6      	; 0xbfb8 <_Z21TEAD_processShipsMovev+0x202>
    bfb2:	0e 94 d8 5b 	call	0xb7b0	; 0xb7b0 <_Z28TEAD_showGameOverAndMessagesb>
    bfb6:	81 e0       	ldi	r24, 0x01	; 1
    bfb8:	df 91       	pop	r29
    bfba:	cf 91       	pop	r28
    bfbc:	1f 91       	pop	r17
    bfbe:	0f 91       	pop	r16
    bfc0:	08 95       	ret

0000bfc2 <_Z24TEAD_showCannonExplosionv>:
    bfc2:	0f 93       	push	r16
    bfc4:	cf 93       	push	r28
    bfc6:	c3 e0       	ldi	r28, 0x03	; 3
    bfc8:	01 e0       	ldi	r16, 0x01	; 1
    bfca:	21 e0       	ldi	r18, 0x01	; 1
    bfcc:	47 e0       	ldi	r20, 0x07	; 7
    bfce:	6f e0       	ldi	r22, 0x0F	; 15
    bfd0:	80 91 78 07 	lds	r24, 0x0778	; 0x800778 <_tead+0x2fe>
    bfd4:	0e 94 e0 4e 	call	0x9dc0	; 0x9dc0 <_Z18TEAD_showExplosionaaaba>
    bfd8:	81 e0       	ldi	r24, 0x01	; 1
    bfda:	0e 94 4e 4c 	call	0x989c	; 0x989c <_Z15TEAD_drawCannon5Color>
    bfde:	0e 94 77 43 	call	0x86ee	; 0x86ee <_ZN9class_LED7refreshEv>
    bfe2:	42 e3       	ldi	r20, 0x32	; 50
    bfe4:	50 e0       	ldi	r21, 0x00	; 0
    bfe6:	60 e0       	ldi	r22, 0x00	; 0
    bfe8:	70 e0       	ldi	r23, 0x00	; 0
    bfea:	8f ea       	ldi	r24, 0xAF	; 175
    bfec:	97 e0       	ldi	r25, 0x07	; 7
    bfee:	0e 94 5d 66 	call	0xccba	; 0xccba <_ZN11class_Timer17delayMillisecondsEm>
    bff2:	80 e0       	ldi	r24, 0x00	; 0
    bff4:	0e 94 4e 4c 	call	0x989c	; 0x989c <_Z15TEAD_drawCannon5Color>
    bff8:	0e 94 77 43 	call	0x86ee	; 0x86ee <_ZN9class_LED7refreshEv>
    bffc:	44 e6       	ldi	r20, 0x64	; 100
    bffe:	50 e0       	ldi	r21, 0x00	; 0
    c000:	60 e0       	ldi	r22, 0x00	; 0
    c002:	70 e0       	ldi	r23, 0x00	; 0
    c004:	8f ea       	ldi	r24, 0xAF	; 175
    c006:	97 e0       	ldi	r25, 0x07	; 7
    c008:	0e 94 5d 66 	call	0xccba	; 0xccba <_ZN11class_Timer17delayMillisecondsEm>
    c00c:	c1 50       	subi	r28, 0x01	; 1
    c00e:	e1 f6       	brne	.-72     	; 0xbfc8 <_Z24TEAD_showCannonExplosionv+0x6>
    c010:	80 91 77 07 	lds	r24, 0x0777	; 0x800777 <_tead+0x2fd>
    c014:	81 50       	subi	r24, 0x01	; 1
    c016:	80 93 77 07 	sts	0x0777, r24	; 0x800777 <_tead+0x2fd>
    c01a:	81 11       	cpse	r24, r1
    c01c:	0d c0       	rjmp	.+26     	; 0xc038 <_Z24TEAD_showCannonExplosionv+0x76>
    c01e:	41 e0       	ldi	r20, 0x01	; 1
    c020:	61 e0       	ldi	r22, 0x01	; 1
    c022:	81 e0       	ldi	r24, 0x01	; 1
    c024:	0e 94 fd 4d 	call	0x9bfa	; 0x9bfa <_Z19TEAD_initializeGamebbb>
    c028:	80 91 7e 07 	lds	r24, 0x077E	; 0x80077e <_tead+0x304>
    c02c:	81 11       	cpse	r24, r1
    c02e:	04 c0       	rjmp	.+8      	; 0xc038 <_Z24TEAD_showCannonExplosionv+0x76>
    c030:	cf 91       	pop	r28
    c032:	0f 91       	pop	r16
    c034:	0c 94 d8 5b 	jmp	0xb7b0	; 0xb7b0 <_Z28TEAD_showGameOverAndMessagesb>
    c038:	cf 91       	pop	r28
    c03a:	0f 91       	pop	r16
    c03c:	08 95       	ret

0000c03e <_Z26TEAD_processShipsHitCannonv>:
    c03e:	cf 93       	push	r28
    c040:	df 93       	push	r29
    c042:	c0 e0       	ldi	r28, 0x00	; 0
    c044:	da e0       	ldi	r29, 0x0A	; 10
    c046:	80 91 a9 07 	lds	r24, 0x07A9	; 0x8007a9 <_tead+0x32f>
    c04a:	c8 17       	cp	r28, r24
    c04c:	98 f5       	brcc	.+102    	; 0xc0b4 <_Z26TEAD_processShipsHitCannonv+0x76>
    c04e:	dc 9f       	mul	r29, r28
    c050:	f0 01       	movw	r30, r0
    c052:	11 24       	eor	r1, r1
    c054:	e6 58       	subi	r30, 0x86	; 134
    c056:	fb 4f       	sbci	r31, 0xFB	; 251
    c058:	85 81       	ldd	r24, Z+5	; 0x05
    c05a:	88 23       	and	r24, r24
    c05c:	49 f1       	breq	.+82     	; 0xc0b0 <_Z26TEAD_processShipsHitCannonv+0x72>
    c05e:	81 81       	ldd	r24, Z+1	; 0x01
    c060:	20 91 78 07 	lds	r18, 0x0778	; 0x800778 <_tead+0x2fe>
    c064:	28 17       	cp	r18, r24
    c066:	24 f1       	brlt	.+72     	; 0xc0b0 <_Z26TEAD_processShipsHitCannonv+0x72>
    c068:	02 2e       	mov	r0, r18
    c06a:	00 0c       	add	r0, r0
    c06c:	33 0b       	sbc	r19, r19
    c06e:	43 81       	ldd	r20, Z+3	; 0x03
    c070:	08 2e       	mov	r0, r24
    c072:	00 0c       	add	r0, r0
    c074:	99 0b       	sbc	r25, r25
    c076:	84 0f       	add	r24, r20
    c078:	91 1d       	adc	r25, r1
    c07a:	47 fd       	sbrc	r20, 7
    c07c:	9a 95       	dec	r25
    c07e:	28 17       	cp	r18, r24
    c080:	39 07       	cpc	r19, r25
    c082:	b4 f4       	brge	.+44     	; 0xc0b0 <_Z26TEAD_processShipsHitCannonv+0x72>
    c084:	82 81       	ldd	r24, Z+2	; 0x02
    c086:	20 91 79 07 	lds	r18, 0x0779	; 0x800779 <_tead+0x2ff>
    c08a:	28 17       	cp	r18, r24
    c08c:	8c f0       	brlt	.+34     	; 0xc0b0 <_Z26TEAD_processShipsHitCannonv+0x72>
    c08e:	02 2e       	mov	r0, r18
    c090:	00 0c       	add	r0, r0
    c092:	33 0b       	sbc	r19, r19
    c094:	44 81       	ldd	r20, Z+4	; 0x04
    c096:	08 2e       	mov	r0, r24
    c098:	00 0c       	add	r0, r0
    c09a:	99 0b       	sbc	r25, r25
    c09c:	84 0f       	add	r24, r20
    c09e:	91 1d       	adc	r25, r1
    c0a0:	47 fd       	sbrc	r20, 7
    c0a2:	9a 95       	dec	r25
    c0a4:	28 17       	cp	r18, r24
    c0a6:	39 07       	cpc	r19, r25
    c0a8:	1c f4       	brge	.+6      	; 0xc0b0 <_Z26TEAD_processShipsHitCannonv+0x72>
    c0aa:	15 82       	std	Z+5, r1	; 0x05
    c0ac:	0e 94 e1 5f 	call	0xbfc2	; 0xbfc2 <_Z24TEAD_showCannonExplosionv>
    c0b0:	cf 5f       	subi	r28, 0xFF	; 255
    c0b2:	c9 cf       	rjmp	.-110    	; 0xc046 <_Z26TEAD_processShipsHitCannonv+0x8>
    c0b4:	df 91       	pop	r29
    c0b6:	cf 91       	pop	r28
    c0b8:	08 95       	ret

0000c0ba <_Z25TEAD_processFireFromShipsv>:
    c0ba:	0f 93       	push	r16
    c0bc:	1f 93       	push	r17
    c0be:	cf 93       	push	r28
    c0c0:	df 93       	push	r29
    c0c2:	80 91 84 07 	lds	r24, 0x0784	; 0x800784 <_tead+0x30a>
    c0c6:	88 23       	and	r24, r24
    c0c8:	09 f4       	brne	.+2      	; 0xc0cc <_Z25TEAD_processFireFromShipsv+0x12>
    c0ca:	83 c0       	rjmp	.+262    	; 0xc1d2 <_Z25TEAD_processFireFromShipsv+0x118>
    c0cc:	20 91 76 07 	lds	r18, 0x0776	; 0x800776 <_tead+0x2fc>
    c0d0:	23 33       	cpi	r18, 0x33	; 51
    c0d2:	88 f4       	brcc	.+34     	; 0xc0f6 <_Z25TEAD_processFireFromShipsv+0x3c>
    c0d4:	30 e0       	ldi	r19, 0x00	; 0
    c0d6:	21 50       	subi	r18, 0x01	; 1
    c0d8:	31 09       	sbc	r19, r1
    c0da:	48 e7       	ldi	r20, 0x78	; 120
    c0dc:	42 9f       	mul	r20, r18
    c0de:	c0 01       	movw	r24, r0
    c0e0:	43 9f       	mul	r20, r19
    c0e2:	90 0d       	add	r25, r0
    c0e4:	11 24       	eor	r1, r1
    c0e6:	6e ec       	ldi	r22, 0xCE	; 206
    c0e8:	7f ef       	ldi	r23, 0xFF	; 255
    c0ea:	0e 94 78 69 	call	0xd2f0	; 0xd2f0 <__divmodhi4>
    c0ee:	eb 01       	movw	r28, r22
    c0f0:	c8 53       	subi	r28, 0x38	; 56
    c0f2:	df 4f       	sbci	r29, 0xFF	; 255
    c0f4:	02 c0       	rjmp	.+4      	; 0xc0fa <_Z25TEAD_processFireFromShipsv+0x40>
    c0f6:	c0 e5       	ldi	r28, 0x50	; 80
    c0f8:	d0 e0       	ldi	r29, 0x00	; 0
    c0fa:	67 ee       	ldi	r22, 0xE7	; 231
    c0fc:	76 e0       	ldi	r23, 0x06	; 6
    c0fe:	8f ea       	ldi	r24, 0xAF	; 175
    c100:	97 e0       	ldi	r25, 0x07	; 7
    c102:	0e 94 49 66 	call	0xcc92	; 0xcc92 <_ZN11class_Timer10getElapsedERm>
    c106:	8e 01       	movw	r16, r28
    c108:	20 e0       	ldi	r18, 0x00	; 0
    c10a:	30 e0       	ldi	r19, 0x00	; 0
    c10c:	06 17       	cp	r16, r22
    c10e:	17 07       	cpc	r17, r23
    c110:	28 07       	cpc	r18, r24
    c112:	39 07       	cpc	r19, r25
    c114:	08 f0       	brcs	.+2      	; 0xc118 <_Z25TEAD_processFireFromShipsv+0x5e>
    c116:	69 c1       	rjmp	.+722    	; 0xc3ea <_Z25TEAD_processFireFromShipsv+0x330>
    c118:	67 ee       	ldi	r22, 0xE7	; 231
    c11a:	76 e0       	ldi	r23, 0x06	; 6
    c11c:	8f ea       	ldi	r24, 0xAF	; 175
    c11e:	97 e0       	ldi	r25, 0x07	; 7
    c120:	0e 94 3d 66 	call	0xcc7a	; 0xcc7a <_ZN11class_Timer10setElapsedERm>
    c124:	60 91 86 07 	lds	r22, 0x0786	; 0x800786 <_tead+0x30c>
    c128:	6f 5f       	subi	r22, 0xFF	; 255
    c12a:	60 93 86 07 	sts	0x0786, r22	; 0x800786 <_tead+0x30c>
    c12e:	06 2e       	mov	r0, r22
    c130:	00 0c       	add	r0, r0
    c132:	77 0b       	sbc	r23, r23
    c134:	80 91 85 07 	lds	r24, 0x0785	; 0x800785 <_tead+0x30b>
    c138:	08 2e       	mov	r0, r24
    c13a:	00 0c       	add	r0, r0
    c13c:	99 0b       	sbc	r25, r25
    c13e:	0e 94 3b 43 	call	0x8676	; 0x8676 <_ZN9class_LED8getPixelEii>
    c142:	81 30       	cpi	r24, 0x01	; 1
    c144:	81 f0       	breq	.+32     	; 0xc166 <_Z25TEAD_processFireFromShipsv+0xac>
    c146:	60 91 86 07 	lds	r22, 0x0786	; 0x800786 <_tead+0x30c>
    c14a:	06 2e       	mov	r0, r22
    c14c:	00 0c       	add	r0, r0
    c14e:	77 0b       	sbc	r23, r23
    c150:	6f 5f       	subi	r22, 0xFF	; 255
    c152:	7f 4f       	sbci	r23, 0xFF	; 255
    c154:	80 91 85 07 	lds	r24, 0x0785	; 0x800785 <_tead+0x30b>
    c158:	08 2e       	mov	r0, r24
    c15a:	00 0c       	add	r0, r0
    c15c:	99 0b       	sbc	r25, r25
    c15e:	0e 94 3b 43 	call	0x8676	; 0x8676 <_ZN9class_LED8getPixelEii>
    c162:	81 30       	cpi	r24, 0x01	; 1
    c164:	71 f5       	brne	.+92     	; 0xc1c2 <_Z25TEAD_processFireFromShipsv+0x108>
    c166:	90 91 85 07 	lds	r25, 0x0785	; 0x800785 <_tead+0x30b>
    c16a:	80 91 86 07 	lds	r24, 0x0786	; 0x800786 <_tead+0x30c>
    c16e:	ee e6       	ldi	r30, 0x6E	; 110
    c170:	f6 e0       	ldi	r31, 0x06	; 6
    c172:	c0 e0       	ldi	r28, 0x00	; 0
    c174:	d0 e0       	ldi	r29, 0x00	; 0
    c176:	22 81       	ldd	r18, Z+2	; 0x02
    c178:	21 11       	cpse	r18, r1
    c17a:	dc c0       	rjmp	.+440    	; 0xc334 <_Z25TEAD_processFireFromShipsv+0x27a>
    c17c:	21 96       	adiw	r28, 0x01	; 1
    c17e:	33 96       	adiw	r30, 0x03	; 3
    c180:	ce 31       	cpi	r28, 0x1E	; 30
    c182:	d1 05       	cpc	r29, r1
    c184:	c1 f7       	brne	.-16     	; 0xc176 <_Z25TEAD_processFireFromShipsv+0xbc>
    c186:	20 91 78 07 	lds	r18, 0x0778	; 0x800778 <_tead+0x2fe>
    c18a:	92 17       	cp	r25, r18
    c18c:	09 f4       	brne	.+2      	; 0xc190 <_Z25TEAD_processFireFromShipsv+0xd6>
    c18e:	f4 c0       	rjmp	.+488    	; 0xc378 <_Z25TEAD_processFireFromShipsv+0x2be>
    c190:	49 2f       	mov	r20, r25
    c192:	09 2e       	mov	r0, r25
    c194:	00 0c       	add	r0, r0
    c196:	55 0b       	sbc	r21, r21
    c198:	02 2e       	mov	r0, r18
    c19a:	00 0c       	add	r0, r0
    c19c:	33 0b       	sbc	r19, r19
    c19e:	b9 01       	movw	r22, r18
    c1a0:	61 50       	subi	r22, 0x01	; 1
    c1a2:	71 09       	sbc	r23, r1
    c1a4:	46 17       	cp	r20, r22
    c1a6:	57 07       	cpc	r21, r23
    c1a8:	09 f4       	brne	.+2      	; 0xc1ac <_Z25TEAD_processFireFromShipsv+0xf2>
    c1aa:	f6 c0       	rjmp	.+492    	; 0xc398 <_Z25TEAD_processFireFromShipsv+0x2de>
    c1ac:	2f 5f       	subi	r18, 0xFF	; 255
    c1ae:	3f 4f       	sbci	r19, 0xFF	; 255
    c1b0:	42 17       	cp	r20, r18
    c1b2:	53 07       	cpc	r21, r19
    c1b4:	09 f4       	brne	.+2      	; 0xc1b8 <_Z25TEAD_processFireFromShipsv+0xfe>
    c1b6:	f5 c0       	rjmp	.+490    	; 0xc3a2 <_Z25TEAD_processFireFromShipsv+0x2e8>
    c1b8:	20 91 81 07 	lds	r18, 0x0781	; 0x800781 <_tead+0x307>
    c1bc:	92 17       	cp	r25, r18
    c1be:	09 f4       	brne	.+2      	; 0xc1c2 <_Z25TEAD_processFireFromShipsv+0x108>
    c1c0:	fd c0       	rjmp	.+506    	; 0xc3bc <_Z25TEAD_processFireFromShipsv+0x302>
    c1c2:	80 91 86 07 	lds	r24, 0x0786	; 0x800786 <_tead+0x30c>
    c1c6:	80 31       	cpi	r24, 0x10	; 16
    c1c8:	0c f4       	brge	.+2      	; 0xc1cc <_Z25TEAD_processFireFromShipsv+0x112>
    c1ca:	0f c1       	rjmp	.+542    	; 0xc3ea <_Z25TEAD_processFireFromShipsv+0x330>
    c1cc:	10 92 84 07 	sts	0x0784, r1	; 0x800784 <_tead+0x30a>
    c1d0:	0c c1       	rjmp	.+536    	; 0xc3ea <_Z25TEAD_processFireFromShipsv+0x330>
    c1d2:	6b ee       	ldi	r22, 0xEB	; 235
    c1d4:	76 e0       	ldi	r23, 0x06	; 6
    c1d6:	8f ea       	ldi	r24, 0xAF	; 175
    c1d8:	97 e0       	ldi	r25, 0x07	; 7
    c1da:	0e 94 49 66 	call	0xcc92	; 0xcc92 <_ZN11class_Timer10getElapsedERm>
    c1de:	61 32       	cpi	r22, 0x21	; 33
    c1e0:	73 40       	sbci	r23, 0x03	; 3
    c1e2:	81 05       	cpc	r24, r1
    c1e4:	91 05       	cpc	r25, r1
    c1e6:	08 f4       	brcc	.+2      	; 0xc1ea <_Z25TEAD_processFireFromShipsv+0x130>
    c1e8:	00 c1       	rjmp	.+512    	; 0xc3ea <_Z25TEAD_processFireFromShipsv+0x330>
    c1ea:	6b ee       	ldi	r22, 0xEB	; 235
    c1ec:	76 e0       	ldi	r23, 0x06	; 6
    c1ee:	8f ea       	ldi	r24, 0xAF	; 175
    c1f0:	97 e0       	ldi	r25, 0x07	; 7
    c1f2:	0e 94 3d 66 	call	0xcc7a	; 0xcc7a <_ZN11class_Timer10setElapsedERm>
    c1f6:	10 92 c8 06 	sts	0x06C8, r1	; 0x8006c8 <_tead+0x24e>
    c1fa:	c9 ec       	ldi	r28, 0xC9	; 201
    c1fc:	d6 e0       	ldi	r29, 0x06	; 6
    c1fe:	fe 01       	movw	r30, r28
    c200:	10 82       	st	Z, r1
    c202:	11 82       	std	Z+1, r1	; 0x01
    c204:	32 96       	adiw	r30, 0x02	; 2
    c206:	86 e0       	ldi	r24, 0x06	; 6
    c208:	eb 3d       	cpi	r30, 0xDB	; 219
    c20a:	f8 07       	cpc	r31, r24
    c20c:	c9 f7       	brne	.-14     	; 0xc200 <_Z25TEAD_processFireFromShipsv+0x146>
    c20e:	90 e0       	ldi	r25, 0x00	; 0
    c210:	6a e0       	ldi	r22, 0x0A	; 10
    c212:	30 91 a7 07 	lds	r19, 0x07A7	; 0x8007a7 <_tead+0x32d>
    c216:	e3 2f       	mov	r30, r19
    c218:	f0 e0       	ldi	r31, 0x00	; 0
    c21a:	49 2f       	mov	r20, r25
    c21c:	09 2e       	mov	r0, r25
    c21e:	00 0c       	add	r0, r0
    c220:	55 0b       	sbc	r21, r21
    c222:	4e 17       	cp	r20, r30
    c224:	5f 07       	cpc	r21, r31
    c226:	44 f5       	brge	.+80     	; 0xc278 <_Z25TEAD_processFireFromShipsv+0x1be>
    c228:	80 91 a8 07 	lds	r24, 0x07A8	; 0x8007a8 <_tead+0x32e>
    c22c:	81 50       	subi	r24, 0x01	; 1
    c22e:	59 2f       	mov	r21, r25
    c230:	38 9f       	mul	r19, r24
    c232:	50 0d       	add	r21, r0
    c234:	11 24       	eor	r1, r1
    c236:	40 e0       	ldi	r20, 0x00	; 0
    c238:	87 fd       	sbrc	r24, 7
    c23a:	1c c0       	rjmp	.+56     	; 0xc274 <_Z25TEAD_processFireFromShipsv+0x1ba>
    c23c:	24 2f       	mov	r18, r20
    c23e:	25 0f       	add	r18, r21
    c240:	43 1b       	sub	r20, r19
    c242:	26 03       	mulsu	r18, r22
    c244:	f0 01       	movw	r30, r0
    c246:	11 24       	eor	r1, r1
    c248:	e6 58       	subi	r30, 0x86	; 134
    c24a:	fb 4f       	sbci	r31, 0xFB	; 251
    c24c:	25 81       	ldd	r18, Z+5	; 0x05
    c24e:	22 23       	and	r18, r18
    c250:	79 f0       	breq	.+30     	; 0xc270 <_Z25TEAD_processFireFromShipsv+0x1b6>
    c252:	80 91 c8 06 	lds	r24, 0x06C8	; 0x8006c8 <_tead+0x24e>
    c256:	a8 2f       	mov	r26, r24
    c258:	aa 0f       	add	r26, r26
    c25a:	bb 0b       	sbc	r27, r27
    c25c:	a7 53       	subi	r26, 0x37	; 55
    c25e:	b9 4f       	sbci	r27, 0xF9	; 249
    c260:	21 81       	ldd	r18, Z+1	; 0x01
    c262:	32 81       	ldd	r19, Z+2	; 0x02
    c264:	2d 93       	st	X+, r18
    c266:	3c 93       	st	X, r19
    c268:	8f 5f       	subi	r24, 0xFF	; 255
    c26a:	80 93 c8 06 	sts	0x06C8, r24	; 0x8006c8 <_tead+0x24e>
    c26e:	02 c0       	rjmp	.+4      	; 0xc274 <_Z25TEAD_processFireFromShipsv+0x1ba>
    c270:	81 50       	subi	r24, 0x01	; 1
    c272:	e2 cf       	rjmp	.-60     	; 0xc238 <_Z25TEAD_processFireFromShipsv+0x17e>
    c274:	9f 5f       	subi	r25, 0xFF	; 255
    c276:	cd cf       	rjmp	.-102    	; 0xc212 <_Z25TEAD_processFireFromShipsv+0x158>
    c278:	80 91 c8 06 	lds	r24, 0x06C8	; 0x8006c8 <_tead+0x24e>
    c27c:	18 16       	cp	r1, r24
    c27e:	0c f0       	brlt	.+2      	; 0xc282 <_Z25TEAD_processFireFromShipsv+0x1c8>
    c280:	b4 c0       	rjmp	.+360    	; 0xc3ea <_Z25TEAD_processFireFromShipsv+0x330>
    c282:	0e 94 4d 6a 	call	0xd49a	; 0xd49a <rand>
    c286:	6a e0       	ldi	r22, 0x0A	; 10
    c288:	70 e0       	ldi	r23, 0x00	; 0
    c28a:	0e 94 78 69 	call	0xd2f0	; 0xd2f0 <__divmodhi4>
    c28e:	04 97       	sbiw	r24, 0x04	; 4
    c290:	cc f1       	brlt	.+114    	; 0xc304 <_Z25TEAD_processFireFromShipsv+0x24a>
    c292:	70 91 c8 06 	lds	r23, 0x06C8	; 0x8006c8 <_tead+0x24e>
    c296:	8f ef       	ldi	r24, 0xFF	; 255
    c298:	87 0f       	add	r24, r23
    c29a:	40 91 78 07 	lds	r20, 0x0778	; 0x800778 <_tead+0x2fe>
    c29e:	04 2e       	mov	r0, r20
    c2a0:	00 0c       	add	r0, r0
    c2a2:	55 0b       	sbc	r21, r21
    c2a4:	90 e0       	ldi	r25, 0x00	; 0
    c2a6:	67 e1       	ldi	r22, 0x17	; 23
    c2a8:	97 17       	cp	r25, r23
    c2aa:	bc f4       	brge	.+46     	; 0xc2da <_Z25TEAD_processFireFromShipsv+0x220>
    c2ac:	28 81       	ld	r18, Y
    c2ae:	02 2e       	mov	r0, r18
    c2b0:	00 0c       	add	r0, r0
    c2b2:	33 0b       	sbc	r19, r19
    c2b4:	24 1b       	sub	r18, r20
    c2b6:	35 0b       	sbc	r19, r21
    c2b8:	37 ff       	sbrs	r19, 7
    c2ba:	03 c0       	rjmp	.+6      	; 0xc2c2 <_Z25TEAD_processFireFromShipsv+0x208>
    c2bc:	31 95       	neg	r19
    c2be:	21 95       	neg	r18
    c2c0:	31 09       	sbc	r19, r1
    c2c2:	e6 2f       	mov	r30, r22
    c2c4:	06 2e       	mov	r0, r22
    c2c6:	00 0c       	add	r0, r0
    c2c8:	ff 0b       	sbc	r31, r31
    c2ca:	2e 17       	cp	r18, r30
    c2cc:	3f 07       	cpc	r19, r31
    c2ce:	14 f4       	brge	.+4      	; 0xc2d4 <_Z25TEAD_processFireFromShipsv+0x21a>
    c2d0:	62 2f       	mov	r22, r18
    c2d2:	89 2f       	mov	r24, r25
    c2d4:	9f 5f       	subi	r25, 0xFF	; 255
    c2d6:	22 96       	adiw	r28, 0x02	; 2
    c2d8:	e7 cf       	rjmp	.-50     	; 0xc2a8 <_Z25TEAD_processFireFromShipsv+0x1ee>
    c2da:	08 2e       	mov	r0, r24
    c2dc:	00 0c       	add	r0, r0
    c2de:	99 0b       	sbc	r25, r25
    c2e0:	fc 01       	movw	r30, r24
    c2e2:	ee 0f       	add	r30, r30
    c2e4:	ff 1f       	adc	r31, r31
    c2e6:	e7 53       	subi	r30, 0x37	; 55
    c2e8:	f9 4f       	sbci	r31, 0xF9	; 249
    c2ea:	20 81       	ld	r18, Z
    c2ec:	2f 5f       	subi	r18, 0xFF	; 255
    c2ee:	20 93 85 07 	sts	0x0785, r18	; 0x800785 <_tead+0x30b>
    c2f2:	88 0f       	add	r24, r24
    c2f4:	99 1f       	adc	r25, r25
    c2f6:	fc 01       	movw	r30, r24
    c2f8:	e6 53       	subi	r30, 0x36	; 54
    c2fa:	f9 4f       	sbci	r31, 0xF9	; 249
    c2fc:	80 81       	ld	r24, Z
    c2fe:	80 93 86 07 	sts	0x0786, r24	; 0x800786 <_tead+0x30c>
    c302:	14 c0       	rjmp	.+40     	; 0xc32c <_Z25TEAD_processFireFromShipsv+0x272>
    c304:	0e 94 4d 6a 	call	0xd49a	; 0xd49a <rand>
    c308:	60 91 c8 06 	lds	r22, 0x06C8	; 0x8006c8 <_tead+0x24e>
    c30c:	06 2e       	mov	r0, r22
    c30e:	00 0c       	add	r0, r0
    c310:	77 0b       	sbc	r23, r23
    c312:	0e 94 78 69 	call	0xd2f0	; 0xd2f0 <__divmodhi4>
    c316:	e8 2f       	mov	r30, r24
    c318:	ee 0f       	add	r30, r30
    c31a:	ff 0b       	sbc	r31, r31
    c31c:	e7 53       	subi	r30, 0x37	; 55
    c31e:	f9 4f       	sbci	r31, 0xF9	; 249
    c320:	80 81       	ld	r24, Z
    c322:	91 81       	ldd	r25, Z+1	; 0x01
    c324:	90 93 86 07 	sts	0x0786, r25	; 0x800786 <_tead+0x30c>
    c328:	80 93 85 07 	sts	0x0785, r24	; 0x800785 <_tead+0x30b>
    c32c:	81 e0       	ldi	r24, 0x01	; 1
    c32e:	80 93 84 07 	sts	0x0784, r24	; 0x800784 <_tead+0x30a>
    c332:	5b c0       	rjmp	.+182    	; 0xc3ea <_Z25TEAD_processFireFromShipsv+0x330>
    c334:	20 81       	ld	r18, Z
    c336:	29 13       	cpse	r18, r25
    c338:	21 cf       	rjmp	.-446    	; 0xc17c <_Z25TEAD_processFireFromShipsv+0xc2>
    c33a:	21 81       	ldd	r18, Z+1	; 0x01
    c33c:	28 13       	cpse	r18, r24
    c33e:	1e cf       	rjmp	.-452    	; 0xc17c <_Z25TEAD_processFireFromShipsv+0xc2>
    c340:	01 e0       	ldi	r16, 0x01	; 1
    c342:	21 e0       	ldi	r18, 0x01	; 1
    c344:	42 e0       	ldi	r20, 0x02	; 2
    c346:	68 2f       	mov	r22, r24
    c348:	81 e0       	ldi	r24, 0x01	; 1
    c34a:	89 0f       	add	r24, r25
    c34c:	0e 94 e0 4e 	call	0x9dc0	; 0x9dc0 <_Z18TEAD_showExplosionaaaba>
    c350:	ce 01       	movw	r24, r28
    c352:	88 0f       	add	r24, r24
    c354:	99 1f       	adc	r25, r25
    c356:	c8 0f       	add	r28, r24
    c358:	d9 1f       	adc	r29, r25
    c35a:	c0 59       	subi	r28, 0x90	; 144
    c35c:	d9 4f       	sbci	r29, 0xF9	; 249
    c35e:	18 82       	st	Y, r1
    c360:	10 92 84 07 	sts	0x0784, r1	; 0x800784 <_tead+0x30a>
    c364:	6b ee       	ldi	r22, 0xEB	; 235
    c366:	76 e0       	ldi	r23, 0x06	; 6
    c368:	8f ea       	ldi	r24, 0xAF	; 175
    c36a:	97 e0       	ldi	r25, 0x07	; 7
    c36c:	df 91       	pop	r29
    c36e:	cf 91       	pop	r28
    c370:	1f 91       	pop	r17
    c372:	0f 91       	pop	r16
    c374:	0c 94 3d 66 	jmp	0xcc7a	; 0xcc7a <_ZN11class_Timer10setElapsedERm>
    c378:	40 91 79 07 	lds	r20, 0x0779	; 0x800779 <_tead+0x2ff>
    c37c:	04 2e       	mov	r0, r20
    c37e:	00 0c       	add	r0, r0
    c380:	55 0b       	sbc	r21, r21
    c382:	41 50       	subi	r20, 0x01	; 1
    c384:	51 09       	sbc	r21, r1
    c386:	68 2f       	mov	r22, r24
    c388:	08 2e       	mov	r0, r24
    c38a:	00 0c       	add	r0, r0
    c38c:	77 0b       	sbc	r23, r23
    c38e:	64 17       	cp	r22, r20
    c390:	75 07       	cpc	r23, r21
    c392:	09 f0       	breq	.+2      	; 0xc396 <_Z25TEAD_processFireFromShipsv+0x2dc>
    c394:	fd ce       	rjmp	.-518    	; 0xc190 <_Z25TEAD_processFireFromShipsv+0xd6>
    c396:	09 c0       	rjmp	.+18     	; 0xc3aa <_Z25TEAD_processFireFromShipsv+0x2f0>
    c398:	60 91 79 07 	lds	r22, 0x0779	; 0x800779 <_tead+0x2ff>
    c39c:	86 13       	cpse	r24, r22
    c39e:	06 cf       	rjmp	.-500    	; 0xc1ac <_Z25TEAD_processFireFromShipsv+0xf2>
    c3a0:	04 c0       	rjmp	.+8      	; 0xc3aa <_Z25TEAD_processFireFromShipsv+0x2f0>
    c3a2:	20 91 79 07 	lds	r18, 0x0779	; 0x800779 <_tead+0x2ff>
    c3a6:	82 13       	cpse	r24, r18
    c3a8:	07 cf       	rjmp	.-498    	; 0xc1b8 <_Z25TEAD_processFireFromShipsv+0xfe>
    c3aa:	0e 94 e1 5f 	call	0xbfc2	; 0xbfc2 <_Z24TEAD_showCannonExplosionv>
    c3ae:	6b ee       	ldi	r22, 0xEB	; 235
    c3b0:	76 e0       	ldi	r23, 0x06	; 6
    c3b2:	8f ea       	ldi	r24, 0xAF	; 175
    c3b4:	97 e0       	ldi	r25, 0x07	; 7
    c3b6:	0e 94 3d 66 	call	0xcc7a	; 0xcc7a <_ZN11class_Timer10setElapsedERm>
    c3ba:	08 cf       	rjmp	.-496    	; 0xc1cc <_Z25TEAD_processFireFromShipsv+0x112>
    c3bc:	90 91 82 07 	lds	r25, 0x0782	; 0x800782 <_tead+0x308>
    c3c0:	89 13       	cpse	r24, r25
    c3c2:	ff ce       	rjmp	.-514    	; 0xc1c2 <_Z25TEAD_processFireFromShipsv+0x108>
    c3c4:	02 e0       	ldi	r16, 0x02	; 2
    c3c6:	21 e0       	ldi	r18, 0x01	; 1
    c3c8:	42 e0       	ldi	r20, 0x02	; 2
    c3ca:	68 2f       	mov	r22, r24
    c3cc:	0e 94 e0 4e 	call	0x9dc0	; 0x9dc0 <_Z18TEAD_showExplosionaaaba>
    c3d0:	6b ee       	ldi	r22, 0xEB	; 235
    c3d2:	76 e0       	ldi	r23, 0x06	; 6
    c3d4:	8f ea       	ldi	r24, 0xAF	; 175
    c3d6:	97 e0       	ldi	r25, 0x07	; 7
    c3d8:	0e 94 3d 66 	call	0xcc7a	; 0xcc7a <_ZN11class_Timer10setElapsedERm>
    c3dc:	10 92 84 07 	sts	0x0784, r1	; 0x800784 <_tead+0x30a>
    c3e0:	10 92 7a 07 	sts	0x077A, r1	; 0x80077a <_tead+0x300>
    c3e4:	8f e0       	ldi	r24, 0x0F	; 15
    c3e6:	80 93 81 07 	sts	0x0781, r24	; 0x800781 <_tead+0x307>
    c3ea:	df 91       	pop	r29
    c3ec:	cf 91       	pop	r28
    c3ee:	1f 91       	pop	r17
    c3f0:	0f 91       	pop	r16
    c3f2:	08 95       	ret

0000c3f4 <_GLOBAL__sub_I_e_Scores>:
    c3f4:	8f ea       	ldi	r24, 0xAF	; 175
    c3f6:	97 e0       	ldi	r25, 0x07	; 7
    c3f8:	0e 94 c7 65 	call	0xcb8e	; 0xcb8e <_ZN11class_TimerC1Ev>
    c3fc:	61 e0       	ldi	r22, 0x01	; 1
    c3fe:	8e ea       	ldi	r24, 0xAE	; 174
    c400:	97 e0       	ldi	r25, 0x07	; 7
    c402:	0e 94 ca 42 	call	0x8594	; 0x8594 <_ZN9class_LEDC1E11RefreshMode>
    c406:	8d ea       	ldi	r24, 0xAD	; 173
    c408:	97 e0       	ldi	r25, 0x07	; 7
    c40a:	0e 94 81 41 	call	0x8302	; 0x8302 <_ZN9class_KBDC1Ev>
    c40e:	8c ea       	ldi	r24, 0xAC	; 172
    c410:	97 e0       	ldi	r25, 0x07	; 7
    c412:	0e 94 43 69 	call	0xd286	; 0xd286 <_ZN10class_WaveC1Ev>
    c416:	8b ea       	ldi	r24, 0xAB	; 171
    c418:	97 e0       	ldi	r25, 0x07	; 7
    c41a:	0e 94 f0 64 	call	0xc9e0	; 0xc9e0 <_ZN9class_RTCC1Ev>
    c41e:	8a ea       	ldi	r24, 0xAA	; 170
    c420:	97 e0       	ldi	r25, 0x07	; 7
    c422:	0e 94 da 3f 	call	0x7fb4	; 0x7fb4 <_ZN9class_ADCC1Ev>
    c426:	81 e0       	ldi	r24, 0x01	; 1
    c428:	80 93 73 07 	sts	0x0773, r24	; 0x800773 <_tead+0x2f9>
    c42c:	80 93 7b 07 	sts	0x077B, r24	; 0x80077b <_tead+0x301>
    c430:	10 92 7c 07 	sts	0x077C, r1	; 0x80077c <_tead+0x302>
    c434:	80 93 7d 07 	sts	0x077D, r24	; 0x80077d <_tead+0x303>
    c438:	10 92 7e 07 	sts	0x077E, r1	; 0x80077e <_tead+0x304>
    c43c:	80 93 a5 07 	sts	0x07A5, r24	; 0x8007a5 <_tead+0x32b>
    c440:	83 e0       	ldi	r24, 0x03	; 3
    c442:	80 93 a6 07 	sts	0x07A6, r24	; 0x8007a6 <_tead+0x32c>
    c446:	95 e0       	ldi	r25, 0x05	; 5
    c448:	90 93 a7 07 	sts	0x07A7, r25	; 0x8007a7 <_tead+0x32d>
    c44c:	80 93 a8 07 	sts	0x07A8, r24	; 0x8007a8 <_tead+0x32e>
    c450:	8f e0       	ldi	r24, 0x0F	; 15
    c452:	80 93 a9 07 	sts	0x07A9, r24	; 0x8007a9 <_tead+0x32f>
    c456:	10 92 79 04 	sts	0x0479, r1	; 0x800479 <_cobra+0x101>
    c45a:	10 92 78 04 	sts	0x0478, r1	; 0x800478 <_cobra+0x100>
    c45e:	08 95       	ret

0000c460 <_GLOBAL__sub_D_e_Scores>:
    c460:	8a ea       	ldi	r24, 0xAA	; 170
    c462:	97 e0       	ldi	r25, 0x07	; 7
    c464:	0e 94 e4 3f 	call	0x7fc8	; 0x7fc8 <_ZN9class_ADCD1Ev>
    c468:	8b ea       	ldi	r24, 0xAB	; 171
    c46a:	97 e0       	ldi	r25, 0x07	; 7
    c46c:	0e 94 82 62 	call	0xc504	; 0xc504 <_ZN9class_RTCD1Ev>
    c470:	8c ea       	ldi	r24, 0xAC	; 172
    c472:	97 e0       	ldi	r25, 0x07	; 7
    c474:	0e 94 00 68 	call	0xd000	; 0xd000 <_ZN10class_WaveD1Ev>
    c478:	8d ea       	ldi	r24, 0xAD	; 173
    c47a:	97 e0       	ldi	r25, 0x07	; 7
    c47c:	0e 94 83 41 	call	0x8306	; 0x8306 <_ZN9class_KBDD1Ev>
    c480:	8e ea       	ldi	r24, 0xAE	; 174
    c482:	97 e0       	ldi	r25, 0x07	; 7
    c484:	0e 94 fe 41 	call	0x83fc	; 0x83fc <_ZN9class_LEDD1Ev>
    c488:	8f ea       	ldi	r24, 0xAF	; 175
    c48a:	97 e0       	ldi	r25, 0x07	; 7
    c48c:	0c 94 d0 65 	jmp	0xcba0	; 0xcba0 <_ZN11class_TimerD1Ev>

0000c490 <_ZN9class_RTC10InitializeEv>:
    c490:	1f 93       	push	r17
    c492:	cf 93       	push	r28
    c494:	df 93       	push	r29
    c496:	1f b7       	in	r17, 0x3f	; 63
    c498:	80 e0       	ldi	r24, 0x00	; 0
    c49a:	0e 94 f4 40 	call	0x81e8	; 0x81e8 <_ZN9class_I2C8setSpeedE8I2CSpeed>
    c49e:	c1 eb       	ldi	r28, 0xB1	; 177
    c4a0:	d7 e0       	ldi	r29, 0x07	; 7
    c4a2:	89 e2       	ldi	r24, 0x29	; 41
    c4a4:	fe 01       	movw	r30, r28
    c4a6:	11 92       	st	Z+, r1
    c4a8:	8a 95       	dec	r24
    c4aa:	e9 f7       	brne	.-6      	; 0xc4a6 <_ZN9class_RTC10InitializeEv+0x16>
    c4ac:	86 e1       	ldi	r24, 0x16	; 22
    c4ae:	8e 83       	std	Y+6, r24	; 0x06
    c4b0:	81 e0       	ldi	r24, 0x01	; 1
    c4b2:	8c 87       	std	Y+12, r24	; 0x0c
    c4b4:	84 ec       	ldi	r24, 0xC4	; 196
    c4b6:	97 e0       	ldi	r25, 0x07	; 7
    c4b8:	0e 94 c7 65 	call	0xcb8e	; 0xcb8e <_ZN11class_TimerC1Ev>
    c4bc:	85 ec       	ldi	r24, 0xC5	; 197
    c4be:	97 e0       	ldi	r25, 0x07	; 7
    c4c0:	0e 94 ed 40 	call	0x81da	; 0x81da <_ZN9class_I2CC1Ev>
    c4c4:	1c 8e       	std	Y+28, r1	; 0x1c
    c4c6:	8f e1       	ldi	r24, 0x1F	; 31
    c4c8:	8d 8f       	std	Y+29, r24	; 0x1d
    c4ca:	9c e1       	ldi	r25, 0x1C	; 28
    c4cc:	9e 8f       	std	Y+30, r25	; 0x1e
    c4ce:	8f 8f       	std	Y+31, r24	; 0x1f
    c4d0:	9e e1       	ldi	r25, 0x1E	; 30
    c4d2:	98 a3       	std	Y+32, r25	; 0x20
    c4d4:	89 a3       	std	Y+33, r24	; 0x21
    c4d6:	9a a3       	std	Y+34, r25	; 0x22
    c4d8:	8b a3       	std	Y+35, r24	; 0x23
    c4da:	8c a3       	std	Y+36, r24	; 0x24
    c4dc:	9d a3       	std	Y+37, r25	; 0x25
    c4de:	8e a3       	std	Y+38, r24	; 0x26
    c4e0:	9f a3       	std	Y+39, r25	; 0x27
    c4e2:	88 a7       	std	Y+40, r24	; 0x28
    c4e4:	1a 8a       	std	Y+18, r1	; 0x12
    c4e6:	19 8a       	std	Y+17, r1	; 0x11
    c4e8:	8c e0       	ldi	r24, 0x0C	; 12
    c4ea:	8a bf       	out	0x3a, r24	; 58
    c4ec:	89 b7       	in	r24, 0x39	; 57
    c4ee:	80 62       	ori	r24, 0x20	; 32
    c4f0:	89 bf       	out	0x39, r24	; 57
    c4f2:	1f bf       	out	0x3f, r17	; 63
    c4f4:	df 91       	pop	r29
    c4f6:	cf 91       	pop	r28
    c4f8:	1f 91       	pop	r17
    c4fa:	08 95       	ret

0000c4fc <_ZN9class_RTC12UnInitializeEv>:
    c4fc:	8f b7       	in	r24, 0x3f	; 63
    c4fe:	f8 94       	cli
    c500:	8f bf       	out	0x3f, r24	; 63
    c502:	08 95       	ret

0000c504 <_ZN9class_RTCD1Ev>:
    c504:	0c 94 7e 62 	jmp	0xc4fc	; 0xc4fc <_ZN9class_RTC12UnInitializeEv>

0000c508 <__vector_6>:
    c508:	1f 92       	push	r1
    c50a:	0f 92       	push	r0
    c50c:	0f b6       	in	r0, 0x3f	; 63
    c50e:	0f 92       	push	r0
    c510:	11 24       	eor	r1, r1
    c512:	2f 93       	push	r18
    c514:	3f 93       	push	r19
    c516:	4f 93       	push	r20
    c518:	5f 93       	push	r21
    c51a:	6f 93       	push	r22
    c51c:	7f 93       	push	r23
    c51e:	8f 93       	push	r24
    c520:	9f 93       	push	r25
    c522:	af 93       	push	r26
    c524:	bf 93       	push	r27
    c526:	ef 93       	push	r30
    c528:	ff 93       	push	r31
    c52a:	10 92 bc 07 	sts	0x07BC, r1	; 0x8007bc <_RTC+0xb>
    c52e:	10 92 bb 07 	sts	0x07BB, r1	; 0x8007bb <_RTC+0xa>
    c532:	80 91 bd 07 	lds	r24, 0x07BD	; 0x8007bd <_RTC+0xc>
    c536:	88 23       	and	r24, r24
    c538:	09 f4       	brne	.+2      	; 0xc53c <__vector_6+0x34>
    c53a:	6f c0       	rjmp	.+222    	; 0xc61a <__vector_6+0x112>
    c53c:	80 91 b1 07 	lds	r24, 0x07B1	; 0x8007b1 <_RTC>
    c540:	8f 5f       	subi	r24, 0xFF	; 255
    c542:	8c 33       	cpi	r24, 0x3C	; 60
    c544:	18 f4       	brcc	.+6      	; 0xc54c <__vector_6+0x44>
    c546:	80 93 b1 07 	sts	0x07B1, r24	; 0x8007b1 <_RTC>
    c54a:	41 c0       	rjmp	.+130    	; 0xc5ce <__vector_6+0xc6>
    c54c:	10 92 b1 07 	sts	0x07B1, r1	; 0x8007b1 <_RTC>
    c550:	80 91 b2 07 	lds	r24, 0x07B2	; 0x8007b2 <_RTC+0x1>
    c554:	8f 5f       	subi	r24, 0xFF	; 255
    c556:	8c 33       	cpi	r24, 0x3C	; 60
    c558:	18 f4       	brcc	.+6      	; 0xc560 <__vector_6+0x58>
    c55a:	80 93 b2 07 	sts	0x07B2, r24	; 0x8007b2 <_RTC+0x1>
    c55e:	37 c0       	rjmp	.+110    	; 0xc5ce <__vector_6+0xc6>
    c560:	10 92 b2 07 	sts	0x07B2, r1	; 0x8007b2 <_RTC+0x1>
    c564:	80 91 b3 07 	lds	r24, 0x07B3	; 0x8007b3 <_RTC+0x2>
    c568:	8f 5f       	subi	r24, 0xFF	; 255
    c56a:	88 31       	cpi	r24, 0x18	; 24
    c56c:	18 f4       	brcc	.+6      	; 0xc574 <__vector_6+0x6c>
    c56e:	80 93 b3 07 	sts	0x07B3, r24	; 0x8007b3 <_RTC+0x2>
    c572:	2d c0       	rjmp	.+90     	; 0xc5ce <__vector_6+0xc6>
    c574:	10 92 b3 07 	sts	0x07B3, r1	; 0x8007b3 <_RTC+0x2>
    c578:	80 91 b7 07 	lds	r24, 0x07B7	; 0x8007b7 <_RTC+0x6>
    c57c:	98 2f       	mov	r25, r24
    c57e:	93 70       	andi	r25, 0x03	; 3
    c580:	11 f4       	brne	.+4      	; 0xc586 <__vector_6+0x7e>
    c582:	9d e1       	ldi	r25, 0x1D	; 29
    c584:	01 c0       	rjmp	.+2      	; 0xc588 <__vector_6+0x80>
    c586:	9c e1       	ldi	r25, 0x1C	; 28
    c588:	90 93 cf 07 	sts	0x07CF, r25	; 0x8007cf <_RTC+0x1e>
    c58c:	20 91 b5 07 	lds	r18, 0x07B5	; 0x8007b5 <_RTC+0x4>
    c590:	2f 5f       	subi	r18, 0xFF	; 255
    c592:	20 93 b5 07 	sts	0x07B5, r18	; 0x8007b5 <_RTC+0x4>
    c596:	90 91 b6 07 	lds	r25, 0x07B6	; 0x8007b6 <_RTC+0x5>
    c59a:	e9 2f       	mov	r30, r25
    c59c:	f0 e0       	ldi	r31, 0x00	; 0
    c59e:	ef 54       	subi	r30, 0x4F	; 79
    c5a0:	f8 4f       	sbci	r31, 0xF8	; 248
    c5a2:	34 8d       	ldd	r19, Z+28	; 0x1c
    c5a4:	32 17       	cp	r19, r18
    c5a6:	98 f4       	brcc	.+38     	; 0xc5ce <__vector_6+0xc6>
    c5a8:	21 e0       	ldi	r18, 0x01	; 1
    c5aa:	20 93 b5 07 	sts	0x07B5, r18	; 0x8007b5 <_RTC+0x4>
    c5ae:	9f 5f       	subi	r25, 0xFF	; 255
    c5b0:	9d 30       	cpi	r25, 0x0D	; 13
    c5b2:	18 f4       	brcc	.+6      	; 0xc5ba <__vector_6+0xb2>
    c5b4:	90 93 b6 07 	sts	0x07B6, r25	; 0x8007b6 <_RTC+0x5>
    c5b8:	0a c0       	rjmp	.+20     	; 0xc5ce <__vector_6+0xc6>
    c5ba:	20 93 b6 07 	sts	0x07B6, r18	; 0x8007b6 <_RTC+0x5>
    c5be:	8f 5f       	subi	r24, 0xFF	; 255
    c5c0:	84 36       	cpi	r24, 0x64	; 100
    c5c2:	18 f4       	brcc	.+6      	; 0xc5ca <__vector_6+0xc2>
    c5c4:	80 93 b7 07 	sts	0x07B7, r24	; 0x8007b7 <_RTC+0x6>
    c5c8:	02 c0       	rjmp	.+4      	; 0xc5ce <__vector_6+0xc6>
    c5ca:	10 92 b7 07 	sts	0x07B7, r1	; 0x8007b7 <_RTC+0x6>
    c5ce:	e0 91 c2 07 	lds	r30, 0x07C2	; 0x8007c2 <_RTC+0x11>
    c5d2:	f0 91 c3 07 	lds	r31, 0x07C3	; 0x8007c3 <_RTC+0x12>
    c5d6:	30 97       	sbiw	r30, 0x00	; 0
    c5d8:	39 f0       	breq	.+14     	; 0xc5e8 <__vector_6+0xe0>
    c5da:	40 91 b1 07 	lds	r20, 0x07B1	; 0x8007b1 <_RTC>
    c5de:	60 91 b2 07 	lds	r22, 0x07B2	; 0x8007b2 <_RTC+0x1>
    c5e2:	80 91 b3 07 	lds	r24, 0x07B3	; 0x8007b3 <_RTC+0x2>
    c5e6:	09 95       	icall
    c5e8:	90 91 b1 07 	lds	r25, 0x07B1	; 0x8007b1 <_RTC>
    c5ec:	80 91 b8 07 	lds	r24, 0x07B8	; 0x8007b8 <_RTC+0x7>
    c5f0:	98 13       	cpse	r25, r24
    c5f2:	13 c0       	rjmp	.+38     	; 0xc61a <__vector_6+0x112>
    c5f4:	90 91 b2 07 	lds	r25, 0x07B2	; 0x8007b2 <_RTC+0x1>
    c5f8:	80 91 b9 07 	lds	r24, 0x07B9	; 0x8007b9 <_RTC+0x8>
    c5fc:	98 13       	cpse	r25, r24
    c5fe:	0d c0       	rjmp	.+26     	; 0xc61a <__vector_6+0x112>
    c600:	90 91 b3 07 	lds	r25, 0x07B3	; 0x8007b3 <_RTC+0x2>
    c604:	80 91 ba 07 	lds	r24, 0x07BA	; 0x8007ba <_RTC+0x9>
    c608:	98 13       	cpse	r25, r24
    c60a:	07 c0       	rjmp	.+14     	; 0xc61a <__vector_6+0x112>
    c60c:	e0 91 c0 07 	lds	r30, 0x07C0	; 0x8007c0 <_RTC+0xf>
    c610:	f0 91 c1 07 	lds	r31, 0x07C1	; 0x8007c1 <_RTC+0x10>
    c614:	30 97       	sbiw	r30, 0x00	; 0
    c616:	09 f0       	breq	.+2      	; 0xc61a <__vector_6+0x112>
    c618:	09 95       	icall
    c61a:	ff 91       	pop	r31
    c61c:	ef 91       	pop	r30
    c61e:	bf 91       	pop	r27
    c620:	af 91       	pop	r26
    c622:	9f 91       	pop	r25
    c624:	8f 91       	pop	r24
    c626:	7f 91       	pop	r23
    c628:	6f 91       	pop	r22
    c62a:	5f 91       	pop	r21
    c62c:	4f 91       	pop	r20
    c62e:	3f 91       	pop	r19
    c630:	2f 91       	pop	r18
    c632:	0f 90       	pop	r0
    c634:	0f be       	out	0x3f, r0	; 63
    c636:	0f 90       	pop	r0
    c638:	1f 90       	pop	r1
    c63a:	18 95       	reti

0000c63c <_ZN9class_RTC9GetSecondEv>:
    c63c:	80 91 b1 07 	lds	r24, 0x07B1	; 0x8007b1 <_RTC>
    c640:	08 95       	ret

0000c642 <_ZN9class_RTC9GetMinuteEv>:
    c642:	80 91 b2 07 	lds	r24, 0x07B2	; 0x8007b2 <_RTC+0x1>
    c646:	08 95       	ret

0000c648 <_ZN9class_RTC8writeRegE6RTCReghb>:
    c648:	0f 93       	push	r16
    c64a:	1f 93       	push	r17
    c64c:	cf 93       	push	r28
    c64e:	df 93       	push	r29
    c650:	08 2f       	mov	r16, r24
    c652:	16 2f       	mov	r17, r22
    c654:	d4 2f       	mov	r29, r20
    c656:	cf b7       	in	r28, 0x3f	; 63
    c658:	44 23       	and	r20, r20
    c65a:	11 f0       	breq	.+4      	; 0xc660 <_ZN9class_RTC8writeRegE6RTCReghb+0x18>
    c65c:	cf b7       	in	r28, 0x3f	; 63
    c65e:	f8 94       	cli
    c660:	0e 94 17 41 	call	0x822e	; 0x822e <_ZN9class_I2C5StartEv>
    c664:	80 ed       	ldi	r24, 0xD0	; 208
    c666:	0e 94 34 41 	call	0x8268	; 0x8268 <_ZN9class_I2C7ByteOutEh>
    c66a:	0e 94 45 41 	call	0x828a	; 0x828a <_ZN9class_I2C5AckInEv>
    c66e:	81 11       	cpse	r24, r1
    c670:	0e c0       	rjmp	.+28     	; 0xc68e <_ZN9class_RTC8writeRegE6RTCReghb+0x46>
    c672:	80 2f       	mov	r24, r16
    c674:	0e 94 34 41 	call	0x8268	; 0x8268 <_ZN9class_I2C7ByteOutEh>
    c678:	0e 94 45 41 	call	0x828a	; 0x828a <_ZN9class_I2C5AckInEv>
    c67c:	81 11       	cpse	r24, r1
    c67e:	07 c0       	rjmp	.+14     	; 0xc68e <_ZN9class_RTC8writeRegE6RTCReghb+0x46>
    c680:	81 2f       	mov	r24, r17
    c682:	0e 94 34 41 	call	0x8268	; 0x8268 <_ZN9class_I2C7ByteOutEh>
    c686:	0e 94 45 41 	call	0x828a	; 0x828a <_ZN9class_I2C5AckInEv>
    c68a:	88 23       	and	r24, r24
    c68c:	31 f0       	breq	.+12     	; 0xc69a <_ZN9class_RTC8writeRegE6RTCReghb+0x52>
    c68e:	0e 94 1f 41 	call	0x823e	; 0x823e <_ZN9class_I2C4StopEv>
    c692:	d1 11       	cpse	r29, r1
    c694:	cf bf       	out	0x3f, r28	; 63
    c696:	81 e0       	ldi	r24, 0x01	; 1
    c698:	05 c0       	rjmp	.+10     	; 0xc6a4 <_ZN9class_RTC8writeRegE6RTCReghb+0x5c>
    c69a:	0e 94 1f 41 	call	0x823e	; 0x823e <_ZN9class_I2C4StopEv>
    c69e:	d1 11       	cpse	r29, r1
    c6a0:	cf bf       	out	0x3f, r28	; 63
    c6a2:	80 e0       	ldi	r24, 0x00	; 0
    c6a4:	df 91       	pop	r29
    c6a6:	cf 91       	pop	r28
    c6a8:	1f 91       	pop	r17
    c6aa:	0f 91       	pop	r16
    c6ac:	08 95       	ret

0000c6ae <_ZN9class_RTC7readRegE6RTCRegRhb>:
    c6ae:	ff 92       	push	r15
    c6b0:	0f 93       	push	r16
    c6b2:	1f 93       	push	r17
    c6b4:	cf 93       	push	r28
    c6b6:	df 93       	push	r29
    c6b8:	f8 2e       	mov	r15, r24
    c6ba:	8b 01       	movw	r16, r22
    c6bc:	d4 2f       	mov	r29, r20
    c6be:	cf b7       	in	r28, 0x3f	; 63
    c6c0:	44 23       	and	r20, r20
    c6c2:	11 f0       	breq	.+4      	; 0xc6c8 <_ZN9class_RTC7readRegE6RTCRegRhb+0x1a>
    c6c4:	cf b7       	in	r28, 0x3f	; 63
    c6c6:	f8 94       	cli
    c6c8:	0e 94 17 41 	call	0x822e	; 0x822e <_ZN9class_I2C5StartEv>
    c6cc:	80 ed       	ldi	r24, 0xD0	; 208
    c6ce:	0e 94 34 41 	call	0x8268	; 0x8268 <_ZN9class_I2C7ByteOutEh>
    c6d2:	0e 94 45 41 	call	0x828a	; 0x828a <_ZN9class_I2C5AckInEv>
    c6d6:	81 11       	cpse	r24, r1
    c6d8:	12 c0       	rjmp	.+36     	; 0xc6fe <_ZN9class_RTC7readRegE6RTCRegRhb+0x50>
    c6da:	8f 2d       	mov	r24, r15
    c6dc:	0e 94 34 41 	call	0x8268	; 0x8268 <_ZN9class_I2C7ByteOutEh>
    c6e0:	0e 94 45 41 	call	0x828a	; 0x828a <_ZN9class_I2C5AckInEv>
    c6e4:	81 11       	cpse	r24, r1
    c6e6:	0b c0       	rjmp	.+22     	; 0xc6fe <_ZN9class_RTC7readRegE6RTCRegRhb+0x50>
    c6e8:	0e 94 1f 41 	call	0x823e	; 0x823e <_ZN9class_I2C4StopEv>
    c6ec:	0e 94 17 41 	call	0x822e	; 0x822e <_ZN9class_I2C5StartEv>
    c6f0:	81 ed       	ldi	r24, 0xD1	; 209
    c6f2:	0e 94 34 41 	call	0x8268	; 0x8268 <_ZN9class_I2C7ByteOutEh>
    c6f6:	0e 94 45 41 	call	0x828a	; 0x828a <_ZN9class_I2C5AckInEv>
    c6fa:	88 23       	and	r24, r24
    c6fc:	31 f0       	breq	.+12     	; 0xc70a <_ZN9class_RTC7readRegE6RTCRegRhb+0x5c>
    c6fe:	0e 94 1f 41 	call	0x823e	; 0x823e <_ZN9class_I2C4StopEv>
    c702:	d1 11       	cpse	r29, r1
    c704:	cf bf       	out	0x3f, r28	; 63
    c706:	81 e0       	ldi	r24, 0x01	; 1
    c708:	0c c0       	rjmp	.+24     	; 0xc722 <_ZN9class_RTC7readRegE6RTCRegRhb+0x74>
    c70a:	0e 94 55 41 	call	0x82aa	; 0x82aa <_ZN9class_I2C6ByteInEv>
    c70e:	f8 01       	movw	r30, r16
    c710:	80 83       	st	Z, r24
    c712:	81 e0       	ldi	r24, 0x01	; 1
    c714:	0e 94 68 41 	call	0x82d0	; 0x82d0 <_ZN9class_I2C6AckOutEh>
    c718:	0e 94 1f 41 	call	0x823e	; 0x823e <_ZN9class_I2C4StopEv>
    c71c:	d1 11       	cpse	r29, r1
    c71e:	cf bf       	out	0x3f, r28	; 63
    c720:	80 e0       	ldi	r24, 0x00	; 0
    c722:	df 91       	pop	r29
    c724:	cf 91       	pop	r28
    c726:	1f 91       	pop	r17
    c728:	0f 91       	pop	r16
    c72a:	ff 90       	pop	r15
    c72c:	08 95       	ret

0000c72e <_ZN9class_RTC8binToBCDEi>:
    c72e:	0f 93       	push	r16
    c730:	1f 93       	push	r17
    c732:	cf 93       	push	r28
    c734:	df 93       	push	r29
    c736:	00 d0       	rcall	.+0      	; 0xc738 <_ZN9class_RTC8binToBCDEi+0xa>
    c738:	1f 92       	push	r1
    c73a:	cd b7       	in	r28, 0x3d	; 61
    c73c:	de b7       	in	r29, 0x3e	; 62
    c73e:	9c 01       	movw	r18, r24
    c740:	97 ff       	sbrs	r25, 7
    c742:	05 c0       	rjmp	.+10     	; 0xc74e <_ZN9class_RTC8binToBCDEi+0x20>
    c744:	31 95       	neg	r19
    c746:	21 95       	neg	r18
    c748:	31 09       	sbc	r19, r1
    c74a:	41 e0       	ldi	r20, 0x01	; 1
    c74c:	01 c0       	rjmp	.+2      	; 0xc750 <_ZN9class_RTC8binToBCDEi+0x22>
    c74e:	40 e0       	ldi	r20, 0x00	; 0
    c750:	e0 e0       	ldi	r30, 0x00	; 0
    c752:	f0 e0       	ldi	r31, 0x00	; 0
    c754:	84 e6       	ldi	r24, 0x64	; 100
    c756:	90 e0       	ldi	r25, 0x00	; 0
    c758:	0a e0       	ldi	r16, 0x0A	; 10
    c75a:	10 e0       	ldi	r17, 0x00	; 0
    c75c:	b9 01       	movw	r22, r18
    c75e:	68 1b       	sub	r22, r24
    c760:	79 0b       	sbc	r23, r25
    c762:	77 ff       	sbrs	r23, 7
    c764:	10 c0       	rjmp	.+32     	; 0xc786 <_ZN9class_RTC8binToBCDEi+0x58>
    c766:	b8 01       	movw	r22, r16
    c768:	0e 94 78 69 	call	0xd2f0	; 0xd2f0 <__divmodhi4>
    c76c:	cb 01       	movw	r24, r22
    c76e:	a1 e0       	ldi	r26, 0x01	; 1
    c770:	b0 e0       	ldi	r27, 0x00	; 0
    c772:	ac 0f       	add	r26, r28
    c774:	bd 1f       	adc	r27, r29
    c776:	af 0f       	add	r26, r31
    c778:	b1 1d       	adc	r27, r1
    c77a:	ec 93       	st	X, r30
    c77c:	f2 30       	cpi	r31, 0x02	; 2
    c77e:	30 f4       	brcc	.+12     	; 0xc78c <_ZN9class_RTC8binToBCDEi+0x5e>
    c780:	ff 5f       	subi	r31, 0xFF	; 255
    c782:	e0 e0       	ldi	r30, 0x00	; 0
    c784:	eb cf       	rjmp	.-42     	; 0xc75c <_ZN9class_RTC8binToBCDEi+0x2e>
    c786:	ef 5f       	subi	r30, 0xFF	; 255
    c788:	9b 01       	movw	r18, r22
    c78a:	e8 cf       	rjmp	.-48     	; 0xc75c <_ZN9class_RTC8binToBCDEi+0x2e>
    c78c:	89 81       	ldd	r24, Y+1	; 0x01
    c78e:	2a 81       	ldd	r18, Y+2	; 0x02
    c790:	90 e1       	ldi	r25, 0x10	; 16
    c792:	29 9f       	mul	r18, r25
    c794:	90 01       	movw	r18, r0
    c796:	11 24       	eor	r1, r1
    c798:	38 2b       	or	r19, r24
    c79a:	8b 81       	ldd	r24, Y+3	; 0x03
    c79c:	28 2b       	or	r18, r24
    c79e:	84 2f       	mov	r24, r20
    c7a0:	90 e0       	ldi	r25, 0x00	; 0
    c7a2:	99 27       	eor	r25, r25
    c7a4:	86 95       	lsr	r24
    c7a6:	97 95       	ror	r25
    c7a8:	88 27       	eor	r24, r24
    c7aa:	82 2b       	or	r24, r18
    c7ac:	93 2b       	or	r25, r19
    c7ae:	0f 90       	pop	r0
    c7b0:	0f 90       	pop	r0
    c7b2:	0f 90       	pop	r0
    c7b4:	df 91       	pop	r29
    c7b6:	cf 91       	pop	r28
    c7b8:	1f 91       	pop	r17
    c7ba:	0f 91       	pop	r16
    c7bc:	08 95       	ret

0000c7be <_ZN9class_RTC7SetTimeEhhhb>:
    c7be:	0f 93       	push	r16
    c7c0:	1f 93       	push	r17
    c7c2:	cf 93       	push	r28
    c7c4:	df 93       	push	r29
    c7c6:	1f b7       	in	r17, 0x3f	; 63
    c7c8:	f8 94       	cli
    c7ca:	40 93 b1 07 	sts	0x07B1, r20	; 0x8007b1 <_RTC>
    c7ce:	60 93 b2 07 	sts	0x07B2, r22	; 0x8007b2 <_RTC+0x1>
    c7d2:	80 93 b3 07 	sts	0x07B3, r24	; 0x8007b3 <_RTC+0x2>
    c7d6:	22 23       	and	r18, r18
    c7d8:	f1 f0       	breq	.+60     	; 0xc816 <_ZN9class_RTC7SetTimeEhhhb+0x58>
    c7da:	c4 2f       	mov	r28, r20
    c7dc:	d6 2f       	mov	r29, r22
    c7de:	90 e0       	ldi	r25, 0x00	; 0
    c7e0:	0e 94 97 63 	call	0xc72e	; 0xc72e <_ZN9class_RTC8binToBCDEi>
    c7e4:	08 2f       	mov	r16, r24
    c7e6:	8d 2f       	mov	r24, r29
    c7e8:	90 e0       	ldi	r25, 0x00	; 0
    c7ea:	0e 94 97 63 	call	0xc72e	; 0xc72e <_ZN9class_RTC8binToBCDEi>
    c7ee:	d8 2f       	mov	r29, r24
    c7f0:	8c 2f       	mov	r24, r28
    c7f2:	90 e0       	ldi	r25, 0x00	; 0
    c7f4:	0e 94 97 63 	call	0xc72e	; 0xc72e <_ZN9class_RTC8binToBCDEi>
    c7f8:	40 e0       	ldi	r20, 0x00	; 0
    c7fa:	68 2f       	mov	r22, r24
    c7fc:	80 e0       	ldi	r24, 0x00	; 0
    c7fe:	0e 94 24 63 	call	0xc648	; 0xc648 <_ZN9class_RTC8writeRegE6RTCReghb>
    c802:	40 e0       	ldi	r20, 0x00	; 0
    c804:	6d 2f       	mov	r22, r29
    c806:	81 e0       	ldi	r24, 0x01	; 1
    c808:	0e 94 24 63 	call	0xc648	; 0xc648 <_ZN9class_RTC8writeRegE6RTCReghb>
    c80c:	40 e0       	ldi	r20, 0x00	; 0
    c80e:	60 2f       	mov	r22, r16
    c810:	82 e0       	ldi	r24, 0x02	; 2
    c812:	0e 94 24 63 	call	0xc648	; 0xc648 <_ZN9class_RTC8writeRegE6RTCReghb>
    c816:	1f bf       	out	0x3f, r17	; 63
    c818:	df 91       	pop	r29
    c81a:	cf 91       	pop	r28
    c81c:	1f 91       	pop	r17
    c81e:	0f 91       	pop	r16
    c820:	08 95       	ret

0000c822 <_ZN9class_RTC8bcdToBinEj>:
    c822:	ac 01       	movw	r20, r24
    c824:	bc 01       	movw	r22, r24
    c826:	66 27       	eor	r22, r22
    c828:	7f 70       	andi	r23, 0x0F	; 15
    c82a:	9c 01       	movw	r18, r24
    c82c:	20 7f       	andi	r18, 0xF0	; 240
    c82e:	33 27       	eor	r19, r19
    c830:	84 e0       	ldi	r24, 0x04	; 4
    c832:	36 95       	lsr	r19
    c834:	27 95       	ror	r18
    c836:	8a 95       	dec	r24
    c838:	e1 f7       	brne	.-8      	; 0xc832 <_ZN9class_RTC8bcdToBinEj+0x10>
    c83a:	22 0f       	add	r18, r18
    c83c:	92 2f       	mov	r25, r18
    c83e:	99 0f       	add	r25, r25
    c840:	99 0f       	add	r25, r25
    c842:	29 0f       	add	r18, r25
    c844:	84 e6       	ldi	r24, 0x64	; 100
    c846:	78 9f       	mul	r23, r24
    c848:	20 0d       	add	r18, r0
    c84a:	11 24       	eor	r1, r1
    c84c:	94 2f       	mov	r25, r20
    c84e:	9f 70       	andi	r25, 0x0F	; 15
    c850:	82 2f       	mov	r24, r18
    c852:	89 0f       	add	r24, r25
    c854:	80 93 b0 07 	sts	0x07B0, r24	; 0x8007b0 <result>
    c858:	57 fd       	sbrc	r21, 7
    c85a:	81 95       	neg	r24
    c85c:	08 95       	ret

0000c85e <_ZN9class_RTC7GetTimeERhS0_S0_b.part.1>:
    c85e:	cf 92       	push	r12
    c860:	df 92       	push	r13
    c862:	ef 92       	push	r14
    c864:	ff 92       	push	r15
    c866:	0f 93       	push	r16
    c868:	1f 93       	push	r17
    c86a:	cf 93       	push	r28
    c86c:	df 93       	push	r29
    c86e:	00 d0       	rcall	.+0      	; 0xc870 <_ZN9class_RTC7GetTimeERhS0_S0_b.part.1+0x12>
    c870:	1f 92       	push	r1
    c872:	cd b7       	in	r28, 0x3d	; 61
    c874:	de b7       	in	r29, 0x3e	; 62
    c876:	8c 01       	movw	r16, r24
    c878:	7b 01       	movw	r14, r22
    c87a:	6a 01       	movw	r12, r20
    c87c:	f8 94       	cli
    c87e:	40 e0       	ldi	r20, 0x00	; 0
    c880:	be 01       	movw	r22, r28
    c882:	6f 5f       	subi	r22, 0xFF	; 255
    c884:	7f 4f       	sbci	r23, 0xFF	; 255
    c886:	80 e0       	ldi	r24, 0x00	; 0
    c888:	0e 94 57 63 	call	0xc6ae	; 0xc6ae <_ZN9class_RTC7readRegE6RTCRegRhb>
    c88c:	40 e0       	ldi	r20, 0x00	; 0
    c88e:	be 01       	movw	r22, r28
    c890:	6e 5f       	subi	r22, 0xFE	; 254
    c892:	7f 4f       	sbci	r23, 0xFF	; 255
    c894:	81 e0       	ldi	r24, 0x01	; 1
    c896:	0e 94 57 63 	call	0xc6ae	; 0xc6ae <_ZN9class_RTC7readRegE6RTCRegRhb>
    c89a:	40 e0       	ldi	r20, 0x00	; 0
    c89c:	be 01       	movw	r22, r28
    c89e:	6d 5f       	subi	r22, 0xFD	; 253
    c8a0:	7f 4f       	sbci	r23, 0xFF	; 255
    c8a2:	82 e0       	ldi	r24, 0x02	; 2
    c8a4:	0e 94 57 63 	call	0xc6ae	; 0xc6ae <_ZN9class_RTC7readRegE6RTCRegRhb>
    c8a8:	89 81       	ldd	r24, Y+1	; 0x01
    c8aa:	90 e0       	ldi	r25, 0x00	; 0
    c8ac:	0e 94 11 64 	call	0xc822	; 0xc822 <_ZN9class_RTC8bcdToBinEj>
    c8b0:	d6 01       	movw	r26, r12
    c8b2:	8c 93       	st	X, r24
    c8b4:	8a 81       	ldd	r24, Y+2	; 0x02
    c8b6:	90 e0       	ldi	r25, 0x00	; 0
    c8b8:	0e 94 11 64 	call	0xc822	; 0xc822 <_ZN9class_RTC8bcdToBinEj>
    c8bc:	f7 01       	movw	r30, r14
    c8be:	80 83       	st	Z, r24
    c8c0:	8b 81       	ldd	r24, Y+3	; 0x03
    c8c2:	90 e0       	ldi	r25, 0x00	; 0
    c8c4:	0e 94 11 64 	call	0xc822	; 0xc822 <_ZN9class_RTC8bcdToBinEj>
    c8c8:	d8 01       	movw	r26, r16
    c8ca:	8c 93       	st	X, r24
    c8cc:	f6 01       	movw	r30, r12
    c8ce:	80 81       	ld	r24, Z
    c8d0:	e1 eb       	ldi	r30, 0xB1	; 177
    c8d2:	f7 e0       	ldi	r31, 0x07	; 7
    c8d4:	80 83       	st	Z, r24
    c8d6:	d7 01       	movw	r26, r14
    c8d8:	8c 91       	ld	r24, X
    c8da:	81 83       	std	Z+1, r24	; 0x01
    c8dc:	d8 01       	movw	r26, r16
    c8de:	8c 91       	ld	r24, X
    c8e0:	82 83       	std	Z+2, r24	; 0x02
    c8e2:	78 94       	sei
    c8e4:	0f 90       	pop	r0
    c8e6:	0f 90       	pop	r0
    c8e8:	0f 90       	pop	r0
    c8ea:	df 91       	pop	r29
    c8ec:	cf 91       	pop	r28
    c8ee:	1f 91       	pop	r17
    c8f0:	0f 91       	pop	r16
    c8f2:	ff 90       	pop	r15
    c8f4:	ef 90       	pop	r14
    c8f6:	df 90       	pop	r13
    c8f8:	cf 90       	pop	r12
    c8fa:	08 95       	ret

0000c8fc <_ZN9class_RTC7GetTimeERhS0_S0_b>:
    c8fc:	22 23       	and	r18, r18
    c8fe:	21 f0       	breq	.+8      	; 0xc908 <_ZN9class_RTC7GetTimeERhS0_S0_b+0xc>
    c900:	0c 94 2f 64 	jmp	0xc85e	; 0xc85e <_ZN9class_RTC7GetTimeERhS0_S0_b.part.1>
    c904:	3a 17       	cp	r19, r26
    c906:	89 f0       	breq	.+34     	; 0xc92a <_ZN9class_RTC7GetTimeERhS0_S0_b+0x2e>
    c908:	e0 91 b1 07 	lds	r30, 0x07B1	; 0x8007b1 <_RTC>
    c90c:	30 91 b2 07 	lds	r19, 0x07B2	; 0x8007b2 <_RTC+0x1>
    c910:	20 91 b3 07 	lds	r18, 0x07B3	; 0x8007b3 <_RTC+0x2>
    c914:	78 94       	sei
    c916:	b0 91 b1 07 	lds	r27, 0x07B1	; 0x8007b1 <_RTC>
    c91a:	a0 91 b2 07 	lds	r26, 0x07B2	; 0x8007b2 <_RTC+0x1>
    c91e:	f0 91 b3 07 	lds	r31, 0x07B3	; 0x8007b3 <_RTC+0x2>
    c922:	78 94       	sei
    c924:	eb 13       	cpse	r30, r27
    c926:	f0 cf       	rjmp	.-32     	; 0xc908 <_ZN9class_RTC7GetTimeERhS0_S0_b+0xc>
    c928:	ed cf       	rjmp	.-38     	; 0xc904 <_ZN9class_RTC7GetTimeERhS0_S0_b+0x8>
    c92a:	2f 13       	cpse	r18, r31
    c92c:	ed cf       	rjmp	.-38     	; 0xc908 <_ZN9class_RTC7GetTimeERhS0_S0_b+0xc>
    c92e:	da 01       	movw	r26, r20
    c930:	ec 93       	st	X, r30
    c932:	fb 01       	movw	r30, r22
    c934:	30 83       	st	Z, r19
    c936:	dc 01       	movw	r26, r24
    c938:	2c 93       	st	X, r18
    c93a:	08 95       	ret

0000c93c <_ZN9class_RTC7GetDateERhS0_S0_S0_b.part.2>:
    c93c:	cf 92       	push	r12
    c93e:	df 92       	push	r13
    c940:	ef 92       	push	r14
    c942:	ff 92       	push	r15
    c944:	0f 93       	push	r16
    c946:	1f 93       	push	r17
    c948:	cf 93       	push	r28
    c94a:	df 93       	push	r29
    c94c:	6c 01       	movw	r12, r24
    c94e:	7b 01       	movw	r14, r22
    c950:	8a 01       	movw	r16, r20
    c952:	e9 01       	movw	r28, r18
    c954:	f8 94       	cli
    c956:	40 e0       	ldi	r20, 0x00	; 0
    c958:	bc 01       	movw	r22, r24
    c95a:	86 e0       	ldi	r24, 0x06	; 6
    c95c:	0e 94 57 63 	call	0xc6ae	; 0xc6ae <_ZN9class_RTC7readRegE6RTCRegRhb>
    c960:	40 e0       	ldi	r20, 0x00	; 0
    c962:	b7 01       	movw	r22, r14
    c964:	85 e0       	ldi	r24, 0x05	; 5
    c966:	0e 94 57 63 	call	0xc6ae	; 0xc6ae <_ZN9class_RTC7readRegE6RTCRegRhb>
    c96a:	40 e0       	ldi	r20, 0x00	; 0
    c96c:	b8 01       	movw	r22, r16
    c96e:	84 e0       	ldi	r24, 0x04	; 4
    c970:	0e 94 57 63 	call	0xc6ae	; 0xc6ae <_ZN9class_RTC7readRegE6RTCRegRhb>
    c974:	40 e0       	ldi	r20, 0x00	; 0
    c976:	be 01       	movw	r22, r28
    c978:	83 e0       	ldi	r24, 0x03	; 3
    c97a:	0e 94 57 63 	call	0xc6ae	; 0xc6ae <_ZN9class_RTC7readRegE6RTCRegRhb>
    c97e:	d6 01       	movw	r26, r12
    c980:	8c 91       	ld	r24, X
    c982:	90 e0       	ldi	r25, 0x00	; 0
    c984:	0e 94 11 64 	call	0xc822	; 0xc822 <_ZN9class_RTC8bcdToBinEj>
    c988:	f6 01       	movw	r30, r12
    c98a:	80 83       	st	Z, r24
    c98c:	d7 01       	movw	r26, r14
    c98e:	8c 91       	ld	r24, X
    c990:	90 e0       	ldi	r25, 0x00	; 0
    c992:	0e 94 11 64 	call	0xc822	; 0xc822 <_ZN9class_RTC8bcdToBinEj>
    c996:	f7 01       	movw	r30, r14
    c998:	80 83       	st	Z, r24
    c99a:	d8 01       	movw	r26, r16
    c99c:	8c 91       	ld	r24, X
    c99e:	90 e0       	ldi	r25, 0x00	; 0
    c9a0:	0e 94 11 64 	call	0xc822	; 0xc822 <_ZN9class_RTC8bcdToBinEj>
    c9a4:	f8 01       	movw	r30, r16
    c9a6:	80 83       	st	Z, r24
    c9a8:	88 81       	ld	r24, Y
    c9aa:	90 e0       	ldi	r25, 0x00	; 0
    c9ac:	0e 94 11 64 	call	0xc822	; 0xc822 <_ZN9class_RTC8bcdToBinEj>
    c9b0:	88 83       	st	Y, r24
    c9b2:	d6 01       	movw	r26, r12
    c9b4:	8c 91       	ld	r24, X
    c9b6:	e1 eb       	ldi	r30, 0xB1	; 177
    c9b8:	f7 e0       	ldi	r31, 0x07	; 7
    c9ba:	86 83       	std	Z+6, r24	; 0x06
    c9bc:	d7 01       	movw	r26, r14
    c9be:	8c 91       	ld	r24, X
    c9c0:	85 83       	std	Z+5, r24	; 0x05
    c9c2:	d8 01       	movw	r26, r16
    c9c4:	8c 91       	ld	r24, X
    c9c6:	84 83       	std	Z+4, r24	; 0x04
    c9c8:	88 81       	ld	r24, Y
    c9ca:	83 83       	std	Z+3, r24	; 0x03
    c9cc:	78 94       	sei
    c9ce:	df 91       	pop	r29
    c9d0:	cf 91       	pop	r28
    c9d2:	1f 91       	pop	r17
    c9d4:	0f 91       	pop	r16
    c9d6:	ff 90       	pop	r15
    c9d8:	ef 90       	pop	r14
    c9da:	df 90       	pop	r13
    c9dc:	cf 90       	pop	r12
    c9de:	08 95       	ret

0000c9e0 <_ZN9class_RTCC1Ev>:
    c9e0:	cf 93       	push	r28
    c9e2:	df 93       	push	r29
    c9e4:	cd b7       	in	r28, 0x3d	; 61
    c9e6:	de b7       	in	r29, 0x3e	; 62
    c9e8:	28 97       	sbiw	r28, 0x08	; 8
    c9ea:	0f b6       	in	r0, 0x3f	; 63
    c9ec:	f8 94       	cli
    c9ee:	de bf       	out	0x3e, r29	; 62
    c9f0:	0f be       	out	0x3f, r0	; 63
    c9f2:	cd bf       	out	0x3d, r28	; 61
    c9f4:	20 91 14 01 	lds	r18, 0x0114	; 0x800114 <_ZZN9class_RTCC4EvE10initialize>
    c9f8:	22 23       	and	r18, r18
    c9fa:	71 f1       	breq	.+92     	; 0xca58 <_ZN9class_RTCC1Ev+0x78>
    c9fc:	10 92 14 01 	sts	0x0114, r1	; 0x800114 <_ZZN9class_RTCC4EvE10initialize>
    ca00:	0e 94 48 62 	call	0xc490	; 0xc490 <_ZN9class_RTC10InitializeEv>
    ca04:	40 e0       	ldi	r20, 0x00	; 0
    ca06:	be 01       	movw	r22, r28
    ca08:	68 5f       	subi	r22, 0xF8	; 248
    ca0a:	7f 4f       	sbci	r23, 0xFF	; 255
    ca0c:	80 e0       	ldi	r24, 0x00	; 0
    ca0e:	0e 94 57 63 	call	0xc6ae	; 0xc6ae <_ZN9class_RTC7readRegE6RTCRegRhb>
    ca12:	68 85       	ldd	r22, Y+8	; 0x08
    ca14:	6f 77       	andi	r22, 0x7F	; 127
    ca16:	68 87       	std	Y+8, r22	; 0x08
    ca18:	40 e0       	ldi	r20, 0x00	; 0
    ca1a:	80 e0       	ldi	r24, 0x00	; 0
    ca1c:	0e 94 24 63 	call	0xc648	; 0xc648 <_ZN9class_RTC8writeRegE6RTCReghb>
    ca20:	40 e0       	ldi	r20, 0x00	; 0
    ca22:	60 e1       	ldi	r22, 0x10	; 16
    ca24:	87 e0       	ldi	r24, 0x07	; 7
    ca26:	0e 94 24 63 	call	0xc648	; 0xc648 <_ZN9class_RTC8writeRegE6RTCReghb>
    ca2a:	ae 01       	movw	r20, r28
    ca2c:	4b 5f       	subi	r20, 0xFB	; 251
    ca2e:	5f 4f       	sbci	r21, 0xFF	; 255
    ca30:	be 01       	movw	r22, r28
    ca32:	6a 5f       	subi	r22, 0xFA	; 250
    ca34:	7f 4f       	sbci	r23, 0xFF	; 255
    ca36:	ce 01       	movw	r24, r28
    ca38:	07 96       	adiw	r24, 0x07	; 7
    ca3a:	0e 94 2f 64 	call	0xc85e	; 0xc85e <_ZN9class_RTC7GetTimeERhS0_S0_b.part.1>
    ca3e:	9e 01       	movw	r18, r28
    ca40:	2f 5f       	subi	r18, 0xFF	; 255
    ca42:	3f 4f       	sbci	r19, 0xFF	; 255
    ca44:	ae 01       	movw	r20, r28
    ca46:	4e 5f       	subi	r20, 0xFE	; 254
    ca48:	5f 4f       	sbci	r21, 0xFF	; 255
    ca4a:	be 01       	movw	r22, r28
    ca4c:	6d 5f       	subi	r22, 0xFD	; 253
    ca4e:	7f 4f       	sbci	r23, 0xFF	; 255
    ca50:	ce 01       	movw	r24, r28
    ca52:	04 96       	adiw	r24, 0x04	; 4
    ca54:	0e 94 9e 64 	call	0xc93c	; 0xc93c <_ZN9class_RTC7GetDateERhS0_S0_S0_b.part.2>
    ca58:	28 96       	adiw	r28, 0x08	; 8
    ca5a:	0f b6       	in	r0, 0x3f	; 63
    ca5c:	f8 94       	cli
    ca5e:	de bf       	out	0x3e, r29	; 62
    ca60:	0f be       	out	0x3f, r0	; 63
    ca62:	cd bf       	out	0x3d, r28	; 61
    ca64:	df 91       	pop	r29
    ca66:	cf 91       	pop	r28
    ca68:	08 95       	ret

0000ca6a <_ZN9class_RTC7setDateEhhhhb>:
    ca6a:	ff 92       	push	r15
    ca6c:	0f 93       	push	r16
    ca6e:	1f 93       	push	r17
    ca70:	cf 93       	push	r28
    ca72:	df 93       	push	r29
    ca74:	ff b6       	in	r15, 0x3f	; 63
    ca76:	f8 94       	cli
    ca78:	80 93 b7 07 	sts	0x07B7, r24	; 0x8007b7 <_RTC+0x6>
    ca7c:	60 93 b6 07 	sts	0x07B6, r22	; 0x8007b6 <_RTC+0x5>
    ca80:	40 93 b5 07 	sts	0x07B5, r20	; 0x8007b5 <_RTC+0x4>
    ca84:	20 93 b4 07 	sts	0x07B4, r18	; 0x8007b4 <_RTC+0x3>
    ca88:	00 23       	and	r16, r16
    ca8a:	29 f1       	breq	.+74     	; 0xcad6 <_ZN9class_RTC7setDateEhhhhb+0x6c>
    ca8c:	c2 2f       	mov	r28, r18
    ca8e:	d4 2f       	mov	r29, r20
    ca90:	16 2f       	mov	r17, r22
    ca92:	90 e0       	ldi	r25, 0x00	; 0
    ca94:	0e 94 97 63 	call	0xc72e	; 0xc72e <_ZN9class_RTC8binToBCDEi>
    ca98:	08 2f       	mov	r16, r24
    ca9a:	81 2f       	mov	r24, r17
    ca9c:	90 e0       	ldi	r25, 0x00	; 0
    ca9e:	0e 94 97 63 	call	0xc72e	; 0xc72e <_ZN9class_RTC8binToBCDEi>
    caa2:	18 2f       	mov	r17, r24
    caa4:	8d 2f       	mov	r24, r29
    caa6:	90 e0       	ldi	r25, 0x00	; 0
    caa8:	0e 94 97 63 	call	0xc72e	; 0xc72e <_ZN9class_RTC8binToBCDEi>
    caac:	d8 2f       	mov	r29, r24
    caae:	40 e0       	ldi	r20, 0x00	; 0
    cab0:	60 2f       	mov	r22, r16
    cab2:	86 e0       	ldi	r24, 0x06	; 6
    cab4:	0e 94 24 63 	call	0xc648	; 0xc648 <_ZN9class_RTC8writeRegE6RTCReghb>
    cab8:	40 e0       	ldi	r20, 0x00	; 0
    caba:	61 2f       	mov	r22, r17
    cabc:	85 e0       	ldi	r24, 0x05	; 5
    cabe:	0e 94 24 63 	call	0xc648	; 0xc648 <_ZN9class_RTC8writeRegE6RTCReghb>
    cac2:	40 e0       	ldi	r20, 0x00	; 0
    cac4:	6d 2f       	mov	r22, r29
    cac6:	84 e0       	ldi	r24, 0x04	; 4
    cac8:	0e 94 24 63 	call	0xc648	; 0xc648 <_ZN9class_RTC8writeRegE6RTCReghb>
    cacc:	40 e0       	ldi	r20, 0x00	; 0
    cace:	6c 2f       	mov	r22, r28
    cad0:	83 e0       	ldi	r24, 0x03	; 3
    cad2:	0e 94 24 63 	call	0xc648	; 0xc648 <_ZN9class_RTC8writeRegE6RTCReghb>
    cad6:	ff be       	out	0x3f, r15	; 63
    cad8:	df 91       	pop	r29
    cada:	cf 91       	pop	r28
    cadc:	1f 91       	pop	r17
    cade:	0f 91       	pop	r16
    cae0:	ff 90       	pop	r15
    cae2:	08 95       	ret

0000cae4 <_ZN9class_RTC7GetDateERhS0_S0_S0_b>:
    cae4:	0f 93       	push	r16
    cae6:	cf 93       	push	r28
    cae8:	df 93       	push	r29
    caea:	00 23       	and	r16, r16
    caec:	29 f0       	breq	.+10     	; 0xcaf8 <_ZN9class_RTC7GetDateERhS0_S0_S0_b+0x14>
    caee:	df 91       	pop	r29
    caf0:	cf 91       	pop	r28
    caf2:	0f 91       	pop	r16
    caf4:	0c 94 9e 64 	jmp	0xc93c	; 0xc93c <_ZN9class_RTC7GetDateERhS0_S0_S0_b.part.2>
    caf8:	b0 91 b7 07 	lds	r27, 0x07B7	; 0x8007b7 <_RTC+0x6>
    cafc:	a0 91 b6 07 	lds	r26, 0x07B6	; 0x8007b6 <_RTC+0x5>
    cb00:	f0 91 b5 07 	lds	r31, 0x07B5	; 0x8007b5 <_RTC+0x4>
    cb04:	e0 91 b4 07 	lds	r30, 0x07B4	; 0x8007b4 <_RTC+0x3>
    cb08:	78 94       	sei
    cb0a:	ec 01       	movw	r28, r24
    cb0c:	b8 83       	st	Y, r27
    cb0e:	eb 01       	movw	r28, r22
    cb10:	a8 83       	st	Y, r26
    cb12:	da 01       	movw	r26, r20
    cb14:	fc 93       	st	X, r31
    cb16:	e9 01       	movw	r28, r18
    cb18:	e8 83       	st	Y, r30
    cb1a:	df 91       	pop	r29
    cb1c:	cf 91       	pop	r28
    cb1e:	0f 91       	pop	r16
    cb20:	08 95       	ret

0000cb22 <_GLOBAL__sub_I__RTC>:
    cb22:	84 ec       	ldi	r24, 0xC4	; 196
    cb24:	97 e0       	ldi	r25, 0x07	; 7
    cb26:	0e 94 c7 65 	call	0xcb8e	; 0xcb8e <_ZN11class_TimerC1Ev>
    cb2a:	85 ec       	ldi	r24, 0xC5	; 197
    cb2c:	97 e0       	ldi	r25, 0x07	; 7
    cb2e:	0c 94 ed 40 	jmp	0x81da	; 0x81da <_ZN9class_I2CC1Ev>

0000cb32 <_GLOBAL__sub_D__RTC>:
    cb32:	85 ec       	ldi	r24, 0xC5	; 197
    cb34:	97 e0       	ldi	r25, 0x07	; 7
    cb36:	0e 94 f2 40 	call	0x81e4	; 0x81e4 <_ZN9class_I2CD1Ev>
    cb3a:	84 ec       	ldi	r24, 0xC4	; 196
    cb3c:	97 e0       	ldi	r25, 0x07	; 7
    cb3e:	0c 94 d0 65 	jmp	0xcba0	; 0xcba0 <_ZN11class_TimerD1Ev>

0000cb42 <_ZN11class_Timer10InitializeEv>:
    cb42:	9f b7       	in	r25, 0x3f	; 63
    cb44:	f8 94       	cli
    cb46:	8f b5       	in	r24, 0x2f	; 47
    cb48:	8c 7f       	andi	r24, 0xFC	; 252
    cb4a:	8f bd       	out	0x2f, r24	; 47
    cb4c:	8e b5       	in	r24, 0x2e	; 46
    cb4e:	80 7e       	andi	r24, 0xE0	; 224
    cb50:	8e bd       	out	0x2e, r24	; 46
    cb52:	8e b5       	in	r24, 0x2e	; 46
    cb54:	8a 60       	ori	r24, 0x0A	; 10
    cb56:	8e bd       	out	0x2e, r24	; 46
    cb58:	2f e8       	ldi	r18, 0x8F	; 143
    cb5a:	31 e0       	ldi	r19, 0x01	; 1
    cb5c:	3b bd       	out	0x2b, r19	; 43
    cb5e:	2a bd       	out	0x2a, r18	; 42
    cb60:	87 b7       	in	r24, 0x37	; 55
    cb62:	80 61       	ori	r24, 0x10	; 16
    cb64:	87 bf       	out	0x37, r24	; 55
    cb66:	ea ed       	ldi	r30, 0xDA	; 218
    cb68:	f7 e0       	ldi	r31, 0x07	; 7
    cb6a:	17 82       	std	Z+7, r1	; 0x07
    cb6c:	16 82       	std	Z+6, r1	; 0x06
    cb6e:	81 e0       	ldi	r24, 0x01	; 1
    cb70:	80 83       	st	Z, r24
    cb72:	11 82       	std	Z+1, r1	; 0x01
    cb74:	12 82       	std	Z+2, r1	; 0x02
    cb76:	13 82       	std	Z+3, r1	; 0x03
    cb78:	14 82       	std	Z+4, r1	; 0x04
    cb7a:	15 82       	std	Z+5, r1	; 0x05
    cb7c:	9f bf       	out	0x3f, r25	; 63
    cb7e:	08 95       	ret

0000cb80 <_ZN11class_Timer12UnInitializeEv>:
    cb80:	9f b7       	in	r25, 0x3f	; 63
    cb82:	f8 94       	cli
    cb84:	8e b5       	in	r24, 0x2e	; 46
    cb86:	88 7f       	andi	r24, 0xF8	; 248
    cb88:	8e bd       	out	0x2e, r24	; 46
    cb8a:	9f bf       	out	0x3f, r25	; 63
    cb8c:	08 95       	ret

0000cb8e <_ZN11class_TimerC1Ev>:
    cb8e:	20 91 15 01 	lds	r18, 0x0115	; 0x800115 <_ZZN11class_TimerC4EvE5bInit>
    cb92:	22 23       	and	r18, r18
    cb94:	21 f0       	breq	.+8      	; 0xcb9e <_ZN11class_TimerC1Ev+0x10>
    cb96:	10 92 15 01 	sts	0x0115, r1	; 0x800115 <_ZZN11class_TimerC4EvE5bInit>
    cb9a:	0c 94 a1 65 	jmp	0xcb42	; 0xcb42 <_ZN11class_Timer10InitializeEv>
    cb9e:	08 95       	ret

0000cba0 <_ZN11class_TimerD1Ev>:
    cba0:	0c 94 c0 65 	jmp	0xcb80	; 0xcb80 <_ZN11class_Timer12UnInitializeEv>

0000cba4 <__vector_12>:
    cba4:	1f 92       	push	r1
    cba6:	0f 92       	push	r0
    cba8:	0f b6       	in	r0, 0x3f	; 63
    cbaa:	0f 92       	push	r0
    cbac:	11 24       	eor	r1, r1
    cbae:	2f 93       	push	r18
    cbb0:	3f 93       	push	r19
    cbb2:	4f 93       	push	r20
    cbb4:	5f 93       	push	r21
    cbb6:	6f 93       	push	r22
    cbb8:	7f 93       	push	r23
    cbba:	8f 93       	push	r24
    cbbc:	9f 93       	push	r25
    cbbe:	af 93       	push	r26
    cbc0:	bf 93       	push	r27
    cbc2:	ef 93       	push	r30
    cbc4:	ff 93       	push	r31
    cbc6:	80 91 db 07 	lds	r24, 0x07DB	; 0x8007db <_ZL6_timer+0x1>
    cbca:	8f 5f       	subi	r24, 0xFF	; 255
    cbcc:	80 93 db 07 	sts	0x07DB, r24	; 0x8007db <_ZL6_timer+0x1>
    cbd0:	80 91 db 07 	lds	r24, 0x07DB	; 0x8007db <_ZL6_timer+0x1>
    cbd4:	85 30       	cpi	r24, 0x05	; 5
    cbd6:	c8 f0       	brcs	.+50     	; 0xcc0a <__vector_12+0x66>
    cbd8:	10 92 db 07 	sts	0x07DB, r1	; 0x8007db <_ZL6_timer+0x1>
    cbdc:	80 91 da 07 	lds	r24, 0x07DA	; 0x8007da <_ZL6_timer>
    cbe0:	88 23       	and	r24, r24
    cbe2:	99 f0       	breq	.+38     	; 0xcc0a <__vector_12+0x66>
    cbe4:	80 91 dc 07 	lds	r24, 0x07DC	; 0x8007dc <_ZL6_timer+0x2>
    cbe8:	90 91 dd 07 	lds	r25, 0x07DD	; 0x8007dd <_ZL6_timer+0x3>
    cbec:	a0 91 de 07 	lds	r26, 0x07DE	; 0x8007de <_ZL6_timer+0x4>
    cbf0:	b0 91 df 07 	lds	r27, 0x07DF	; 0x8007df <_ZL6_timer+0x5>
    cbf4:	01 96       	adiw	r24, 0x01	; 1
    cbf6:	a1 1d       	adc	r26, r1
    cbf8:	b1 1d       	adc	r27, r1
    cbfa:	80 93 dc 07 	sts	0x07DC, r24	; 0x8007dc <_ZL6_timer+0x2>
    cbfe:	90 93 dd 07 	sts	0x07DD, r25	; 0x8007dd <_ZL6_timer+0x3>
    cc02:	a0 93 de 07 	sts	0x07DE, r26	; 0x8007de <_ZL6_timer+0x4>
    cc06:	b0 93 df 07 	sts	0x07DF, r27	; 0x8007df <_ZL6_timer+0x5>
    cc0a:	80 91 e0 07 	lds	r24, 0x07E0	; 0x8007e0 <_ZL6_timer+0x6>
    cc0e:	90 91 e1 07 	lds	r25, 0x07E1	; 0x8007e1 <_ZL6_timer+0x7>
    cc12:	89 2b       	or	r24, r25
    cc14:	29 f0       	breq	.+10     	; 0xcc20 <__vector_12+0x7c>
    cc16:	e0 91 e0 07 	lds	r30, 0x07E0	; 0x8007e0 <_ZL6_timer+0x6>
    cc1a:	f0 91 e1 07 	lds	r31, 0x07E1	; 0x8007e1 <_ZL6_timer+0x7>
    cc1e:	09 95       	icall
    cc20:	ff 91       	pop	r31
    cc22:	ef 91       	pop	r30
    cc24:	bf 91       	pop	r27
    cc26:	af 91       	pop	r26
    cc28:	9f 91       	pop	r25
    cc2a:	8f 91       	pop	r24
    cc2c:	7f 91       	pop	r23
    cc2e:	6f 91       	pop	r22
    cc30:	5f 91       	pop	r21
    cc32:	4f 91       	pop	r20
    cc34:	3f 91       	pop	r19
    cc36:	2f 91       	pop	r18
    cc38:	0f 90       	pop	r0
    cc3a:	0f be       	out	0x3f, r0	; 63
    cc3c:	0f 90       	pop	r0
    cc3e:	1f 90       	pop	r1
    cc40:	18 95       	reti

0000cc42 <_ZN11class_Timer15getMillisecondsEv>:
    cc42:	0f 93       	push	r16
    cc44:	1f 93       	push	r17
    cc46:	78 94       	sei
    cc48:	60 91 dc 07 	lds	r22, 0x07DC	; 0x8007dc <_ZL6_timer+0x2>
    cc4c:	70 91 dd 07 	lds	r23, 0x07DD	; 0x8007dd <_ZL6_timer+0x3>
    cc50:	80 91 de 07 	lds	r24, 0x07DE	; 0x8007de <_ZL6_timer+0x4>
    cc54:	90 91 df 07 	lds	r25, 0x07DF	; 0x8007df <_ZL6_timer+0x5>
    cc58:	78 94       	sei
    cc5a:	00 91 dc 07 	lds	r16, 0x07DC	; 0x8007dc <_ZL6_timer+0x2>
    cc5e:	10 91 dd 07 	lds	r17, 0x07DD	; 0x8007dd <_ZL6_timer+0x3>
    cc62:	20 91 de 07 	lds	r18, 0x07DE	; 0x8007de <_ZL6_timer+0x4>
    cc66:	30 91 df 07 	lds	r19, 0x07DF	; 0x8007df <_ZL6_timer+0x5>
    cc6a:	60 17       	cp	r22, r16
    cc6c:	71 07       	cpc	r23, r17
    cc6e:	82 07       	cpc	r24, r18
    cc70:	93 07       	cpc	r25, r19
    cc72:	49 f7       	brne	.-46     	; 0xcc46 <_ZN11class_Timer15getMillisecondsEv+0x4>
    cc74:	1f 91       	pop	r17
    cc76:	0f 91       	pop	r16
    cc78:	08 95       	ret

0000cc7a <_ZN11class_Timer10setElapsedERm>:
    cc7a:	cf 93       	push	r28
    cc7c:	df 93       	push	r29
    cc7e:	eb 01       	movw	r28, r22
    cc80:	0e 94 21 66 	call	0xcc42	; 0xcc42 <_ZN11class_Timer15getMillisecondsEv>
    cc84:	68 83       	st	Y, r22
    cc86:	79 83       	std	Y+1, r23	; 0x01
    cc88:	8a 83       	std	Y+2, r24	; 0x02
    cc8a:	9b 83       	std	Y+3, r25	; 0x03
    cc8c:	df 91       	pop	r29
    cc8e:	cf 91       	pop	r28
    cc90:	08 95       	ret

0000cc92 <_ZN11class_Timer10getElapsedERm>:
    cc92:	0f 93       	push	r16
    cc94:	1f 93       	push	r17
    cc96:	cf 93       	push	r28
    cc98:	df 93       	push	r29
    cc9a:	eb 01       	movw	r28, r22
    cc9c:	0e 94 21 66 	call	0xcc42	; 0xcc42 <_ZN11class_Timer15getMillisecondsEv>
    cca0:	08 81       	ld	r16, Y
    cca2:	19 81       	ldd	r17, Y+1	; 0x01
    cca4:	2a 81       	ldd	r18, Y+2	; 0x02
    cca6:	3b 81       	ldd	r19, Y+3	; 0x03
    cca8:	60 1b       	sub	r22, r16
    ccaa:	71 0b       	sbc	r23, r17
    ccac:	82 0b       	sbc	r24, r18
    ccae:	93 0b       	sbc	r25, r19
    ccb0:	df 91       	pop	r29
    ccb2:	cf 91       	pop	r28
    ccb4:	1f 91       	pop	r17
    ccb6:	0f 91       	pop	r16
    ccb8:	08 95       	ret

0000ccba <_ZN11class_Timer17delayMillisecondsEm>:
    ccba:	8f 92       	push	r8
    ccbc:	9f 92       	push	r9
    ccbe:	af 92       	push	r10
    ccc0:	bf 92       	push	r11
    ccc2:	cf 92       	push	r12
    ccc4:	df 92       	push	r13
    ccc6:	ef 92       	push	r14
    ccc8:	ff 92       	push	r15
    ccca:	cf 93       	push	r28
    cccc:	df 93       	push	r29
    ccce:	ec 01       	movw	r28, r24
    ccd0:	6a 01       	movw	r12, r20
    ccd2:	7b 01       	movw	r14, r22
    ccd4:	0e 94 21 66 	call	0xcc42	; 0xcc42 <_ZN11class_Timer15getMillisecondsEv>
    ccd8:	4b 01       	movw	r8, r22
    ccda:	5c 01       	movw	r10, r24
    ccdc:	ce 01       	movw	r24, r28
    ccde:	0e 94 21 66 	call	0xcc42	; 0xcc42 <_ZN11class_Timer15getMillisecondsEv>
    cce2:	dc 01       	movw	r26, r24
    cce4:	cb 01       	movw	r24, r22
    cce6:	88 19       	sub	r24, r8
    cce8:	99 09       	sbc	r25, r9
    ccea:	aa 09       	sbc	r26, r10
    ccec:	bb 09       	sbc	r27, r11
    ccee:	8c 15       	cp	r24, r12
    ccf0:	9d 05       	cpc	r25, r13
    ccf2:	ae 05       	cpc	r26, r14
    ccf4:	bf 05       	cpc	r27, r15
    ccf6:	90 f3       	brcs	.-28     	; 0xccdc <_ZN11class_Timer17delayMillisecondsEm+0x22>
    ccf8:	df 91       	pop	r29
    ccfa:	cf 91       	pop	r28
    ccfc:	ff 90       	pop	r15
    ccfe:	ef 90       	pop	r14
    cd00:	df 90       	pop	r13
    cd02:	cf 90       	pop	r12
    cd04:	bf 90       	pop	r11
    cd06:	af 90       	pop	r10
    cd08:	9f 90       	pop	r9
    cd0a:	8f 90       	pop	r8
    cd0c:	08 95       	ret

0000cd0e <_ZN11class_Timer17setHandleCallBackEPFvvE>:
    cd0e:	70 93 e1 07 	sts	0x07E1, r23	; 0x8007e1 <_ZL6_timer+0x7>
    cd12:	60 93 e0 07 	sts	0x07E0, r22	; 0x8007e0 <_ZL6_timer+0x6>
    cd16:	08 95       	ret

0000cd18 <_ZN11class_Timer17getHandleCallBackEa>:
    cd18:	80 91 e0 07 	lds	r24, 0x07E0	; 0x8007e0 <_ZL6_timer+0x6>
    cd1c:	90 91 e1 07 	lds	r25, 0x07E1	; 0x8007e1 <_ZL6_timer+0x7>
    cd20:	08 95       	ret

0000cd22 <_GLOBAL__sub_I__ZN11class_Timer10InitializeEv>:
    cd22:	ea ed       	ldi	r30, 0xDA	; 218
    cd24:	f7 e0       	ldi	r31, 0x07	; 7
    cd26:	81 e0       	ldi	r24, 0x01	; 1
    cd28:	80 83       	st	Z, r24
    cd2a:	11 82       	std	Z+1, r1	; 0x01
    cd2c:	12 82       	std	Z+2, r1	; 0x02
    cd2e:	13 82       	std	Z+3, r1	; 0x03
    cd30:	14 82       	std	Z+4, r1	; 0x04
    cd32:	15 82       	std	Z+5, r1	; 0x05
    cd34:	08 95       	ret

0000cd36 <__vector_18>:
    cd36:	1f 92       	push	r1
    cd38:	0f 92       	push	r0
    cd3a:	0f b6       	in	r0, 0x3f	; 63
    cd3c:	0f 92       	push	r0
    cd3e:	11 24       	eor	r1, r1
    cd40:	2f 93       	push	r18
    cd42:	3f 93       	push	r19
    cd44:	4f 93       	push	r20
    cd46:	5f 93       	push	r21
    cd48:	6f 93       	push	r22
    cd4a:	7f 93       	push	r23
    cd4c:	8f 93       	push	r24
    cd4e:	9f 93       	push	r25
    cd50:	ef 93       	push	r30
    cd52:	ff 93       	push	r31
    cd54:	8b b1       	in	r24, 0x0b	; 11
    cd56:	88 71       	andi	r24, 0x18	; 24
    cd58:	f1 f4       	brne	.+60     	; 0xcd96 <__vector_18+0x60>
    cd5a:	9c b1       	in	r25, 0x0c	; 12
    cd5c:	80 91 04 08 	lds	r24, 0x0804	; 0x800804 <_usartDriver+0x22>
    cd60:	28 2f       	mov	r18, r24
    cd62:	30 e0       	ldi	r19, 0x00	; 0
    cd64:	b9 01       	movw	r22, r18
    cd66:	6f 5f       	subi	r22, 0xFF	; 255
    cd68:	7f 4f       	sbci	r23, 0xFF	; 255
    cd6a:	6f 73       	andi	r22, 0x3F	; 63
    cd6c:	77 27       	eor	r23, r23
    cd6e:	40 91 03 08 	lds	r20, 0x0803	; 0x800803 <_usartDriver+0x21>
    cd72:	50 e0       	ldi	r21, 0x00	; 0
    cd74:	64 17       	cp	r22, r20
    cd76:	75 07       	cpc	r23, r21
    cd78:	79 f0       	breq	.+30     	; 0xcd98 <__vector_18+0x62>
    cd7a:	f9 01       	movw	r30, r18
    cd7c:	ee 51       	subi	r30, 0x1E	; 30
    cd7e:	f8 4f       	sbci	r31, 0xF8	; 248
    cd80:	94 a3       	std	Z+36, r25	; 0x24
    cd82:	8f 5f       	subi	r24, 0xFF	; 255
    cd84:	8f 73       	andi	r24, 0x3F	; 63
    cd86:	80 93 04 08 	sts	0x0804, r24	; 0x800804 <_usartDriver+0x22>
    cd8a:	80 91 05 08 	lds	r24, 0x0805	; 0x800805 <_usartDriver+0x23>
    cd8e:	8f 5f       	subi	r24, 0xFF	; 255
    cd90:	80 93 05 08 	sts	0x0805, r24	; 0x800805 <_usartDriver+0x23>
    cd94:	01 c0       	rjmp	.+2      	; 0xcd98 <__vector_18+0x62>
    cd96:	8c b1       	in	r24, 0x0c	; 12
    cd98:	ff 91       	pop	r31
    cd9a:	ef 91       	pop	r30
    cd9c:	9f 91       	pop	r25
    cd9e:	8f 91       	pop	r24
    cda0:	7f 91       	pop	r23
    cda2:	6f 91       	pop	r22
    cda4:	5f 91       	pop	r21
    cda6:	4f 91       	pop	r20
    cda8:	3f 91       	pop	r19
    cdaa:	2f 91       	pop	r18
    cdac:	0f 90       	pop	r0
    cdae:	0f be       	out	0x3f, r0	; 63
    cdb0:	0f 90       	pop	r0
    cdb2:	1f 90       	pop	r1
    cdb4:	18 95       	reti

0000cdb6 <__vector_30>:
    cdb6:	1f 92       	push	r1
    cdb8:	0f 92       	push	r0
    cdba:	0f b6       	in	r0, 0x3f	; 63
    cdbc:	0f 92       	push	r0
    cdbe:	11 24       	eor	r1, r1
    cdc0:	2f 93       	push	r18
    cdc2:	3f 93       	push	r19
    cdc4:	4f 93       	push	r20
    cdc6:	5f 93       	push	r21
    cdc8:	6f 93       	push	r22
    cdca:	7f 93       	push	r23
    cdcc:	8f 93       	push	r24
    cdce:	9f 93       	push	r25
    cdd0:	ef 93       	push	r30
    cdd2:	ff 93       	push	r31
    cdd4:	80 91 9b 00 	lds	r24, 0x009B	; 0x80009b <__TEXT_REGION_LENGTH__+0x7f009b>
    cdd8:	88 71       	andi	r24, 0x18	; 24
    cdda:	f9 f4       	brne	.+62     	; 0xce1a <__vector_30+0x64>
    cddc:	90 91 9c 00 	lds	r25, 0x009C	; 0x80009c <__TEXT_REGION_LENGTH__+0x7f009c>
    cde0:	80 91 47 08 	lds	r24, 0x0847	; 0x800847 <_usartDriver+0x65>
    cde4:	28 2f       	mov	r18, r24
    cde6:	30 e0       	ldi	r19, 0x00	; 0
    cde8:	b9 01       	movw	r22, r18
    cdea:	6f 5f       	subi	r22, 0xFF	; 255
    cdec:	7f 4f       	sbci	r23, 0xFF	; 255
    cdee:	6f 73       	andi	r22, 0x3F	; 63
    cdf0:	77 27       	eor	r23, r23
    cdf2:	40 91 46 08 	lds	r20, 0x0846	; 0x800846 <_usartDriver+0x64>
    cdf6:	50 e0       	ldi	r21, 0x00	; 0
    cdf8:	64 17       	cp	r22, r20
    cdfa:	75 07       	cpc	r23, r21
    cdfc:	81 f0       	breq	.+32     	; 0xce1e <__vector_30+0x68>
    cdfe:	f9 01       	movw	r30, r18
    ce00:	ea 5b       	subi	r30, 0xBA	; 186
    ce02:	f7 4f       	sbci	r31, 0xF7	; 247
    ce04:	93 83       	std	Z+3, r25	; 0x03
    ce06:	8f 5f       	subi	r24, 0xFF	; 255
    ce08:	8f 73       	andi	r24, 0x3F	; 63
    ce0a:	80 93 47 08 	sts	0x0847, r24	; 0x800847 <_usartDriver+0x65>
    ce0e:	80 91 48 08 	lds	r24, 0x0848	; 0x800848 <_usartDriver+0x66>
    ce12:	8f 5f       	subi	r24, 0xFF	; 255
    ce14:	80 93 48 08 	sts	0x0848, r24	; 0x800848 <_usartDriver+0x66>
    ce18:	02 c0       	rjmp	.+4      	; 0xce1e <__vector_30+0x68>
    ce1a:	80 91 9c 00 	lds	r24, 0x009C	; 0x80009c <__TEXT_REGION_LENGTH__+0x7f009c>
    ce1e:	ff 91       	pop	r31
    ce20:	ef 91       	pop	r30
    ce22:	9f 91       	pop	r25
    ce24:	8f 91       	pop	r24
    ce26:	7f 91       	pop	r23
    ce28:	6f 91       	pop	r22
    ce2a:	5f 91       	pop	r21
    ce2c:	4f 91       	pop	r20
    ce2e:	3f 91       	pop	r19
    ce30:	2f 91       	pop	r18
    ce32:	0f 90       	pop	r0
    ce34:	0f be       	out	0x3f, r0	; 63
    ce36:	0f 90       	pop	r0
    ce38:	1f 90       	pop	r1
    ce3a:	18 95       	reti

0000ce3c <_ZL11getWaveDatah>:
    ce3c:	cf 93       	push	r28
    ce3e:	df 93       	push	r29
    ce40:	90 e0       	ldi	r25, 0x00	; 0
    ce42:	ac 01       	movw	r20, r24
    ce44:	4f 5f       	subi	r20, 0xFF	; 255
    ce46:	5f 4f       	sbci	r21, 0xFF	; 255
    ce48:	29 e1       	ldi	r18, 0x19	; 25
    ce4a:	24 9f       	mul	r18, r20
    ce4c:	e0 01       	movw	r28, r0
    ce4e:	25 9f       	mul	r18, r21
    ce50:	d0 0d       	add	r29, r0
    ce52:	11 24       	eor	r1, r1
    ce54:	c2 57       	subi	r28, 0x72	; 114
    ce56:	d7 4f       	sbci	r29, 0xF7	; 247
    ce58:	38 81       	ld	r19, Y
    ce5a:	33 23       	and	r19, r19
    ce5c:	09 f4       	brne	.+2      	; 0xce60 <_ZL11getWaveDatah+0x24>
    ce5e:	42 c0       	rjmp	.+132    	; 0xcee4 <_ZL11getWaveDatah+0xa8>
    ce60:	28 9f       	mul	r18, r24
    ce62:	d0 01       	movw	r26, r0
    ce64:	29 9f       	mul	r18, r25
    ce66:	b0 0d       	add	r27, r0
    ce68:	11 24       	eor	r1, r1
    ce6a:	a2 57       	subi	r26, 0x72	; 114
    ce6c:	b7 4f       	sbci	r27, 0xF7	; 247
    ce6e:	52 96       	adiw	r26, 0x12	; 18
    ce70:	ed 91       	ld	r30, X+
    ce72:	fc 91       	ld	r31, X
    ce74:	53 97       	sbiw	r26, 0x13	; 19
    ce76:	84 91       	lpm	r24, Z
    ce78:	8f 57       	subi	r24, 0x7F	; 127
    ce7a:	54 96       	adiw	r26, 0x14	; 20
    ce7c:	4d 91       	ld	r20, X+
    ce7e:	5d 91       	ld	r21, X+
    ce80:	6d 91       	ld	r22, X+
    ce82:	7c 91       	ld	r23, X
    ce84:	57 97       	sbiw	r26, 0x17	; 23
    ce86:	41 50       	subi	r20, 0x01	; 1
    ce88:	51 09       	sbc	r21, r1
    ce8a:	61 09       	sbc	r22, r1
    ce8c:	71 09       	sbc	r23, r1
    ce8e:	54 96       	adiw	r26, 0x14	; 20
    ce90:	4d 93       	st	X+, r20
    ce92:	5d 93       	st	X+, r21
    ce94:	6d 93       	st	X+, r22
    ce96:	7c 93       	st	X, r23
    ce98:	57 97       	sbiw	r26, 0x17	; 23
    ce9a:	31 96       	adiw	r30, 0x01	; 1
    ce9c:	53 96       	adiw	r26, 0x13	; 19
    ce9e:	fc 93       	st	X, r31
    cea0:	ee 93       	st	-X, r30
    cea2:	52 97       	sbiw	r26, 0x12	; 18
    cea4:	45 2b       	or	r20, r21
    cea6:	46 2b       	or	r20, r22
    cea8:	47 2b       	or	r20, r23
    ceaa:	e9 f4       	brne	.+58     	; 0xcee6 <_ZL11getWaveDatah+0xaa>
    ceac:	5a 96       	adiw	r26, 0x1a	; 26
    ceae:	9c 91       	ld	r25, X
    ceb0:	5a 97       	sbiw	r26, 0x1a	; 26
    ceb2:	99 23       	and	r25, r25
    ceb4:	a9 f0       	breq	.+42     	; 0xcee0 <_ZL11getWaveDatah+0xa4>
    ceb6:	12 96       	adiw	r26, 0x02	; 2
    ceb8:	2d 91       	ld	r18, X+
    ceba:	3c 91       	ld	r19, X
    cebc:	13 97       	sbiw	r26, 0x03	; 3
    cebe:	53 96       	adiw	r26, 0x13	; 19
    cec0:	3c 93       	st	X, r19
    cec2:	2e 93       	st	-X, r18
    cec4:	52 97       	sbiw	r26, 0x12	; 18
    cec6:	14 96       	adiw	r26, 0x04	; 4
    cec8:	4d 91       	ld	r20, X+
    ceca:	5d 91       	ld	r21, X+
    cecc:	6d 91       	ld	r22, X+
    cece:	7c 91       	ld	r23, X
    ced0:	17 97       	sbiw	r26, 0x07	; 7
    ced2:	54 96       	adiw	r26, 0x14	; 20
    ced4:	4d 93       	st	X+, r20
    ced6:	5d 93       	st	X+, r21
    ced8:	6d 93       	st	X+, r22
    ceda:	7c 93       	st	X, r23
    cedc:	57 97       	sbiw	r26, 0x17	; 23
    cede:	03 c0       	rjmp	.+6      	; 0xcee6 <_ZL11getWaveDatah+0xaa>
    cee0:	18 82       	st	Y, r1
    cee2:	01 c0       	rjmp	.+2      	; 0xcee6 <_ZL11getWaveDatah+0xaa>
    cee4:	80 e0       	ldi	r24, 0x00	; 0
    cee6:	df 91       	pop	r29
    cee8:	cf 91       	pop	r28
    ceea:	08 95       	ret

0000ceec <_ZN10class_Wave12SoundProcessEv>:
    ceec:	1f 93       	push	r17
    ceee:	cf 93       	push	r28
    cef0:	df 93       	push	r29
    cef2:	80 91 5b 09 	lds	r24, 0x095B	; 0x80095b <_Wave+0xcd>
    cef6:	88 23       	and	r24, r24
    cef8:	a9 f0       	breq	.+42     	; 0xcf24 <_ZN10class_Wave12SoundProcessEv+0x38>
    cefa:	20 91 58 09 	lds	r18, 0x0958	; 0x800958 <_Wave+0xca>
    cefe:	30 91 59 09 	lds	r19, 0x0959	; 0x800959 <_Wave+0xcb>
    cf02:	80 91 8b 08 	lds	r24, 0x088B	; 0x80088b <_ZZN10class_Wave12SoundProcessEvE4sqrP>
    cf06:	90 91 8c 08 	lds	r25, 0x088C	; 0x80088c <_ZZN10class_Wave12SoundProcessEvE4sqrP+0x1>
    cf0a:	28 0f       	add	r18, r24
    cf0c:	39 1f       	adc	r19, r25
    cf0e:	30 93 8c 08 	sts	0x088C, r19	; 0x80088c <_ZZN10class_Wave12SoundProcessEvE4sqrP+0x1>
    cf12:	20 93 8b 08 	sts	0x088B, r18	; 0x80088b <_ZZN10class_Wave12SoundProcessEvE4sqrP>
    cf16:	80 91 5a 09 	lds	r24, 0x095A	; 0x80095a <_Wave+0xcc>
    cf1a:	37 ff       	sbrs	r19, 7
    cf1c:	81 95       	neg	r24
    cf1e:	80 93 8a 08 	sts	0x088A, r24	; 0x80088a <_ZZN10class_Wave12SoundProcessEvE10squareWave>
    cf22:	02 c0       	rjmp	.+4      	; 0xcf28 <_ZN10class_Wave12SoundProcessEv+0x3c>
    cf24:	10 92 8a 08 	sts	0x088A, r1	; 0x80088a <_ZZN10class_Wave12SoundProcessEvE10squareWave>
    cf28:	80 e0       	ldi	r24, 0x00	; 0
    cf2a:	0e 94 1e 67 	call	0xce3c	; 0xce3c <_ZL11getWaveDatah>
    cf2e:	18 2f       	mov	r17, r24
    cf30:	81 e0       	ldi	r24, 0x01	; 1
    cf32:	0e 94 1e 67 	call	0xce3c	; 0xce3c <_ZL11getWaveDatah>
    cf36:	c8 2f       	mov	r28, r24
    cf38:	88 0f       	add	r24, r24
    cf3a:	dd 0b       	sbc	r29, r29
    cf3c:	c1 0f       	add	r28, r17
    cf3e:	d1 1d       	adc	r29, r1
    cf40:	17 fd       	sbrc	r17, 7
    cf42:	da 95       	dec	r29
    cf44:	82 e0       	ldi	r24, 0x02	; 2
    cf46:	0e 94 1e 67 	call	0xce3c	; 0xce3c <_ZL11getWaveDatah>
    cf4a:	c8 0f       	add	r28, r24
    cf4c:	d1 1d       	adc	r29, r1
    cf4e:	87 fd       	sbrc	r24, 7
    cf50:	da 95       	dec	r29
    cf52:	83 e0       	ldi	r24, 0x03	; 3
    cf54:	0e 94 1e 67 	call	0xce3c	; 0xce3c <_ZL11getWaveDatah>
    cf58:	c8 0f       	add	r28, r24
    cf5a:	d1 1d       	adc	r29, r1
    cf5c:	87 fd       	sbrc	r24, 7
    cf5e:	da 95       	dec	r29
    cf60:	84 e0       	ldi	r24, 0x04	; 4
    cf62:	0e 94 1e 67 	call	0xce3c	; 0xce3c <_ZL11getWaveDatah>
    cf66:	c8 0f       	add	r28, r24
    cf68:	d1 1d       	adc	r29, r1
    cf6a:	87 fd       	sbrc	r24, 7
    cf6c:	da 95       	dec	r29
    cf6e:	85 e0       	ldi	r24, 0x05	; 5
    cf70:	0e 94 1e 67 	call	0xce3c	; 0xce3c <_ZL11getWaveDatah>
    cf74:	c8 0f       	add	r28, r24
    cf76:	d1 1d       	adc	r29, r1
    cf78:	87 fd       	sbrc	r24, 7
    cf7a:	da 95       	dec	r29
    cf7c:	86 e0       	ldi	r24, 0x06	; 6
    cf7e:	0e 94 1e 67 	call	0xce3c	; 0xce3c <_ZL11getWaveDatah>
    cf82:	c8 0f       	add	r28, r24
    cf84:	d1 1d       	adc	r29, r1
    cf86:	87 fd       	sbrc	r24, 7
    cf88:	da 95       	dec	r29
    cf8a:	87 e0       	ldi	r24, 0x07	; 7
    cf8c:	0e 94 1e 67 	call	0xce3c	; 0xce3c <_ZL11getWaveDatah>
    cf90:	90 91 8a 08 	lds	r25, 0x088A	; 0x80088a <_ZZN10class_Wave12SoundProcessEvE10squareWave>
    cf94:	c8 0f       	add	r28, r24
    cf96:	d1 1d       	adc	r29, r1
    cf98:	87 fd       	sbrc	r24, 7
    cf9a:	da 95       	dec	r29
    cf9c:	22 e0       	ldi	r18, 0x02	; 2
    cf9e:	92 02       	muls	r25, r18
    cfa0:	c0 0d       	add	r28, r0
    cfa2:	d1 1d       	adc	r29, r1
    cfa4:	11 24       	eor	r1, r1
    cfa6:	20 91 8e 08 	lds	r18, 0x088E	; 0x80088e <_Wave>
    cfaa:	30 91 8f 08 	lds	r19, 0x088F	; 0x80088f <_Wave+0x1>
    cfae:	c2 9f       	mul	r28, r18
    cfb0:	c0 01       	movw	r24, r0
    cfb2:	c3 9f       	mul	r28, r19
    cfb4:	90 0d       	add	r25, r0
    cfb6:	d2 9f       	mul	r29, r18
    cfb8:	90 0d       	add	r25, r0
    cfba:	11 24       	eor	r1, r1
    cfbc:	80 38       	cpi	r24, 0x80	; 128
    cfbe:	91 05       	cpc	r25, r1
    cfc0:	3c f4       	brge	.+14     	; 0xcfd0 <_ZN10class_Wave12SoundProcessEv+0xe4>
    cfc2:	81 38       	cpi	r24, 0x81	; 129
    cfc4:	2f ef       	ldi	r18, 0xFF	; 255
    cfc6:	92 07       	cpc	r25, r18
    cfc8:	2c f4       	brge	.+10     	; 0xcfd4 <_ZN10class_Wave12SoundProcessEv+0xe8>
    cfca:	81 e8       	ldi	r24, 0x81	; 129
    cfcc:	9f ef       	ldi	r25, 0xFF	; 255
    cfce:	02 c0       	rjmp	.+4      	; 0xcfd4 <_ZN10class_Wave12SoundProcessEv+0xe8>
    cfd0:	8f e7       	ldi	r24, 0x7F	; 127
    cfd2:	90 e0       	ldi	r25, 0x00	; 0
    cfd4:	81 58       	subi	r24, 0x81	; 129
    cfd6:	83 bd       	out	0x23, r24	; 35
    cfd8:	e0 91 5f 09 	lds	r30, 0x095F	; 0x80095f <_Wave+0xd1>
    cfdc:	f0 91 60 09 	lds	r31, 0x0960	; 0x800960 <_Wave+0xd2>
    cfe0:	30 97       	sbiw	r30, 0x00	; 0
    cfe2:	21 f0       	breq	.+8      	; 0xcfec <_ZN10class_Wave12SoundProcessEv+0x100>
    cfe4:	df 91       	pop	r29
    cfe6:	cf 91       	pop	r28
    cfe8:	1f 91       	pop	r17
    cfea:	09 94       	ijmp
    cfec:	df 91       	pop	r29
    cfee:	cf 91       	pop	r28
    cff0:	1f 91       	pop	r17
    cff2:	08 95       	ret

0000cff4 <_ZN10class_Wave12UnInitializeEv>:
    cff4:	8f b7       	in	r24, 0x3f	; 63
    cff6:	f8 94       	cli
    cff8:	c7 98       	cbi	0x18, 7	; 24
    cffa:	bf 98       	cbi	0x17, 7	; 23
    cffc:	8f bf       	out	0x3f, r24	; 63
    cffe:	08 95       	ret

0000d000 <_ZN10class_WaveD1Ev>:
    d000:	0c 94 fa 67 	jmp	0xcff4	; 0xcff4 <_ZN10class_Wave12UnInitializeEv>

0000d004 <_ZN10class_Wave7PlayingE11WaveChannel>:
    d004:	88 30       	cpi	r24, 0x08	; 8
    d006:	60 f4       	brcc	.+24     	; 0xd020 <_ZN10class_Wave7PlayingE11WaveChannel+0x1c>
    d008:	90 e0       	ldi	r25, 0x00	; 0
    d00a:	01 96       	adiw	r24, 0x01	; 1
    d00c:	29 e1       	ldi	r18, 0x19	; 25
    d00e:	28 9f       	mul	r18, r24
    d010:	f0 01       	movw	r30, r0
    d012:	29 9f       	mul	r18, r25
    d014:	f0 0d       	add	r31, r0
    d016:	11 24       	eor	r1, r1
    d018:	e2 57       	subi	r30, 0x72	; 114
    d01a:	f7 4f       	sbci	r31, 0xF7	; 247
    d01c:	80 81       	ld	r24, Z
    d01e:	08 95       	ret
    d020:	80 e0       	ldi	r24, 0x00	; 0
    d022:	08 95       	ret

0000d024 <_ZN10class_Wave7PrepareEPKh11WaveChannel>:
    d024:	4f 92       	push	r4
    d026:	5f 92       	push	r5
    d028:	6f 92       	push	r6
    d02a:	7f 92       	push	r7
    d02c:	8f 92       	push	r8
    d02e:	9f 92       	push	r9
    d030:	af 92       	push	r10
    d032:	bf 92       	push	r11
    d034:	cf 92       	push	r12
    d036:	df 92       	push	r13
    d038:	ef 92       	push	r14
    d03a:	ff 92       	push	r15
    d03c:	1f 93       	push	r17
    d03e:	cf 93       	push	r28
    d040:	df 93       	push	r29
    d042:	00 d0       	rcall	.+0      	; 0xd044 <_ZN10class_Wave7PrepareEPKh11WaveChannel+0x20>
    d044:	00 d0       	rcall	.+0      	; 0xd046 <_ZN10class_Wave7PrepareEPKh11WaveChannel+0x22>
    d046:	cd b7       	in	r28, 0x3d	; 61
    d048:	de b7       	in	r29, 0x3e	; 62
    d04a:	9c 01       	movw	r18, r24
    d04c:	1f b7       	in	r17, 0x3f	; 63
    d04e:	f8 94       	cli
    d050:	68 30       	cpi	r22, 0x08	; 8
    d052:	08 f0       	brcs	.+2      	; 0xd056 <_ZN10class_Wave7PrepareEPKh11WaveChannel+0x32>
    d054:	3a c0       	rjmp	.+116    	; 0xd0ca <_ZN10class_Wave7PrepareEPKh11WaveChannel+0xa6>
    d056:	fc 01       	movw	r30, r24
    d058:	54 91       	lpm	r21, Z
    d05a:	51 30       	cpi	r21, 0x01	; 1
    d05c:	09 f0       	breq	.+2      	; 0xd060 <_ZN10class_Wave7PrepareEPKh11WaveChannel+0x3c>
    d05e:	35 c0       	rjmp	.+106    	; 0xd0ca <_ZN10class_Wave7PrepareEPKh11WaveChannel+0xa6>
    d060:	fc 01       	movw	r30, r24
    d062:	31 96       	adiw	r30, 0x01	; 1
    d064:	84 91       	lpm	r24, Z
    d066:	31 96       	adiw	r30, 0x01	; 1
    d068:	c5 90       	lpm	r12, Z+
    d06a:	d5 90       	lpm	r13, Z+
    d06c:	e5 90       	lpm	r14, Z+
    d06e:	f4 90       	lpm	r15, Z
    d070:	f9 01       	movw	r30, r18
    d072:	36 96       	adiw	r30, 0x06	; 6
    d074:	85 90       	lpm	r8, Z+
    d076:	95 90       	lpm	r9, Z+
    d078:	a5 90       	lpm	r10, Z+
    d07a:	b4 90       	lpm	r11, Z
    d07c:	f9 01       	movw	r30, r18
    d07e:	3a 96       	adiw	r30, 0x0a	; 10
    d080:	44 91       	lpm	r20, Z
    d082:	31 96       	adiw	r30, 0x01	; 1
    d084:	74 91       	lpm	r23, Z
    d086:	31 96       	adiw	r30, 0x01	; 1
    d088:	45 90       	lpm	r4, Z+
    d08a:	55 90       	lpm	r5, Z+
    d08c:	65 90       	lpm	r6, Z+
    d08e:	74 90       	lpm	r7, Z
    d090:	82 30       	cpi	r24, 0x02	; 2
    d092:	08 f0       	brcs	.+2      	; 0xd096 <_ZN10class_Wave7PrepareEPKh11WaveChannel+0x72>
    d094:	4c c0       	rjmp	.+152    	; 0xd12e <_ZN10class_Wave7PrepareEPKh11WaveChannel+0x10a>
    d096:	d7 01       	movw	r26, r14
    d098:	c6 01       	movw	r24, r12
    d09a:	01 97       	sbiw	r24, 0x01	; 1
    d09c:	a1 09       	sbc	r26, r1
    d09e:	b1 09       	sbc	r27, r1
    d0a0:	84 34       	cpi	r24, 0x44	; 68
    d0a2:	9c 4a       	sbci	r25, 0xAC	; 172
    d0a4:	a1 05       	cpc	r26, r1
    d0a6:	b1 05       	cpc	r27, r1
    d0a8:	80 f4       	brcc	.+32     	; 0xd0ca <_ZN10class_Wave7PrepareEPKh11WaveChannel+0xa6>
    d0aa:	d5 01       	movw	r26, r10
    d0ac:	c4 01       	movw	r24, r8
    d0ae:	01 97       	sbiw	r24, 0x01	; 1
    d0b0:	a1 09       	sbc	r26, r1
    d0b2:	b1 09       	sbc	r27, r1
    d0b4:	88 38       	cpi	r24, 0x88	; 136
    d0b6:	98 45       	sbci	r25, 0x58	; 88
    d0b8:	a1 40       	sbci	r26, 0x01	; 1
    d0ba:	b1 05       	cpc	r27, r1
    d0bc:	30 f4       	brcc	.+12     	; 0xd0ca <_ZN10class_Wave7PrepareEPKh11WaveChannel+0xa6>
    d0be:	44 23       	and	r20, r20
    d0c0:	21 f0       	breq	.+8      	; 0xd0ca <_ZN10class_Wave7PrepareEPKh11WaveChannel+0xa6>
    d0c2:	77 23       	and	r23, r23
    d0c4:	11 f0       	breq	.+4      	; 0xd0ca <_ZN10class_Wave7PrepareEPKh11WaveChannel+0xa6>
    d0c6:	78 30       	cpi	r23, 0x08	; 8
    d0c8:	11 f0       	breq	.+4      	; 0xd0ce <_ZN10class_Wave7PrepareEPKh11WaveChannel+0xaa>
    d0ca:	1f bf       	out	0x3f, r17	; 63
    d0cc:	30 c0       	rjmp	.+96     	; 0xd12e <_ZN10class_Wave7PrepareEPKh11WaveChannel+0x10a>
    d0ce:	20 5f       	subi	r18, 0xF0	; 240
    d0d0:	3f 4f       	sbci	r19, 0xFF	; 255
    d0d2:	f9 e1       	ldi	r31, 0x19	; 25
    d0d4:	6f 9f       	mul	r22, r31
    d0d6:	d0 01       	movw	r26, r0
    d0d8:	11 24       	eor	r1, r1
    d0da:	a2 57       	subi	r26, 0x72	; 114
    d0dc:	b7 4f       	sbci	r27, 0xF7	; 247
    d0de:	18 96       	adiw	r26, 0x08	; 8
    d0e0:	cd 92       	st	X+, r12
    d0e2:	dd 92       	st	X+, r13
    d0e4:	ed 92       	st	X+, r14
    d0e6:	fc 92       	st	X, r15
    d0e8:	1b 97       	sbiw	r26, 0x0b	; 11
    d0ea:	1c 96       	adiw	r26, 0x0c	; 12
    d0ec:	8d 92       	st	X+, r8
    d0ee:	9d 92       	st	X+, r9
    d0f0:	ad 92       	st	X+, r10
    d0f2:	bc 92       	st	X, r11
    d0f4:	1f 97       	sbiw	r26, 0x0f	; 15
    d0f6:	50 96       	adiw	r26, 0x10	; 16
    d0f8:	4c 93       	st	X, r20
    d0fa:	50 97       	sbiw	r26, 0x10	; 16
    d0fc:	54 96       	adiw	r26, 0x14	; 20
    d0fe:	4d 92       	st	X+, r4
    d100:	5d 92       	st	X+, r5
    d102:	6d 92       	st	X+, r6
    d104:	7c 92       	st	X, r7
    d106:	57 97       	sbiw	r26, 0x17	; 23
    d108:	14 96       	adiw	r26, 0x04	; 4
    d10a:	4d 92       	st	X+, r4
    d10c:	5d 92       	st	X+, r5
    d10e:	6d 92       	st	X+, r6
    d110:	7c 92       	st	X, r7
    d112:	17 97       	sbiw	r26, 0x07	; 7
    d114:	13 96       	adiw	r26, 0x03	; 3
    d116:	3c 93       	st	X, r19
    d118:	2e 93       	st	-X, r18
    d11a:	12 97       	sbiw	r26, 0x02	; 2
    d11c:	53 96       	adiw	r26, 0x13	; 19
    d11e:	3c 93       	st	X, r19
    d120:	2e 93       	st	-X, r18
    d122:	52 97       	sbiw	r26, 0x12	; 18
    d124:	58 96       	adiw	r26, 0x18	; 24
    d126:	5c 93       	st	X, r21
    d128:	1f bf       	out	0x3f, r17	; 63
    d12a:	81 e0       	ldi	r24, 0x01	; 1
    d12c:	01 c0       	rjmp	.+2      	; 0xd130 <_ZN10class_Wave7PrepareEPKh11WaveChannel+0x10c>
    d12e:	80 e0       	ldi	r24, 0x00	; 0
    d130:	0f 90       	pop	r0
    d132:	0f 90       	pop	r0
    d134:	0f 90       	pop	r0
    d136:	0f 90       	pop	r0
    d138:	df 91       	pop	r29
    d13a:	cf 91       	pop	r28
    d13c:	1f 91       	pop	r17
    d13e:	ff 90       	pop	r15
    d140:	ef 90       	pop	r14
    d142:	df 90       	pop	r13
    d144:	cf 90       	pop	r12
    d146:	bf 90       	pop	r11
    d148:	af 90       	pop	r10
    d14a:	9f 90       	pop	r9
    d14c:	8f 90       	pop	r8
    d14e:	7f 90       	pop	r7
    d150:	6f 90       	pop	r6
    d152:	5f 90       	pop	r5
    d154:	4f 90       	pop	r4
    d156:	08 95       	ret

0000d158 <_ZN10class_Wave4PlayE11WaveChannel8PlayMode>:
    d158:	cf 92       	push	r12
    d15a:	df 92       	push	r13
    d15c:	ef 92       	push	r14
    d15e:	ff 92       	push	r15
    d160:	3f b7       	in	r19, 0x3f	; 63
    d162:	88 30       	cpi	r24, 0x08	; 8
    d164:	58 f5       	brcc	.+86     	; 0xd1bc <_ZN10class_Wave4PlayE11WaveChannel8PlayMode+0x64>
    d166:	90 e0       	ldi	r25, 0x00	; 0
    d168:	29 e1       	ldi	r18, 0x19	; 25
    d16a:	28 9f       	mul	r18, r24
    d16c:	f0 01       	movw	r30, r0
    d16e:	29 9f       	mul	r18, r25
    d170:	f0 0d       	add	r31, r0
    d172:	11 24       	eor	r1, r1
    d174:	e2 57       	subi	r30, 0x72	; 114
    d176:	f7 4f       	sbci	r31, 0xF7	; 247
    d178:	40 8d       	ldd	r20, Z+24	; 0x18
    d17a:	44 23       	and	r20, r20
    d17c:	f9 f0       	breq	.+62     	; 0xd1bc <_ZN10class_Wave4PlayE11WaveChannel8PlayMode+0x64>
    d17e:	f8 94       	cli
    d180:	42 81       	ldd	r20, Z+2	; 0x02
    d182:	53 81       	ldd	r21, Z+3	; 0x03
    d184:	53 8b       	std	Z+19, r21	; 0x13
    d186:	42 8b       	std	Z+18, r20	; 0x12
    d188:	c4 80       	ldd	r12, Z+4	; 0x04
    d18a:	d5 80       	ldd	r13, Z+5	; 0x05
    d18c:	e6 80       	ldd	r14, Z+6	; 0x06
    d18e:	f7 80       	ldd	r15, Z+7	; 0x07
    d190:	c4 8a       	std	Z+20, r12	; 0x14
    d192:	d5 8a       	std	Z+21, r13	; 0x15
    d194:	e6 8a       	std	Z+22, r14	; 0x16
    d196:	f7 8a       	std	Z+23, r15	; 0x17
    d198:	01 96       	adiw	r24, 0x01	; 1
    d19a:	28 9f       	mul	r18, r24
    d19c:	d0 01       	movw	r26, r0
    d19e:	29 9f       	mul	r18, r25
    d1a0:	b0 0d       	add	r27, r0
    d1a2:	11 24       	eor	r1, r1
    d1a4:	a2 57       	subi	r26, 0x72	; 114
    d1a6:	b7 4f       	sbci	r27, 0xF7	; 247
    d1a8:	81 e0       	ldi	r24, 0x01	; 1
    d1aa:	8c 93       	st	X, r24
    d1ac:	66 23       	and	r22, r22
    d1ae:	21 f0       	breq	.+8      	; 0xd1b8 <_ZN10class_Wave4PlayE11WaveChannel8PlayMode+0x60>
    d1b0:	61 30       	cpi	r22, 0x01	; 1
    d1b2:	19 f4       	brne	.+6      	; 0xd1ba <_ZN10class_Wave4PlayE11WaveChannel8PlayMode+0x62>
    d1b4:	62 8f       	std	Z+26, r22	; 0x1a
    d1b6:	01 c0       	rjmp	.+2      	; 0xd1ba <_ZN10class_Wave4PlayE11WaveChannel8PlayMode+0x62>
    d1b8:	12 8e       	std	Z+26, r1	; 0x1a
    d1ba:	3f bf       	out	0x3f, r19	; 63
    d1bc:	ff 90       	pop	r15
    d1be:	ef 90       	pop	r14
    d1c0:	df 90       	pop	r13
    d1c2:	cf 90       	pop	r12
    d1c4:	08 95       	ret

0000d1c6 <_ZN10class_Wave9UnprepareE11WaveChannel>:
    d1c6:	3f b7       	in	r19, 0x3f	; 63
    d1c8:	88 30       	cpi	r24, 0x08	; 8
    d1ca:	a8 f4       	brcc	.+42     	; 0xd1f6 <_ZN10class_Wave9UnprepareE11WaveChannel+0x30>
    d1cc:	f8 94       	cli
    d1ce:	90 e0       	ldi	r25, 0x00	; 0
    d1d0:	29 e1       	ldi	r18, 0x19	; 25
    d1d2:	28 9f       	mul	r18, r24
    d1d4:	f0 01       	movw	r30, r0
    d1d6:	29 9f       	mul	r18, r25
    d1d8:	f0 0d       	add	r31, r0
    d1da:	11 24       	eor	r1, r1
    d1dc:	e2 57       	subi	r30, 0x72	; 114
    d1de:	f7 4f       	sbci	r31, 0xF7	; 247
    d1e0:	10 8e       	std	Z+24, r1	; 0x18
    d1e2:	01 96       	adiw	r24, 0x01	; 1
    d1e4:	28 9f       	mul	r18, r24
    d1e6:	f0 01       	movw	r30, r0
    d1e8:	29 9f       	mul	r18, r25
    d1ea:	f0 0d       	add	r31, r0
    d1ec:	11 24       	eor	r1, r1
    d1ee:	e2 57       	subi	r30, 0x72	; 114
    d1f0:	f7 4f       	sbci	r31, 0xF7	; 247
    d1f2:	10 82       	st	Z, r1
    d1f4:	3f bf       	out	0x3f, r19	; 63
    d1f6:	08 95       	ret

0000d1f8 <_ZN10class_Wave9SetVolumeEi>:
    d1f8:	97 fd       	sbrc	r25, 7
    d1fa:	06 c0       	rjmp	.+12     	; 0xd208 <_ZN10class_Wave9SetVolumeEi+0x10>
    d1fc:	84 36       	cpi	r24, 0x64	; 100
    d1fe:	91 05       	cpc	r25, r1
    d200:	2c f0       	brlt	.+10     	; 0xd20c <_ZN10class_Wave9SetVolumeEi+0x14>
    d202:	84 e6       	ldi	r24, 0x64	; 100
    d204:	90 e0       	ldi	r25, 0x00	; 0
    d206:	02 c0       	rjmp	.+4      	; 0xd20c <_ZN10class_Wave9SetVolumeEi+0x14>
    d208:	80 e0       	ldi	r24, 0x00	; 0
    d20a:	90 e0       	ldi	r25, 0x00	; 0
    d20c:	23 e0       	ldi	r18, 0x03	; 3
    d20e:	88 0f       	add	r24, r24
    d210:	99 1f       	adc	r25, r25
    d212:	2a 95       	dec	r18
    d214:	e1 f7       	brne	.-8      	; 0xd20e <_ZN10class_Wave9SetVolumeEi+0x16>
    d216:	64 e6       	ldi	r22, 0x64	; 100
    d218:	70 e0       	ldi	r23, 0x00	; 0
    d21a:	0e 94 78 69 	call	0xd2f0	; 0xd2f0 <__divmodhi4>
    d21e:	70 93 8f 08 	sts	0x088F, r23	; 0x80088f <_Wave+0x1>
    d222:	60 93 8e 08 	sts	0x088E, r22	; 0x80088e <_Wave>
    d226:	08 95       	ret

0000d228 <_ZN10class_Wave10InitializeEv>:
    d228:	cf 93       	push	r28
    d22a:	80 91 8d 08 	lds	r24, 0x088D	; 0x80088d <_ZZN10class_Wave10InitializeEvE10initialize>
    d22e:	81 11       	cpse	r24, r1
    d230:	28 c0       	rjmp	.+80     	; 0xd282 <_ZN10class_Wave10InitializeEv+0x5a>
    d232:	81 e0       	ldi	r24, 0x01	; 1
    d234:	80 93 8d 08 	sts	0x088D, r24	; 0x80088d <_ZZN10class_Wave10InitializeEvE10initialize>
    d238:	cf b7       	in	r28, 0x3f	; 63
    d23a:	f8 94       	cli
    d23c:	c7 9a       	sbi	0x18, 7	; 24
    d23e:	bf 9a       	sbi	0x17, 7	; 23
    d240:	89 e6       	ldi	r24, 0x69	; 105
    d242:	85 bd       	out	0x25, r24	; 37
    d244:	8f e7       	ldi	r24, 0x7F	; 127
    d246:	83 bd       	out	0x23, r24	; 35
    d248:	89 e1       	ldi	r24, 0x19	; 25
    d24a:	90 e0       	ldi	r25, 0x00	; 0
    d24c:	0e 94 fc 68 	call	0xd1f8	; 0xd1f8 <_ZN10class_Wave9SetVolumeEi>
    d250:	88 e0       	ldi	r24, 0x08	; 8
    d252:	80 93 5a 09 	sts	0x095A, r24	; 0x80095a <_Wave+0xcc>
    d256:	10 92 5b 09 	sts	0x095B, r1	; 0x80095b <_Wave+0xcd>
    d25a:	10 92 59 09 	sts	0x0959, r1	; 0x800959 <_Wave+0xcb>
    d25e:	10 92 58 09 	sts	0x0958, r1	; 0x800958 <_Wave+0xca>
    d262:	60 e0       	ldi	r22, 0x00	; 0
    d264:	8e e5       	ldi	r24, 0x5E	; 94
    d266:	99 e0       	ldi	r25, 0x09	; 9
    d268:	0e 94 8c 66 	call	0xcd18	; 0xcd18 <_ZN11class_Timer17getHandleCallBackEa>
    d26c:	90 93 60 09 	sts	0x0960, r25	; 0x800960 <_Wave+0xd2>
    d270:	80 93 5f 09 	sts	0x095F, r24	; 0x80095f <_Wave+0xd1>
    d274:	66 e7       	ldi	r22, 0x76	; 118
    d276:	77 e6       	ldi	r23, 0x67	; 103
    d278:	8e e5       	ldi	r24, 0x5E	; 94
    d27a:	99 e0       	ldi	r25, 0x09	; 9
    d27c:	0e 94 87 66 	call	0xcd0e	; 0xcd0e <_ZN11class_Timer17setHandleCallBackEPFvvE>
    d280:	cf bf       	out	0x3f, r28	; 63
    d282:	cf 91       	pop	r28
    d284:	08 95       	ret

0000d286 <_ZN10class_WaveC1Ev>:
    d286:	0c 94 14 69 	jmp	0xd228	; 0xd228 <_ZN10class_Wave10InitializeEv>

0000d28a <_ZN10class_Wave10setToneGenEjjh>:
    d28a:	cb 01       	movw	r24, r22
    d28c:	a0 e0       	ldi	r26, 0x00	; 0
    d28e:	b0 e0       	ldi	r27, 0x00	; 0
    d290:	77 27       	eor	r23, r23
    d292:	66 27       	eor	r22, r22
    d294:	28 e8       	ldi	r18, 0x88	; 136
    d296:	33 e1       	ldi	r19, 0x13	; 19
    d298:	40 e0       	ldi	r20, 0x00	; 0
    d29a:	50 e0       	ldi	r21, 0x00	; 0
    d29c:	0e 94 ae 69 	call	0xd35c	; 0xd35c <__divmodsi4>
    d2a0:	30 93 59 09 	sts	0x0959, r19	; 0x800959 <_Wave+0xcb>
    d2a4:	20 93 58 09 	sts	0x0958, r18	; 0x800958 <_Wave+0xca>
    d2a8:	08 95       	ret

0000d2aa <_GLOBAL__sub_I__Wave>:
    d2aa:	84 e0       	ldi	r24, 0x04	; 4
    d2ac:	90 e0       	ldi	r25, 0x00	; 0
    d2ae:	90 93 8f 08 	sts	0x088F, r25	; 0x80088f <_Wave+0x1>
    d2b2:	80 93 8e 08 	sts	0x088E, r24	; 0x80088e <_Wave>
    d2b6:	88 ec       	ldi	r24, 0xC8	; 200
    d2b8:	e0 e9       	ldi	r30, 0x90	; 144
    d2ba:	f8 e0       	ldi	r31, 0x08	; 8
    d2bc:	df 01       	movw	r26, r30
    d2be:	1d 92       	st	X+, r1
    d2c0:	8a 95       	dec	r24
    d2c2:	e9 f7       	brne	.-6      	; 0xd2be <_GLOBAL__sub_I__Wave+0x14>
    d2c4:	10 92 5d 09 	sts	0x095D, r1	; 0x80095d <_Wave+0xcf>
    d2c8:	10 92 5c 09 	sts	0x095C, r1	; 0x80095c <_Wave+0xce>
    d2cc:	8e e5       	ldi	r24, 0x5E	; 94
    d2ce:	99 e0       	ldi	r25, 0x09	; 9
    d2d0:	0e 94 c7 65 	call	0xcb8e	; 0xcb8e <_ZN11class_TimerC1Ev>
    d2d4:	10 92 60 09 	sts	0x0960, r1	; 0x800960 <_Wave+0xd2>
    d2d8:	10 92 5f 09 	sts	0x095F, r1	; 0x80095f <_Wave+0xd1>
    d2dc:	08 95       	ret

0000d2de <_GLOBAL__sub_D__Wave>:
    d2de:	8e e5       	ldi	r24, 0x5E	; 94
    d2e0:	99 e0       	ldi	r25, 0x09	; 9
    d2e2:	0c 94 d0 65 	jmp	0xcba0	; 0xcba0 <_ZN11class_TimerD1Ev>

0000d2e6 <main>:


int main()
{	
	//Enable Global Interrupts
	sei();
    d2e6:	78 94       	sei
	//main game loop

	for(;;)
	{
		TEAD_MainGame(false);
    d2e8:	80 e0       	ldi	r24, 0x00	; 0
    d2ea:	0e 94 6c 57 	call	0xaed8	; 0xaed8 <_Z13TEAD_MainGameb>
    d2ee:	fc cf       	rjmp	.-8      	; 0xd2e8 <main+0x2>

0000d2f0 <__divmodhi4>:
    d2f0:	97 fb       	bst	r25, 7
    d2f2:	07 2e       	mov	r0, r23
    d2f4:	16 f4       	brtc	.+4      	; 0xd2fa <__divmodhi4+0xa>
    d2f6:	00 94       	com	r0
    d2f8:	07 d0       	rcall	.+14     	; 0xd308 <__divmodhi4_neg1>
    d2fa:	77 fd       	sbrc	r23, 7
    d2fc:	09 d0       	rcall	.+18     	; 0xd310 <__divmodhi4_neg2>
    d2fe:	0e 94 e7 69 	call	0xd3ce	; 0xd3ce <__udivmodhi4>
    d302:	07 fc       	sbrc	r0, 7
    d304:	05 d0       	rcall	.+10     	; 0xd310 <__divmodhi4_neg2>
    d306:	3e f4       	brtc	.+14     	; 0xd316 <__divmodhi4_exit>

0000d308 <__divmodhi4_neg1>:
    d308:	90 95       	com	r25
    d30a:	81 95       	neg	r24
    d30c:	9f 4f       	sbci	r25, 0xFF	; 255
    d30e:	08 95       	ret

0000d310 <__divmodhi4_neg2>:
    d310:	70 95       	com	r23
    d312:	61 95       	neg	r22
    d314:	7f 4f       	sbci	r23, 0xFF	; 255

0000d316 <__divmodhi4_exit>:
    d316:	08 95       	ret

0000d318 <__udivmodsi4>:
    d318:	a1 e2       	ldi	r26, 0x21	; 33
    d31a:	1a 2e       	mov	r1, r26
    d31c:	aa 1b       	sub	r26, r26
    d31e:	bb 1b       	sub	r27, r27
    d320:	fd 01       	movw	r30, r26
    d322:	0d c0       	rjmp	.+26     	; 0xd33e <__udivmodsi4_ep>

0000d324 <__udivmodsi4_loop>:
    d324:	aa 1f       	adc	r26, r26
    d326:	bb 1f       	adc	r27, r27
    d328:	ee 1f       	adc	r30, r30
    d32a:	ff 1f       	adc	r31, r31
    d32c:	a2 17       	cp	r26, r18
    d32e:	b3 07       	cpc	r27, r19
    d330:	e4 07       	cpc	r30, r20
    d332:	f5 07       	cpc	r31, r21
    d334:	20 f0       	brcs	.+8      	; 0xd33e <__udivmodsi4_ep>
    d336:	a2 1b       	sub	r26, r18
    d338:	b3 0b       	sbc	r27, r19
    d33a:	e4 0b       	sbc	r30, r20
    d33c:	f5 0b       	sbc	r31, r21

0000d33e <__udivmodsi4_ep>:
    d33e:	66 1f       	adc	r22, r22
    d340:	77 1f       	adc	r23, r23
    d342:	88 1f       	adc	r24, r24
    d344:	99 1f       	adc	r25, r25
    d346:	1a 94       	dec	r1
    d348:	69 f7       	brne	.-38     	; 0xd324 <__udivmodsi4_loop>
    d34a:	60 95       	com	r22
    d34c:	70 95       	com	r23
    d34e:	80 95       	com	r24
    d350:	90 95       	com	r25
    d352:	9b 01       	movw	r18, r22
    d354:	ac 01       	movw	r20, r24
    d356:	bd 01       	movw	r22, r26
    d358:	cf 01       	movw	r24, r30
    d35a:	08 95       	ret

0000d35c <__divmodsi4>:
    d35c:	05 2e       	mov	r0, r21
    d35e:	97 fb       	bst	r25, 7
    d360:	1e f4       	brtc	.+6      	; 0xd368 <__divmodsi4+0xc>
    d362:	00 94       	com	r0
    d364:	0e 94 c5 69 	call	0xd38a	; 0xd38a <__negsi2>
    d368:	57 fd       	sbrc	r21, 7
    d36a:	07 d0       	rcall	.+14     	; 0xd37a <__divmodsi4_neg2>
    d36c:	0e 94 8c 69 	call	0xd318	; 0xd318 <__udivmodsi4>
    d370:	07 fc       	sbrc	r0, 7
    d372:	03 d0       	rcall	.+6      	; 0xd37a <__divmodsi4_neg2>
    d374:	4e f4       	brtc	.+18     	; 0xd388 <__divmodsi4_exit>
    d376:	0c 94 c5 69 	jmp	0xd38a	; 0xd38a <__negsi2>

0000d37a <__divmodsi4_neg2>:
    d37a:	50 95       	com	r21
    d37c:	40 95       	com	r20
    d37e:	30 95       	com	r19
    d380:	21 95       	neg	r18
    d382:	3f 4f       	sbci	r19, 0xFF	; 255
    d384:	4f 4f       	sbci	r20, 0xFF	; 255
    d386:	5f 4f       	sbci	r21, 0xFF	; 255

0000d388 <__divmodsi4_exit>:
    d388:	08 95       	ret

0000d38a <__negsi2>:
    d38a:	90 95       	com	r25
    d38c:	80 95       	com	r24
    d38e:	70 95       	com	r23
    d390:	61 95       	neg	r22
    d392:	7f 4f       	sbci	r23, 0xFF	; 255
    d394:	8f 4f       	sbci	r24, 0xFF	; 255
    d396:	9f 4f       	sbci	r25, 0xFF	; 255
    d398:	08 95       	ret

0000d39a <__umulhisi3>:
    d39a:	a2 9f       	mul	r26, r18
    d39c:	b0 01       	movw	r22, r0
    d39e:	b3 9f       	mul	r27, r19
    d3a0:	c0 01       	movw	r24, r0
    d3a2:	a3 9f       	mul	r26, r19
    d3a4:	70 0d       	add	r23, r0
    d3a6:	81 1d       	adc	r24, r1
    d3a8:	11 24       	eor	r1, r1
    d3aa:	91 1d       	adc	r25, r1
    d3ac:	b2 9f       	mul	r27, r18
    d3ae:	70 0d       	add	r23, r0
    d3b0:	81 1d       	adc	r24, r1
    d3b2:	11 24       	eor	r1, r1
    d3b4:	91 1d       	adc	r25, r1
    d3b6:	08 95       	ret

0000d3b8 <__muluhisi3>:
    d3b8:	0e 94 cd 69 	call	0xd39a	; 0xd39a <__umulhisi3>
    d3bc:	a5 9f       	mul	r26, r21
    d3be:	90 0d       	add	r25, r0
    d3c0:	b4 9f       	mul	r27, r20
    d3c2:	90 0d       	add	r25, r0
    d3c4:	a4 9f       	mul	r26, r20
    d3c6:	80 0d       	add	r24, r0
    d3c8:	91 1d       	adc	r25, r1
    d3ca:	11 24       	eor	r1, r1
    d3cc:	08 95       	ret

0000d3ce <__udivmodhi4>:
    d3ce:	aa 1b       	sub	r26, r26
    d3d0:	bb 1b       	sub	r27, r27
    d3d2:	51 e1       	ldi	r21, 0x11	; 17
    d3d4:	07 c0       	rjmp	.+14     	; 0xd3e4 <__udivmodhi4_ep>

0000d3d6 <__udivmodhi4_loop>:
    d3d6:	aa 1f       	adc	r26, r26
    d3d8:	bb 1f       	adc	r27, r27
    d3da:	a6 17       	cp	r26, r22
    d3dc:	b7 07       	cpc	r27, r23
    d3de:	10 f0       	brcs	.+4      	; 0xd3e4 <__udivmodhi4_ep>
    d3e0:	a6 1b       	sub	r26, r22
    d3e2:	b7 0b       	sbc	r27, r23

0000d3e4 <__udivmodhi4_ep>:
    d3e4:	88 1f       	adc	r24, r24
    d3e6:	99 1f       	adc	r25, r25
    d3e8:	5a 95       	dec	r21
    d3ea:	a9 f7       	brne	.-22     	; 0xd3d6 <__udivmodhi4_loop>
    d3ec:	80 95       	com	r24
    d3ee:	90 95       	com	r25
    d3f0:	bc 01       	movw	r22, r24
    d3f2:	cd 01       	movw	r24, r26
    d3f4:	08 95       	ret

0000d3f6 <__tablejump2__>:
    d3f6:	ee 0f       	add	r30, r30
    d3f8:	ff 1f       	adc	r31, r31
    d3fa:	05 90       	lpm	r0, Z+
    d3fc:	f4 91       	lpm	r31, Z
    d3fe:	e0 2d       	mov	r30, r0
    d400:	09 94       	ijmp

0000d402 <do_rand>:
    d402:	8f 92       	push	r8
    d404:	9f 92       	push	r9
    d406:	af 92       	push	r10
    d408:	bf 92       	push	r11
    d40a:	cf 92       	push	r12
    d40c:	df 92       	push	r13
    d40e:	ef 92       	push	r14
    d410:	ff 92       	push	r15
    d412:	cf 93       	push	r28
    d414:	df 93       	push	r29
    d416:	ec 01       	movw	r28, r24
    d418:	68 81       	ld	r22, Y
    d41a:	79 81       	ldd	r23, Y+1	; 0x01
    d41c:	8a 81       	ldd	r24, Y+2	; 0x02
    d41e:	9b 81       	ldd	r25, Y+3	; 0x03
    d420:	61 15       	cp	r22, r1
    d422:	71 05       	cpc	r23, r1
    d424:	81 05       	cpc	r24, r1
    d426:	91 05       	cpc	r25, r1
    d428:	21 f4       	brne	.+8      	; 0xd432 <do_rand+0x30>
    d42a:	64 e2       	ldi	r22, 0x24	; 36
    d42c:	79 ed       	ldi	r23, 0xD9	; 217
    d42e:	8b e5       	ldi	r24, 0x5B	; 91
    d430:	97 e0       	ldi	r25, 0x07	; 7
    d432:	2d e1       	ldi	r18, 0x1D	; 29
    d434:	33 ef       	ldi	r19, 0xF3	; 243
    d436:	41 e0       	ldi	r20, 0x01	; 1
    d438:	50 e0       	ldi	r21, 0x00	; 0
    d43a:	0e 94 ae 69 	call	0xd35c	; 0xd35c <__divmodsi4>
    d43e:	49 01       	movw	r8, r18
    d440:	5a 01       	movw	r10, r20
    d442:	9b 01       	movw	r18, r22
    d444:	ac 01       	movw	r20, r24
    d446:	a7 ea       	ldi	r26, 0xA7	; 167
    d448:	b1 e4       	ldi	r27, 0x41	; 65
    d44a:	0e 94 dc 69 	call	0xd3b8	; 0xd3b8 <__muluhisi3>
    d44e:	6b 01       	movw	r12, r22
    d450:	7c 01       	movw	r14, r24
    d452:	ac ee       	ldi	r26, 0xEC	; 236
    d454:	b4 ef       	ldi	r27, 0xF4	; 244
    d456:	a5 01       	movw	r20, r10
    d458:	94 01       	movw	r18, r8
    d45a:	0e 94 37 6d 	call	0xda6e	; 0xda6e <__mulohisi3>
    d45e:	dc 01       	movw	r26, r24
    d460:	cb 01       	movw	r24, r22
    d462:	8c 0d       	add	r24, r12
    d464:	9d 1d       	adc	r25, r13
    d466:	ae 1d       	adc	r26, r14
    d468:	bf 1d       	adc	r27, r15
    d46a:	b7 ff       	sbrs	r27, 7
    d46c:	03 c0       	rjmp	.+6      	; 0xd474 <do_rand+0x72>
    d46e:	01 97       	sbiw	r24, 0x01	; 1
    d470:	a1 09       	sbc	r26, r1
    d472:	b0 48       	sbci	r27, 0x80	; 128
    d474:	88 83       	st	Y, r24
    d476:	99 83       	std	Y+1, r25	; 0x01
    d478:	aa 83       	std	Y+2, r26	; 0x02
    d47a:	bb 83       	std	Y+3, r27	; 0x03
    d47c:	9f 77       	andi	r25, 0x7F	; 127
    d47e:	df 91       	pop	r29
    d480:	cf 91       	pop	r28
    d482:	ff 90       	pop	r15
    d484:	ef 90       	pop	r14
    d486:	df 90       	pop	r13
    d488:	cf 90       	pop	r12
    d48a:	bf 90       	pop	r11
    d48c:	af 90       	pop	r10
    d48e:	9f 90       	pop	r9
    d490:	8f 90       	pop	r8
    d492:	08 95       	ret

0000d494 <rand_r>:
    d494:	0e 94 01 6a 	call	0xd402	; 0xd402 <do_rand>
    d498:	08 95       	ret

0000d49a <rand>:
    d49a:	80 e0       	ldi	r24, 0x00	; 0
    d49c:	91 e0       	ldi	r25, 0x01	; 1
    d49e:	0e 94 01 6a 	call	0xd402	; 0xd402 <do_rand>
    d4a2:	08 95       	ret

0000d4a4 <srand>:
    d4a4:	a0 e0       	ldi	r26, 0x00	; 0
    d4a6:	b0 e0       	ldi	r27, 0x00	; 0
    d4a8:	80 93 00 01 	sts	0x0100, r24	; 0x800100 <__data_start>
    d4ac:	90 93 01 01 	sts	0x0101, r25	; 0x800101 <__data_start+0x1>
    d4b0:	a0 93 02 01 	sts	0x0102, r26	; 0x800102 <__data_start+0x2>
    d4b4:	b0 93 03 01 	sts	0x0103, r27	; 0x800103 <__data_start+0x3>
    d4b8:	08 95       	ret

0000d4ba <memset>:
    d4ba:	dc 01       	movw	r26, r24
    d4bc:	01 c0       	rjmp	.+2      	; 0xd4c0 <memset+0x6>
    d4be:	6d 93       	st	X+, r22
    d4c0:	41 50       	subi	r20, 0x01	; 1
    d4c2:	50 40       	sbci	r21, 0x00	; 0
    d4c4:	e0 f7       	brcc	.-8      	; 0xd4be <memset+0x4>
    d4c6:	08 95       	ret

0000d4c8 <strcpy>:
    d4c8:	fb 01       	movw	r30, r22
    d4ca:	dc 01       	movw	r26, r24
    d4cc:	01 90       	ld	r0, Z+
    d4ce:	0d 92       	st	X+, r0
    d4d0:	00 20       	and	r0, r0
    d4d2:	e1 f7       	brne	.-8      	; 0xd4cc <strcpy+0x4>
    d4d4:	08 95       	ret

0000d4d6 <sprintf>:
    d4d6:	ae e0       	ldi	r26, 0x0E	; 14
    d4d8:	b0 e0       	ldi	r27, 0x00	; 0
    d4da:	e1 e7       	ldi	r30, 0x71	; 113
    d4dc:	fa e6       	ldi	r31, 0x6A	; 106
    d4de:	0c 94 4a 6d 	jmp	0xda94	; 0xda94 <__prologue_saves__+0x1c>
    d4e2:	0d 89       	ldd	r16, Y+21	; 0x15
    d4e4:	1e 89       	ldd	r17, Y+22	; 0x16
    d4e6:	86 e0       	ldi	r24, 0x06	; 6
    d4e8:	8c 83       	std	Y+4, r24	; 0x04
    d4ea:	1a 83       	std	Y+2, r17	; 0x02
    d4ec:	09 83       	std	Y+1, r16	; 0x01
    d4ee:	8f ef       	ldi	r24, 0xFF	; 255
    d4f0:	9f e7       	ldi	r25, 0x7F	; 127
    d4f2:	9e 83       	std	Y+6, r25	; 0x06
    d4f4:	8d 83       	std	Y+5, r24	; 0x05
    d4f6:	ae 01       	movw	r20, r28
    d4f8:	47 5e       	subi	r20, 0xE7	; 231
    d4fa:	5f 4f       	sbci	r21, 0xFF	; 255
    d4fc:	6f 89       	ldd	r22, Y+23	; 0x17
    d4fe:	78 8d       	ldd	r23, Y+24	; 0x18
    d500:	ce 01       	movw	r24, r28
    d502:	01 96       	adiw	r24, 0x01	; 1
    d504:	0e 94 8d 6a 	call	0xd51a	; 0xd51a <vfprintf>
    d508:	ef 81       	ldd	r30, Y+7	; 0x07
    d50a:	f8 85       	ldd	r31, Y+8	; 0x08
    d50c:	e0 0f       	add	r30, r16
    d50e:	f1 1f       	adc	r31, r17
    d510:	10 82       	st	Z, r1
    d512:	2e 96       	adiw	r28, 0x0e	; 14
    d514:	e4 e0       	ldi	r30, 0x04	; 4
    d516:	0c 94 66 6d 	jmp	0xdacc	; 0xdacc <__epilogue_restores__+0x1c>

0000d51a <vfprintf>:
    d51a:	ab e0       	ldi	r26, 0x0B	; 11
    d51c:	b0 e0       	ldi	r27, 0x00	; 0
    d51e:	e3 e9       	ldi	r30, 0x93	; 147
    d520:	fa e6       	ldi	r31, 0x6A	; 106
    d522:	0c 94 3c 6d 	jmp	0xda78	; 0xda78 <__prologue_saves__>
    d526:	6c 01       	movw	r12, r24
    d528:	7b 01       	movw	r14, r22
    d52a:	8a 01       	movw	r16, r20
    d52c:	fc 01       	movw	r30, r24
    d52e:	17 82       	std	Z+7, r1	; 0x07
    d530:	16 82       	std	Z+6, r1	; 0x06
    d532:	83 81       	ldd	r24, Z+3	; 0x03
    d534:	81 ff       	sbrs	r24, 1
    d536:	cc c1       	rjmp	.+920    	; 0xd8d0 <vfprintf+0x3b6>
    d538:	ce 01       	movw	r24, r28
    d53a:	01 96       	adiw	r24, 0x01	; 1
    d53c:	3c 01       	movw	r6, r24
    d53e:	f6 01       	movw	r30, r12
    d540:	93 81       	ldd	r25, Z+3	; 0x03
    d542:	f7 01       	movw	r30, r14
    d544:	93 fd       	sbrc	r25, 3
    d546:	85 91       	lpm	r24, Z+
    d548:	93 ff       	sbrs	r25, 3
    d54a:	81 91       	ld	r24, Z+
    d54c:	7f 01       	movw	r14, r30
    d54e:	88 23       	and	r24, r24
    d550:	09 f4       	brne	.+2      	; 0xd554 <vfprintf+0x3a>
    d552:	ba c1       	rjmp	.+884    	; 0xd8c8 <vfprintf+0x3ae>
    d554:	85 32       	cpi	r24, 0x25	; 37
    d556:	39 f4       	brne	.+14     	; 0xd566 <vfprintf+0x4c>
    d558:	93 fd       	sbrc	r25, 3
    d55a:	85 91       	lpm	r24, Z+
    d55c:	93 ff       	sbrs	r25, 3
    d55e:	81 91       	ld	r24, Z+
    d560:	7f 01       	movw	r14, r30
    d562:	85 32       	cpi	r24, 0x25	; 37
    d564:	29 f4       	brne	.+10     	; 0xd570 <vfprintf+0x56>
    d566:	b6 01       	movw	r22, r12
    d568:	90 e0       	ldi	r25, 0x00	; 0
    d56a:	0e 94 84 6c 	call	0xd908	; 0xd908 <fputc>
    d56e:	e7 cf       	rjmp	.-50     	; 0xd53e <vfprintf+0x24>
    d570:	91 2c       	mov	r9, r1
    d572:	21 2c       	mov	r2, r1
    d574:	31 2c       	mov	r3, r1
    d576:	ff e1       	ldi	r31, 0x1F	; 31
    d578:	f3 15       	cp	r31, r3
    d57a:	d8 f0       	brcs	.+54     	; 0xd5b2 <vfprintf+0x98>
    d57c:	8b 32       	cpi	r24, 0x2B	; 43
    d57e:	79 f0       	breq	.+30     	; 0xd59e <vfprintf+0x84>
    d580:	38 f4       	brcc	.+14     	; 0xd590 <vfprintf+0x76>
    d582:	80 32       	cpi	r24, 0x20	; 32
    d584:	79 f0       	breq	.+30     	; 0xd5a4 <vfprintf+0x8a>
    d586:	83 32       	cpi	r24, 0x23	; 35
    d588:	a1 f4       	brne	.+40     	; 0xd5b2 <vfprintf+0x98>
    d58a:	23 2d       	mov	r18, r3
    d58c:	20 61       	ori	r18, 0x10	; 16
    d58e:	1d c0       	rjmp	.+58     	; 0xd5ca <vfprintf+0xb0>
    d590:	8d 32       	cpi	r24, 0x2D	; 45
    d592:	61 f0       	breq	.+24     	; 0xd5ac <vfprintf+0x92>
    d594:	80 33       	cpi	r24, 0x30	; 48
    d596:	69 f4       	brne	.+26     	; 0xd5b2 <vfprintf+0x98>
    d598:	23 2d       	mov	r18, r3
    d59a:	21 60       	ori	r18, 0x01	; 1
    d59c:	16 c0       	rjmp	.+44     	; 0xd5ca <vfprintf+0xb0>
    d59e:	83 2d       	mov	r24, r3
    d5a0:	82 60       	ori	r24, 0x02	; 2
    d5a2:	38 2e       	mov	r3, r24
    d5a4:	e3 2d       	mov	r30, r3
    d5a6:	e4 60       	ori	r30, 0x04	; 4
    d5a8:	3e 2e       	mov	r3, r30
    d5aa:	2a c0       	rjmp	.+84     	; 0xd600 <vfprintf+0xe6>
    d5ac:	f3 2d       	mov	r31, r3
    d5ae:	f8 60       	ori	r31, 0x08	; 8
    d5b0:	1d c0       	rjmp	.+58     	; 0xd5ec <vfprintf+0xd2>
    d5b2:	37 fc       	sbrc	r3, 7
    d5b4:	2d c0       	rjmp	.+90     	; 0xd610 <vfprintf+0xf6>
    d5b6:	20 ed       	ldi	r18, 0xD0	; 208
    d5b8:	28 0f       	add	r18, r24
    d5ba:	2a 30       	cpi	r18, 0x0A	; 10
    d5bc:	40 f0       	brcs	.+16     	; 0xd5ce <vfprintf+0xb4>
    d5be:	8e 32       	cpi	r24, 0x2E	; 46
    d5c0:	b9 f4       	brne	.+46     	; 0xd5f0 <vfprintf+0xd6>
    d5c2:	36 fc       	sbrc	r3, 6
    d5c4:	81 c1       	rjmp	.+770    	; 0xd8c8 <vfprintf+0x3ae>
    d5c6:	23 2d       	mov	r18, r3
    d5c8:	20 64       	ori	r18, 0x40	; 64
    d5ca:	32 2e       	mov	r3, r18
    d5cc:	19 c0       	rjmp	.+50     	; 0xd600 <vfprintf+0xe6>
    d5ce:	36 fe       	sbrs	r3, 6
    d5d0:	06 c0       	rjmp	.+12     	; 0xd5de <vfprintf+0xc4>
    d5d2:	8a e0       	ldi	r24, 0x0A	; 10
    d5d4:	98 9e       	mul	r9, r24
    d5d6:	20 0d       	add	r18, r0
    d5d8:	11 24       	eor	r1, r1
    d5da:	92 2e       	mov	r9, r18
    d5dc:	11 c0       	rjmp	.+34     	; 0xd600 <vfprintf+0xe6>
    d5de:	ea e0       	ldi	r30, 0x0A	; 10
    d5e0:	2e 9e       	mul	r2, r30
    d5e2:	20 0d       	add	r18, r0
    d5e4:	11 24       	eor	r1, r1
    d5e6:	22 2e       	mov	r2, r18
    d5e8:	f3 2d       	mov	r31, r3
    d5ea:	f0 62       	ori	r31, 0x20	; 32
    d5ec:	3f 2e       	mov	r3, r31
    d5ee:	08 c0       	rjmp	.+16     	; 0xd600 <vfprintf+0xe6>
    d5f0:	8c 36       	cpi	r24, 0x6C	; 108
    d5f2:	21 f4       	brne	.+8      	; 0xd5fc <vfprintf+0xe2>
    d5f4:	83 2d       	mov	r24, r3
    d5f6:	80 68       	ori	r24, 0x80	; 128
    d5f8:	38 2e       	mov	r3, r24
    d5fa:	02 c0       	rjmp	.+4      	; 0xd600 <vfprintf+0xe6>
    d5fc:	88 36       	cpi	r24, 0x68	; 104
    d5fe:	41 f4       	brne	.+16     	; 0xd610 <vfprintf+0xf6>
    d600:	f7 01       	movw	r30, r14
    d602:	93 fd       	sbrc	r25, 3
    d604:	85 91       	lpm	r24, Z+
    d606:	93 ff       	sbrs	r25, 3
    d608:	81 91       	ld	r24, Z+
    d60a:	7f 01       	movw	r14, r30
    d60c:	81 11       	cpse	r24, r1
    d60e:	b3 cf       	rjmp	.-154    	; 0xd576 <vfprintf+0x5c>
    d610:	98 2f       	mov	r25, r24
    d612:	9f 7d       	andi	r25, 0xDF	; 223
    d614:	95 54       	subi	r25, 0x45	; 69
    d616:	93 30       	cpi	r25, 0x03	; 3
    d618:	28 f4       	brcc	.+10     	; 0xd624 <vfprintf+0x10a>
    d61a:	0c 5f       	subi	r16, 0xFC	; 252
    d61c:	1f 4f       	sbci	r17, 0xFF	; 255
    d61e:	9f e3       	ldi	r25, 0x3F	; 63
    d620:	99 83       	std	Y+1, r25	; 0x01
    d622:	0d c0       	rjmp	.+26     	; 0xd63e <vfprintf+0x124>
    d624:	83 36       	cpi	r24, 0x63	; 99
    d626:	31 f0       	breq	.+12     	; 0xd634 <vfprintf+0x11a>
    d628:	83 37       	cpi	r24, 0x73	; 115
    d62a:	71 f0       	breq	.+28     	; 0xd648 <vfprintf+0x12e>
    d62c:	83 35       	cpi	r24, 0x53	; 83
    d62e:	09 f0       	breq	.+2      	; 0xd632 <vfprintf+0x118>
    d630:	59 c0       	rjmp	.+178    	; 0xd6e4 <vfprintf+0x1ca>
    d632:	21 c0       	rjmp	.+66     	; 0xd676 <vfprintf+0x15c>
    d634:	f8 01       	movw	r30, r16
    d636:	80 81       	ld	r24, Z
    d638:	89 83       	std	Y+1, r24	; 0x01
    d63a:	0e 5f       	subi	r16, 0xFE	; 254
    d63c:	1f 4f       	sbci	r17, 0xFF	; 255
    d63e:	88 24       	eor	r8, r8
    d640:	83 94       	inc	r8
    d642:	91 2c       	mov	r9, r1
    d644:	53 01       	movw	r10, r6
    d646:	13 c0       	rjmp	.+38     	; 0xd66e <vfprintf+0x154>
    d648:	28 01       	movw	r4, r16
    d64a:	f2 e0       	ldi	r31, 0x02	; 2
    d64c:	4f 0e       	add	r4, r31
    d64e:	51 1c       	adc	r5, r1
    d650:	f8 01       	movw	r30, r16
    d652:	a0 80       	ld	r10, Z
    d654:	b1 80       	ldd	r11, Z+1	; 0x01
    d656:	36 fe       	sbrs	r3, 6
    d658:	03 c0       	rjmp	.+6      	; 0xd660 <vfprintf+0x146>
    d65a:	69 2d       	mov	r22, r9
    d65c:	70 e0       	ldi	r23, 0x00	; 0
    d65e:	02 c0       	rjmp	.+4      	; 0xd664 <vfprintf+0x14a>
    d660:	6f ef       	ldi	r22, 0xFF	; 255
    d662:	7f ef       	ldi	r23, 0xFF	; 255
    d664:	c5 01       	movw	r24, r10
    d666:	0e 94 79 6c 	call	0xd8f2	; 0xd8f2 <strnlen>
    d66a:	4c 01       	movw	r8, r24
    d66c:	82 01       	movw	r16, r4
    d66e:	f3 2d       	mov	r31, r3
    d670:	ff 77       	andi	r31, 0x7F	; 127
    d672:	3f 2e       	mov	r3, r31
    d674:	16 c0       	rjmp	.+44     	; 0xd6a2 <vfprintf+0x188>
    d676:	28 01       	movw	r4, r16
    d678:	22 e0       	ldi	r18, 0x02	; 2
    d67a:	42 0e       	add	r4, r18
    d67c:	51 1c       	adc	r5, r1
    d67e:	f8 01       	movw	r30, r16
    d680:	a0 80       	ld	r10, Z
    d682:	b1 80       	ldd	r11, Z+1	; 0x01
    d684:	36 fe       	sbrs	r3, 6
    d686:	03 c0       	rjmp	.+6      	; 0xd68e <vfprintf+0x174>
    d688:	69 2d       	mov	r22, r9
    d68a:	70 e0       	ldi	r23, 0x00	; 0
    d68c:	02 c0       	rjmp	.+4      	; 0xd692 <vfprintf+0x178>
    d68e:	6f ef       	ldi	r22, 0xFF	; 255
    d690:	7f ef       	ldi	r23, 0xFF	; 255
    d692:	c5 01       	movw	r24, r10
    d694:	0e 94 6e 6c 	call	0xd8dc	; 0xd8dc <strnlen_P>
    d698:	4c 01       	movw	r8, r24
    d69a:	f3 2d       	mov	r31, r3
    d69c:	f0 68       	ori	r31, 0x80	; 128
    d69e:	3f 2e       	mov	r3, r31
    d6a0:	82 01       	movw	r16, r4
    d6a2:	33 fc       	sbrc	r3, 3
    d6a4:	1b c0       	rjmp	.+54     	; 0xd6dc <vfprintf+0x1c2>
    d6a6:	82 2d       	mov	r24, r2
    d6a8:	90 e0       	ldi	r25, 0x00	; 0
    d6aa:	88 16       	cp	r8, r24
    d6ac:	99 06       	cpc	r9, r25
    d6ae:	b0 f4       	brcc	.+44     	; 0xd6dc <vfprintf+0x1c2>
    d6b0:	b6 01       	movw	r22, r12
    d6b2:	80 e2       	ldi	r24, 0x20	; 32
    d6b4:	90 e0       	ldi	r25, 0x00	; 0
    d6b6:	0e 94 84 6c 	call	0xd908	; 0xd908 <fputc>
    d6ba:	2a 94       	dec	r2
    d6bc:	f4 cf       	rjmp	.-24     	; 0xd6a6 <vfprintf+0x18c>
    d6be:	f5 01       	movw	r30, r10
    d6c0:	37 fc       	sbrc	r3, 7
    d6c2:	85 91       	lpm	r24, Z+
    d6c4:	37 fe       	sbrs	r3, 7
    d6c6:	81 91       	ld	r24, Z+
    d6c8:	5f 01       	movw	r10, r30
    d6ca:	b6 01       	movw	r22, r12
    d6cc:	90 e0       	ldi	r25, 0x00	; 0
    d6ce:	0e 94 84 6c 	call	0xd908	; 0xd908 <fputc>
    d6d2:	21 10       	cpse	r2, r1
    d6d4:	2a 94       	dec	r2
    d6d6:	21 e0       	ldi	r18, 0x01	; 1
    d6d8:	82 1a       	sub	r8, r18
    d6da:	91 08       	sbc	r9, r1
    d6dc:	81 14       	cp	r8, r1
    d6de:	91 04       	cpc	r9, r1
    d6e0:	71 f7       	brne	.-36     	; 0xd6be <vfprintf+0x1a4>
    d6e2:	e8 c0       	rjmp	.+464    	; 0xd8b4 <vfprintf+0x39a>
    d6e4:	84 36       	cpi	r24, 0x64	; 100
    d6e6:	11 f0       	breq	.+4      	; 0xd6ec <vfprintf+0x1d2>
    d6e8:	89 36       	cpi	r24, 0x69	; 105
    d6ea:	41 f5       	brne	.+80     	; 0xd73c <vfprintf+0x222>
    d6ec:	f8 01       	movw	r30, r16
    d6ee:	37 fe       	sbrs	r3, 7
    d6f0:	07 c0       	rjmp	.+14     	; 0xd700 <vfprintf+0x1e6>
    d6f2:	60 81       	ld	r22, Z
    d6f4:	71 81       	ldd	r23, Z+1	; 0x01
    d6f6:	82 81       	ldd	r24, Z+2	; 0x02
    d6f8:	93 81       	ldd	r25, Z+3	; 0x03
    d6fa:	0c 5f       	subi	r16, 0xFC	; 252
    d6fc:	1f 4f       	sbci	r17, 0xFF	; 255
    d6fe:	08 c0       	rjmp	.+16     	; 0xd710 <vfprintf+0x1f6>
    d700:	60 81       	ld	r22, Z
    d702:	71 81       	ldd	r23, Z+1	; 0x01
    d704:	07 2e       	mov	r0, r23
    d706:	00 0c       	add	r0, r0
    d708:	88 0b       	sbc	r24, r24
    d70a:	99 0b       	sbc	r25, r25
    d70c:	0e 5f       	subi	r16, 0xFE	; 254
    d70e:	1f 4f       	sbci	r17, 0xFF	; 255
    d710:	f3 2d       	mov	r31, r3
    d712:	ff 76       	andi	r31, 0x6F	; 111
    d714:	3f 2e       	mov	r3, r31
    d716:	97 ff       	sbrs	r25, 7
    d718:	09 c0       	rjmp	.+18     	; 0xd72c <vfprintf+0x212>
    d71a:	90 95       	com	r25
    d71c:	80 95       	com	r24
    d71e:	70 95       	com	r23
    d720:	61 95       	neg	r22
    d722:	7f 4f       	sbci	r23, 0xFF	; 255
    d724:	8f 4f       	sbci	r24, 0xFF	; 255
    d726:	9f 4f       	sbci	r25, 0xFF	; 255
    d728:	f0 68       	ori	r31, 0x80	; 128
    d72a:	3f 2e       	mov	r3, r31
    d72c:	2a e0       	ldi	r18, 0x0A	; 10
    d72e:	30 e0       	ldi	r19, 0x00	; 0
    d730:	a3 01       	movw	r20, r6
    d732:	0e 94 c0 6c 	call	0xd980	; 0xd980 <__ultoa_invert>
    d736:	88 2e       	mov	r8, r24
    d738:	86 18       	sub	r8, r6
    d73a:	45 c0       	rjmp	.+138    	; 0xd7c6 <vfprintf+0x2ac>
    d73c:	85 37       	cpi	r24, 0x75	; 117
    d73e:	31 f4       	brne	.+12     	; 0xd74c <vfprintf+0x232>
    d740:	23 2d       	mov	r18, r3
    d742:	2f 7e       	andi	r18, 0xEF	; 239
    d744:	b2 2e       	mov	r11, r18
    d746:	2a e0       	ldi	r18, 0x0A	; 10
    d748:	30 e0       	ldi	r19, 0x00	; 0
    d74a:	25 c0       	rjmp	.+74     	; 0xd796 <vfprintf+0x27c>
    d74c:	93 2d       	mov	r25, r3
    d74e:	99 7f       	andi	r25, 0xF9	; 249
    d750:	b9 2e       	mov	r11, r25
    d752:	8f 36       	cpi	r24, 0x6F	; 111
    d754:	c1 f0       	breq	.+48     	; 0xd786 <vfprintf+0x26c>
    d756:	18 f4       	brcc	.+6      	; 0xd75e <vfprintf+0x244>
    d758:	88 35       	cpi	r24, 0x58	; 88
    d75a:	79 f0       	breq	.+30     	; 0xd77a <vfprintf+0x260>
    d75c:	b5 c0       	rjmp	.+362    	; 0xd8c8 <vfprintf+0x3ae>
    d75e:	80 37       	cpi	r24, 0x70	; 112
    d760:	19 f0       	breq	.+6      	; 0xd768 <vfprintf+0x24e>
    d762:	88 37       	cpi	r24, 0x78	; 120
    d764:	21 f0       	breq	.+8      	; 0xd76e <vfprintf+0x254>
    d766:	b0 c0       	rjmp	.+352    	; 0xd8c8 <vfprintf+0x3ae>
    d768:	e9 2f       	mov	r30, r25
    d76a:	e0 61       	ori	r30, 0x10	; 16
    d76c:	be 2e       	mov	r11, r30
    d76e:	b4 fe       	sbrs	r11, 4
    d770:	0d c0       	rjmp	.+26     	; 0xd78c <vfprintf+0x272>
    d772:	fb 2d       	mov	r31, r11
    d774:	f4 60       	ori	r31, 0x04	; 4
    d776:	bf 2e       	mov	r11, r31
    d778:	09 c0       	rjmp	.+18     	; 0xd78c <vfprintf+0x272>
    d77a:	34 fe       	sbrs	r3, 4
    d77c:	0a c0       	rjmp	.+20     	; 0xd792 <vfprintf+0x278>
    d77e:	29 2f       	mov	r18, r25
    d780:	26 60       	ori	r18, 0x06	; 6
    d782:	b2 2e       	mov	r11, r18
    d784:	06 c0       	rjmp	.+12     	; 0xd792 <vfprintf+0x278>
    d786:	28 e0       	ldi	r18, 0x08	; 8
    d788:	30 e0       	ldi	r19, 0x00	; 0
    d78a:	05 c0       	rjmp	.+10     	; 0xd796 <vfprintf+0x27c>
    d78c:	20 e1       	ldi	r18, 0x10	; 16
    d78e:	30 e0       	ldi	r19, 0x00	; 0
    d790:	02 c0       	rjmp	.+4      	; 0xd796 <vfprintf+0x27c>
    d792:	20 e1       	ldi	r18, 0x10	; 16
    d794:	32 e0       	ldi	r19, 0x02	; 2
    d796:	f8 01       	movw	r30, r16
    d798:	b7 fe       	sbrs	r11, 7
    d79a:	07 c0       	rjmp	.+14     	; 0xd7aa <vfprintf+0x290>
    d79c:	60 81       	ld	r22, Z
    d79e:	71 81       	ldd	r23, Z+1	; 0x01
    d7a0:	82 81       	ldd	r24, Z+2	; 0x02
    d7a2:	93 81       	ldd	r25, Z+3	; 0x03
    d7a4:	0c 5f       	subi	r16, 0xFC	; 252
    d7a6:	1f 4f       	sbci	r17, 0xFF	; 255
    d7a8:	06 c0       	rjmp	.+12     	; 0xd7b6 <vfprintf+0x29c>
    d7aa:	60 81       	ld	r22, Z
    d7ac:	71 81       	ldd	r23, Z+1	; 0x01
    d7ae:	80 e0       	ldi	r24, 0x00	; 0
    d7b0:	90 e0       	ldi	r25, 0x00	; 0
    d7b2:	0e 5f       	subi	r16, 0xFE	; 254
    d7b4:	1f 4f       	sbci	r17, 0xFF	; 255
    d7b6:	a3 01       	movw	r20, r6
    d7b8:	0e 94 c0 6c 	call	0xd980	; 0xd980 <__ultoa_invert>
    d7bc:	88 2e       	mov	r8, r24
    d7be:	86 18       	sub	r8, r6
    d7c0:	fb 2d       	mov	r31, r11
    d7c2:	ff 77       	andi	r31, 0x7F	; 127
    d7c4:	3f 2e       	mov	r3, r31
    d7c6:	36 fe       	sbrs	r3, 6
    d7c8:	0d c0       	rjmp	.+26     	; 0xd7e4 <vfprintf+0x2ca>
    d7ca:	23 2d       	mov	r18, r3
    d7cc:	2e 7f       	andi	r18, 0xFE	; 254
    d7ce:	a2 2e       	mov	r10, r18
    d7d0:	89 14       	cp	r8, r9
    d7d2:	58 f4       	brcc	.+22     	; 0xd7ea <vfprintf+0x2d0>
    d7d4:	34 fe       	sbrs	r3, 4
    d7d6:	0b c0       	rjmp	.+22     	; 0xd7ee <vfprintf+0x2d4>
    d7d8:	32 fc       	sbrc	r3, 2
    d7da:	09 c0       	rjmp	.+18     	; 0xd7ee <vfprintf+0x2d4>
    d7dc:	83 2d       	mov	r24, r3
    d7de:	8e 7e       	andi	r24, 0xEE	; 238
    d7e0:	a8 2e       	mov	r10, r24
    d7e2:	05 c0       	rjmp	.+10     	; 0xd7ee <vfprintf+0x2d4>
    d7e4:	b8 2c       	mov	r11, r8
    d7e6:	a3 2c       	mov	r10, r3
    d7e8:	03 c0       	rjmp	.+6      	; 0xd7f0 <vfprintf+0x2d6>
    d7ea:	b8 2c       	mov	r11, r8
    d7ec:	01 c0       	rjmp	.+2      	; 0xd7f0 <vfprintf+0x2d6>
    d7ee:	b9 2c       	mov	r11, r9
    d7f0:	a4 fe       	sbrs	r10, 4
    d7f2:	0f c0       	rjmp	.+30     	; 0xd812 <vfprintf+0x2f8>
    d7f4:	fe 01       	movw	r30, r28
    d7f6:	e8 0d       	add	r30, r8
    d7f8:	f1 1d       	adc	r31, r1
    d7fa:	80 81       	ld	r24, Z
    d7fc:	80 33       	cpi	r24, 0x30	; 48
    d7fe:	21 f4       	brne	.+8      	; 0xd808 <vfprintf+0x2ee>
    d800:	9a 2d       	mov	r25, r10
    d802:	99 7e       	andi	r25, 0xE9	; 233
    d804:	a9 2e       	mov	r10, r25
    d806:	09 c0       	rjmp	.+18     	; 0xd81a <vfprintf+0x300>
    d808:	a2 fe       	sbrs	r10, 2
    d80a:	06 c0       	rjmp	.+12     	; 0xd818 <vfprintf+0x2fe>
    d80c:	b3 94       	inc	r11
    d80e:	b3 94       	inc	r11
    d810:	04 c0       	rjmp	.+8      	; 0xd81a <vfprintf+0x300>
    d812:	8a 2d       	mov	r24, r10
    d814:	86 78       	andi	r24, 0x86	; 134
    d816:	09 f0       	breq	.+2      	; 0xd81a <vfprintf+0x300>
    d818:	b3 94       	inc	r11
    d81a:	a3 fc       	sbrc	r10, 3
    d81c:	11 c0       	rjmp	.+34     	; 0xd840 <vfprintf+0x326>
    d81e:	a0 fe       	sbrs	r10, 0
    d820:	06 c0       	rjmp	.+12     	; 0xd82e <vfprintf+0x314>
    d822:	b2 14       	cp	r11, r2
    d824:	88 f4       	brcc	.+34     	; 0xd848 <vfprintf+0x32e>
    d826:	28 0c       	add	r2, r8
    d828:	92 2c       	mov	r9, r2
    d82a:	9b 18       	sub	r9, r11
    d82c:	0e c0       	rjmp	.+28     	; 0xd84a <vfprintf+0x330>
    d82e:	b2 14       	cp	r11, r2
    d830:	60 f4       	brcc	.+24     	; 0xd84a <vfprintf+0x330>
    d832:	b6 01       	movw	r22, r12
    d834:	80 e2       	ldi	r24, 0x20	; 32
    d836:	90 e0       	ldi	r25, 0x00	; 0
    d838:	0e 94 84 6c 	call	0xd908	; 0xd908 <fputc>
    d83c:	b3 94       	inc	r11
    d83e:	f7 cf       	rjmp	.-18     	; 0xd82e <vfprintf+0x314>
    d840:	b2 14       	cp	r11, r2
    d842:	18 f4       	brcc	.+6      	; 0xd84a <vfprintf+0x330>
    d844:	2b 18       	sub	r2, r11
    d846:	02 c0       	rjmp	.+4      	; 0xd84c <vfprintf+0x332>
    d848:	98 2c       	mov	r9, r8
    d84a:	21 2c       	mov	r2, r1
    d84c:	a4 fe       	sbrs	r10, 4
    d84e:	10 c0       	rjmp	.+32     	; 0xd870 <vfprintf+0x356>
    d850:	b6 01       	movw	r22, r12
    d852:	80 e3       	ldi	r24, 0x30	; 48
    d854:	90 e0       	ldi	r25, 0x00	; 0
    d856:	0e 94 84 6c 	call	0xd908	; 0xd908 <fputc>
    d85a:	a2 fe       	sbrs	r10, 2
    d85c:	17 c0       	rjmp	.+46     	; 0xd88c <vfprintf+0x372>
    d85e:	a1 fc       	sbrc	r10, 1
    d860:	03 c0       	rjmp	.+6      	; 0xd868 <vfprintf+0x34e>
    d862:	88 e7       	ldi	r24, 0x78	; 120
    d864:	90 e0       	ldi	r25, 0x00	; 0
    d866:	02 c0       	rjmp	.+4      	; 0xd86c <vfprintf+0x352>
    d868:	88 e5       	ldi	r24, 0x58	; 88
    d86a:	90 e0       	ldi	r25, 0x00	; 0
    d86c:	b6 01       	movw	r22, r12
    d86e:	0c c0       	rjmp	.+24     	; 0xd888 <vfprintf+0x36e>
    d870:	8a 2d       	mov	r24, r10
    d872:	86 78       	andi	r24, 0x86	; 134
    d874:	59 f0       	breq	.+22     	; 0xd88c <vfprintf+0x372>
    d876:	a1 fe       	sbrs	r10, 1
    d878:	02 c0       	rjmp	.+4      	; 0xd87e <vfprintf+0x364>
    d87a:	8b e2       	ldi	r24, 0x2B	; 43
    d87c:	01 c0       	rjmp	.+2      	; 0xd880 <vfprintf+0x366>
    d87e:	80 e2       	ldi	r24, 0x20	; 32
    d880:	a7 fc       	sbrc	r10, 7
    d882:	8d e2       	ldi	r24, 0x2D	; 45
    d884:	b6 01       	movw	r22, r12
    d886:	90 e0       	ldi	r25, 0x00	; 0
    d888:	0e 94 84 6c 	call	0xd908	; 0xd908 <fputc>
    d88c:	89 14       	cp	r8, r9
    d88e:	38 f4       	brcc	.+14     	; 0xd89e <vfprintf+0x384>
    d890:	b6 01       	movw	r22, r12
    d892:	80 e3       	ldi	r24, 0x30	; 48
    d894:	90 e0       	ldi	r25, 0x00	; 0
    d896:	0e 94 84 6c 	call	0xd908	; 0xd908 <fputc>
    d89a:	9a 94       	dec	r9
    d89c:	f7 cf       	rjmp	.-18     	; 0xd88c <vfprintf+0x372>
    d89e:	8a 94       	dec	r8
    d8a0:	f3 01       	movw	r30, r6
    d8a2:	e8 0d       	add	r30, r8
    d8a4:	f1 1d       	adc	r31, r1
    d8a6:	80 81       	ld	r24, Z
    d8a8:	b6 01       	movw	r22, r12
    d8aa:	90 e0       	ldi	r25, 0x00	; 0
    d8ac:	0e 94 84 6c 	call	0xd908	; 0xd908 <fputc>
    d8b0:	81 10       	cpse	r8, r1
    d8b2:	f5 cf       	rjmp	.-22     	; 0xd89e <vfprintf+0x384>
    d8b4:	22 20       	and	r2, r2
    d8b6:	09 f4       	brne	.+2      	; 0xd8ba <vfprintf+0x3a0>
    d8b8:	42 ce       	rjmp	.-892    	; 0xd53e <vfprintf+0x24>
    d8ba:	b6 01       	movw	r22, r12
    d8bc:	80 e2       	ldi	r24, 0x20	; 32
    d8be:	90 e0       	ldi	r25, 0x00	; 0
    d8c0:	0e 94 84 6c 	call	0xd908	; 0xd908 <fputc>
    d8c4:	2a 94       	dec	r2
    d8c6:	f6 cf       	rjmp	.-20     	; 0xd8b4 <vfprintf+0x39a>
    d8c8:	f6 01       	movw	r30, r12
    d8ca:	86 81       	ldd	r24, Z+6	; 0x06
    d8cc:	97 81       	ldd	r25, Z+7	; 0x07
    d8ce:	02 c0       	rjmp	.+4      	; 0xd8d4 <vfprintf+0x3ba>
    d8d0:	8f ef       	ldi	r24, 0xFF	; 255
    d8d2:	9f ef       	ldi	r25, 0xFF	; 255
    d8d4:	2b 96       	adiw	r28, 0x0b	; 11
    d8d6:	e2 e1       	ldi	r30, 0x12	; 18
    d8d8:	0c 94 58 6d 	jmp	0xdab0	; 0xdab0 <__epilogue_restores__>

0000d8dc <strnlen_P>:
    d8dc:	fc 01       	movw	r30, r24
    d8de:	05 90       	lpm	r0, Z+
    d8e0:	61 50       	subi	r22, 0x01	; 1
    d8e2:	70 40       	sbci	r23, 0x00	; 0
    d8e4:	01 10       	cpse	r0, r1
    d8e6:	d8 f7       	brcc	.-10     	; 0xd8de <strnlen_P+0x2>
    d8e8:	80 95       	com	r24
    d8ea:	90 95       	com	r25
    d8ec:	8e 0f       	add	r24, r30
    d8ee:	9f 1f       	adc	r25, r31
    d8f0:	08 95       	ret

0000d8f2 <strnlen>:
    d8f2:	fc 01       	movw	r30, r24
    d8f4:	61 50       	subi	r22, 0x01	; 1
    d8f6:	70 40       	sbci	r23, 0x00	; 0
    d8f8:	01 90       	ld	r0, Z+
    d8fa:	01 10       	cpse	r0, r1
    d8fc:	d8 f7       	brcc	.-10     	; 0xd8f4 <strnlen+0x2>
    d8fe:	80 95       	com	r24
    d900:	90 95       	com	r25
    d902:	8e 0f       	add	r24, r30
    d904:	9f 1f       	adc	r25, r31
    d906:	08 95       	ret

0000d908 <fputc>:
    d908:	0f 93       	push	r16
    d90a:	1f 93       	push	r17
    d90c:	cf 93       	push	r28
    d90e:	df 93       	push	r29
    d910:	fb 01       	movw	r30, r22
    d912:	23 81       	ldd	r18, Z+3	; 0x03
    d914:	21 fd       	sbrc	r18, 1
    d916:	03 c0       	rjmp	.+6      	; 0xd91e <fputc+0x16>
    d918:	8f ef       	ldi	r24, 0xFF	; 255
    d91a:	9f ef       	ldi	r25, 0xFF	; 255
    d91c:	2c c0       	rjmp	.+88     	; 0xd976 <fputc+0x6e>
    d91e:	22 ff       	sbrs	r18, 2
    d920:	16 c0       	rjmp	.+44     	; 0xd94e <fputc+0x46>
    d922:	46 81       	ldd	r20, Z+6	; 0x06
    d924:	57 81       	ldd	r21, Z+7	; 0x07
    d926:	24 81       	ldd	r18, Z+4	; 0x04
    d928:	35 81       	ldd	r19, Z+5	; 0x05
    d92a:	42 17       	cp	r20, r18
    d92c:	53 07       	cpc	r21, r19
    d92e:	44 f4       	brge	.+16     	; 0xd940 <fputc+0x38>
    d930:	a0 81       	ld	r26, Z
    d932:	b1 81       	ldd	r27, Z+1	; 0x01
    d934:	9d 01       	movw	r18, r26
    d936:	2f 5f       	subi	r18, 0xFF	; 255
    d938:	3f 4f       	sbci	r19, 0xFF	; 255
    d93a:	31 83       	std	Z+1, r19	; 0x01
    d93c:	20 83       	st	Z, r18
    d93e:	8c 93       	st	X, r24
    d940:	26 81       	ldd	r18, Z+6	; 0x06
    d942:	37 81       	ldd	r19, Z+7	; 0x07
    d944:	2f 5f       	subi	r18, 0xFF	; 255
    d946:	3f 4f       	sbci	r19, 0xFF	; 255
    d948:	37 83       	std	Z+7, r19	; 0x07
    d94a:	26 83       	std	Z+6, r18	; 0x06
    d94c:	14 c0       	rjmp	.+40     	; 0xd976 <fputc+0x6e>
    d94e:	8b 01       	movw	r16, r22
    d950:	ec 01       	movw	r28, r24
    d952:	fb 01       	movw	r30, r22
    d954:	00 84       	ldd	r0, Z+8	; 0x08
    d956:	f1 85       	ldd	r31, Z+9	; 0x09
    d958:	e0 2d       	mov	r30, r0
    d95a:	09 95       	icall
    d95c:	89 2b       	or	r24, r25
    d95e:	e1 f6       	brne	.-72     	; 0xd918 <fputc+0x10>
    d960:	d8 01       	movw	r26, r16
    d962:	16 96       	adiw	r26, 0x06	; 6
    d964:	8d 91       	ld	r24, X+
    d966:	9c 91       	ld	r25, X
    d968:	17 97       	sbiw	r26, 0x07	; 7
    d96a:	01 96       	adiw	r24, 0x01	; 1
    d96c:	17 96       	adiw	r26, 0x07	; 7
    d96e:	9c 93       	st	X, r25
    d970:	8e 93       	st	-X, r24
    d972:	16 97       	sbiw	r26, 0x06	; 6
    d974:	ce 01       	movw	r24, r28
    d976:	df 91       	pop	r29
    d978:	cf 91       	pop	r28
    d97a:	1f 91       	pop	r17
    d97c:	0f 91       	pop	r16
    d97e:	08 95       	ret

0000d980 <__ultoa_invert>:
    d980:	fa 01       	movw	r30, r20
    d982:	aa 27       	eor	r26, r26
    d984:	28 30       	cpi	r18, 0x08	; 8
    d986:	51 f1       	breq	.+84     	; 0xd9dc <__ultoa_invert+0x5c>
    d988:	20 31       	cpi	r18, 0x10	; 16
    d98a:	81 f1       	breq	.+96     	; 0xd9ec <__ultoa_invert+0x6c>
    d98c:	e8 94       	clt
    d98e:	6f 93       	push	r22
    d990:	6e 7f       	andi	r22, 0xFE	; 254
    d992:	6e 5f       	subi	r22, 0xFE	; 254
    d994:	7f 4f       	sbci	r23, 0xFF	; 255
    d996:	8f 4f       	sbci	r24, 0xFF	; 255
    d998:	9f 4f       	sbci	r25, 0xFF	; 255
    d99a:	af 4f       	sbci	r26, 0xFF	; 255
    d99c:	b1 e0       	ldi	r27, 0x01	; 1
    d99e:	3e d0       	rcall	.+124    	; 0xda1c <__ultoa_invert+0x9c>
    d9a0:	b4 e0       	ldi	r27, 0x04	; 4
    d9a2:	3c d0       	rcall	.+120    	; 0xda1c <__ultoa_invert+0x9c>
    d9a4:	67 0f       	add	r22, r23
    d9a6:	78 1f       	adc	r23, r24
    d9a8:	89 1f       	adc	r24, r25
    d9aa:	9a 1f       	adc	r25, r26
    d9ac:	a1 1d       	adc	r26, r1
    d9ae:	68 0f       	add	r22, r24
    d9b0:	79 1f       	adc	r23, r25
    d9b2:	8a 1f       	adc	r24, r26
    d9b4:	91 1d       	adc	r25, r1
    d9b6:	a1 1d       	adc	r26, r1
    d9b8:	6a 0f       	add	r22, r26
    d9ba:	71 1d       	adc	r23, r1
    d9bc:	81 1d       	adc	r24, r1
    d9be:	91 1d       	adc	r25, r1
    d9c0:	a1 1d       	adc	r26, r1
    d9c2:	20 d0       	rcall	.+64     	; 0xda04 <__ultoa_invert+0x84>
    d9c4:	09 f4       	brne	.+2      	; 0xd9c8 <__ultoa_invert+0x48>
    d9c6:	68 94       	set
    d9c8:	3f 91       	pop	r19
    d9ca:	2a e0       	ldi	r18, 0x0A	; 10
    d9cc:	26 9f       	mul	r18, r22
    d9ce:	11 24       	eor	r1, r1
    d9d0:	30 19       	sub	r19, r0
    d9d2:	30 5d       	subi	r19, 0xD0	; 208
    d9d4:	31 93       	st	Z+, r19
    d9d6:	de f6       	brtc	.-74     	; 0xd98e <__ultoa_invert+0xe>
    d9d8:	cf 01       	movw	r24, r30
    d9da:	08 95       	ret
    d9dc:	46 2f       	mov	r20, r22
    d9de:	47 70       	andi	r20, 0x07	; 7
    d9e0:	40 5d       	subi	r20, 0xD0	; 208
    d9e2:	41 93       	st	Z+, r20
    d9e4:	b3 e0       	ldi	r27, 0x03	; 3
    d9e6:	0f d0       	rcall	.+30     	; 0xda06 <__ultoa_invert+0x86>
    d9e8:	c9 f7       	brne	.-14     	; 0xd9dc <__ultoa_invert+0x5c>
    d9ea:	f6 cf       	rjmp	.-20     	; 0xd9d8 <__ultoa_invert+0x58>
    d9ec:	46 2f       	mov	r20, r22
    d9ee:	4f 70       	andi	r20, 0x0F	; 15
    d9f0:	40 5d       	subi	r20, 0xD0	; 208
    d9f2:	4a 33       	cpi	r20, 0x3A	; 58
    d9f4:	18 f0       	brcs	.+6      	; 0xd9fc <__ultoa_invert+0x7c>
    d9f6:	49 5d       	subi	r20, 0xD9	; 217
    d9f8:	31 fd       	sbrc	r19, 1
    d9fa:	40 52       	subi	r20, 0x20	; 32
    d9fc:	41 93       	st	Z+, r20
    d9fe:	02 d0       	rcall	.+4      	; 0xda04 <__ultoa_invert+0x84>
    da00:	a9 f7       	brne	.-22     	; 0xd9ec <__ultoa_invert+0x6c>
    da02:	ea cf       	rjmp	.-44     	; 0xd9d8 <__ultoa_invert+0x58>
    da04:	b4 e0       	ldi	r27, 0x04	; 4
    da06:	a6 95       	lsr	r26
    da08:	97 95       	ror	r25
    da0a:	87 95       	ror	r24
    da0c:	77 95       	ror	r23
    da0e:	67 95       	ror	r22
    da10:	ba 95       	dec	r27
    da12:	c9 f7       	brne	.-14     	; 0xda06 <__ultoa_invert+0x86>
    da14:	00 97       	sbiw	r24, 0x00	; 0
    da16:	61 05       	cpc	r22, r1
    da18:	71 05       	cpc	r23, r1
    da1a:	08 95       	ret
    da1c:	9b 01       	movw	r18, r22
    da1e:	ac 01       	movw	r20, r24
    da20:	0a 2e       	mov	r0, r26
    da22:	06 94       	lsr	r0
    da24:	57 95       	ror	r21
    da26:	47 95       	ror	r20
    da28:	37 95       	ror	r19
    da2a:	27 95       	ror	r18
    da2c:	ba 95       	dec	r27
    da2e:	c9 f7       	brne	.-14     	; 0xda22 <__ultoa_invert+0xa2>
    da30:	62 0f       	add	r22, r18
    da32:	73 1f       	adc	r23, r19
    da34:	84 1f       	adc	r24, r20
    da36:	95 1f       	adc	r25, r21
    da38:	a0 1d       	adc	r26, r0
    da3a:	08 95       	ret

0000da3c <eeprom_read_block>:
    da3c:	dc 01       	movw	r26, r24
    da3e:	cb 01       	movw	r24, r22

0000da40 <eeprom_read_blraw>:
    da40:	fc 01       	movw	r30, r24
    da42:	e1 99       	sbic	0x1c, 1	; 28
    da44:	fe cf       	rjmp	.-4      	; 0xda42 <eeprom_read_blraw+0x2>
    da46:	06 c0       	rjmp	.+12     	; 0xda54 <eeprom_read_blraw+0x14>
    da48:	ff bb       	out	0x1f, r31	; 31
    da4a:	ee bb       	out	0x1e, r30	; 30
    da4c:	e0 9a       	sbi	0x1c, 0	; 28
    da4e:	31 96       	adiw	r30, 0x01	; 1
    da50:	0d b2       	in	r0, 0x1d	; 29
    da52:	0d 92       	st	X+, r0
    da54:	41 50       	subi	r20, 0x01	; 1
    da56:	50 40       	sbci	r21, 0x00	; 0
    da58:	b8 f7       	brcc	.-18     	; 0xda48 <eeprom_read_blraw+0x8>
    da5a:	08 95       	ret

0000da5c <eeprom_read_word>:
    da5c:	a8 e1       	ldi	r26, 0x18	; 24
    da5e:	b0 e0       	ldi	r27, 0x00	; 0
    da60:	42 e0       	ldi	r20, 0x02	; 2
    da62:	50 e0       	ldi	r21, 0x00	; 0
    da64:	0c 94 20 6d 	jmp	0xda40	; 0xda40 <eeprom_read_blraw>

0000da68 <__mulshisi3>:
    da68:	b7 ff       	sbrs	r27, 7
    da6a:	0c 94 dc 69 	jmp	0xd3b8	; 0xd3b8 <__muluhisi3>

0000da6e <__mulohisi3>:
    da6e:	0e 94 dc 69 	call	0xd3b8	; 0xd3b8 <__muluhisi3>
    da72:	82 1b       	sub	r24, r18
    da74:	93 0b       	sbc	r25, r19
    da76:	08 95       	ret

0000da78 <__prologue_saves__>:
    da78:	2f 92       	push	r2
    da7a:	3f 92       	push	r3
    da7c:	4f 92       	push	r4
    da7e:	5f 92       	push	r5
    da80:	6f 92       	push	r6
    da82:	7f 92       	push	r7
    da84:	8f 92       	push	r8
    da86:	9f 92       	push	r9
    da88:	af 92       	push	r10
    da8a:	bf 92       	push	r11
    da8c:	cf 92       	push	r12
    da8e:	df 92       	push	r13
    da90:	ef 92       	push	r14
    da92:	ff 92       	push	r15
    da94:	0f 93       	push	r16
    da96:	1f 93       	push	r17
    da98:	cf 93       	push	r28
    da9a:	df 93       	push	r29
    da9c:	cd b7       	in	r28, 0x3d	; 61
    da9e:	de b7       	in	r29, 0x3e	; 62
    daa0:	ca 1b       	sub	r28, r26
    daa2:	db 0b       	sbc	r29, r27
    daa4:	0f b6       	in	r0, 0x3f	; 63
    daa6:	f8 94       	cli
    daa8:	de bf       	out	0x3e, r29	; 62
    daaa:	0f be       	out	0x3f, r0	; 63
    daac:	cd bf       	out	0x3d, r28	; 61
    daae:	09 94       	ijmp

0000dab0 <__epilogue_restores__>:
    dab0:	2a 88       	ldd	r2, Y+18	; 0x12
    dab2:	39 88       	ldd	r3, Y+17	; 0x11
    dab4:	48 88       	ldd	r4, Y+16	; 0x10
    dab6:	5f 84       	ldd	r5, Y+15	; 0x0f
    dab8:	6e 84       	ldd	r6, Y+14	; 0x0e
    daba:	7d 84       	ldd	r7, Y+13	; 0x0d
    dabc:	8c 84       	ldd	r8, Y+12	; 0x0c
    dabe:	9b 84       	ldd	r9, Y+11	; 0x0b
    dac0:	aa 84       	ldd	r10, Y+10	; 0x0a
    dac2:	b9 84       	ldd	r11, Y+9	; 0x09
    dac4:	c8 84       	ldd	r12, Y+8	; 0x08
    dac6:	df 80       	ldd	r13, Y+7	; 0x07
    dac8:	ee 80       	ldd	r14, Y+6	; 0x06
    daca:	fd 80       	ldd	r15, Y+5	; 0x05
    dacc:	0c 81       	ldd	r16, Y+4	; 0x04
    dace:	1b 81       	ldd	r17, Y+3	; 0x03
    dad0:	aa 81       	ldd	r26, Y+2	; 0x02
    dad2:	b9 81       	ldd	r27, Y+1	; 0x01
    dad4:	ce 0f       	add	r28, r30
    dad6:	d1 1d       	adc	r29, r1
    dad8:	0f b6       	in	r0, 0x3f	; 63
    dada:	f8 94       	cli
    dadc:	de bf       	out	0x3e, r29	; 62
    dade:	0f be       	out	0x3f, r0	; 63
    dae0:	cd bf       	out	0x3d, r28	; 61
    dae2:	ed 01       	movw	r28, r26
    dae4:	08 95       	ret

0000dae6 <__do_global_dtors>:
    dae6:	1f e3       	ldi	r17, 0x3F	; 63
    dae8:	cc e5       	ldi	r28, 0x5C	; 92
    daea:	df e3       	ldi	r29, 0x3F	; 63
    daec:	04 c0       	rjmp	.+8      	; 0xdaf6 <__do_global_dtors+0x10>
    daee:	fe 01       	movw	r30, r28
    daf0:	0e 94 fb 69 	call	0xd3f6	; 0xd3f6 <__tablejump2__>
    daf4:	21 96       	adiw	r28, 0x01	; 1
    daf6:	c2 36       	cpi	r28, 0x62	; 98
    daf8:	d1 07       	cpc	r29, r17
    dafa:	c9 f7       	brne	.-14     	; 0xdaee <__do_global_dtors+0x8>
    dafc:	f8 94       	cli

0000dafe <__stop_program>:
    dafe:	ff cf       	rjmp	.-2      	; 0xdafe <__stop_program>
